
stm_gyro_stable_controller.elf:     file format elf32-littlearm

Sections:
Idx Name          Size      VMA       LMA       File off  Algn
  0 .isr_vector   00000188  08000000  08000000  00010000  2**0
                  CONTENTS, ALLOC, LOAD, READONLY, DATA
  1 .text         0000b110  08000188  08000188  00010188  2**3
                  CONTENTS, ALLOC, LOAD, READONLY, CODE
  2 .rodata       00000454  0800b298  0800b298  0001b298  2**2
                  CONTENTS, ALLOC, LOAD, READONLY, DATA
  3 .ARM.extab    00000000  0800b6ec  0800b6ec  000200a0  2**0
                  CONTENTS
  4 .ARM          00000008  0800b6ec  0800b6ec  0001b6ec  2**2
                  CONTENTS, ALLOC, LOAD, READONLY, DATA
  5 .preinit_array 00000000  0800b6f4  0800b6f4  000200a0  2**0
                  CONTENTS, ALLOC, LOAD, DATA
  6 .init_array   00000004  0800b6f4  0800b6f4  0001b6f4  2**2
                  CONTENTS, ALLOC, LOAD, DATA
  7 .fini_array   00000004  0800b6f8  0800b6f8  0001b6f8  2**2
                  CONTENTS, ALLOC, LOAD, DATA
  8 .data         000000a0  20000000  0800b6fc  00020000  2**2
                  CONTENTS, ALLOC, LOAD, DATA
  9 .ccmram       00000000  10000000  10000000  000200a0  2**0
                  CONTENTS
 10 .bss          00000600  200000a0  200000a0  000200a0  2**2
                  ALLOC
 11 ._user_heap_stack 00000600  200006a0  200006a0  000200a0  2**0
                  ALLOC
 12 .ARM.attributes 00000030  00000000  00000000  000200a0  2**0
                  CONTENTS, READONLY
 13 .debug_info   00017a94  00000000  00000000  000200d0  2**0
                  CONTENTS, READONLY, DEBUGGING, OCTETS
 14 .debug_abbrev 000032e5  00000000  00000000  00037b64  2**0
                  CONTENTS, READONLY, DEBUGGING, OCTETS
 15 .debug_aranges 00001218  00000000  00000000  0003ae50  2**3
                  CONTENTS, READONLY, DEBUGGING, OCTETS
 16 .debug_ranges 000010e8  00000000  00000000  0003c068  2**3
                  CONTENTS, READONLY, DEBUGGING, OCTETS
 17 .debug_macro  000247c5  00000000  00000000  0003d150  2**0
                  CONTENTS, READONLY, DEBUGGING, OCTETS
 18 .debug_line   00016960  00000000  00000000  00061915  2**0
                  CONTENTS, READONLY, DEBUGGING, OCTETS
 19 .debug_str    000dbf43  00000000  00000000  00078275  2**0
                  CONTENTS, READONLY, DEBUGGING, OCTETS
 20 .comment      00000053  00000000  00000000  001541b8  2**0
                  CONTENTS, READONLY
 21 .debug_frame  00004fe8  00000000  00000000  0015420c  2**2
                  CONTENTS, READONLY, DEBUGGING, OCTETS

Disassembly of section .text:

08000188 <__do_global_dtors_aux>:
 8000188:	b510      	push	{r4, lr}
 800018a:	4c05      	ldr	r4, [pc, #20]	; (80001a0 <__do_global_dtors_aux+0x18>)
 800018c:	7823      	ldrb	r3, [r4, #0]
 800018e:	b933      	cbnz	r3, 800019e <__do_global_dtors_aux+0x16>
 8000190:	4b04      	ldr	r3, [pc, #16]	; (80001a4 <__do_global_dtors_aux+0x1c>)
 8000192:	b113      	cbz	r3, 800019a <__do_global_dtors_aux+0x12>
 8000194:	4804      	ldr	r0, [pc, #16]	; (80001a8 <__do_global_dtors_aux+0x20>)
 8000196:	f3af 8000 	nop.w
 800019a:	2301      	movs	r3, #1
 800019c:	7023      	strb	r3, [r4, #0]
 800019e:	bd10      	pop	{r4, pc}
 80001a0:	200000a0 	.word	0x200000a0
 80001a4:	00000000 	.word	0x00000000
 80001a8:	0800b280 	.word	0x0800b280

080001ac <frame_dummy>:
 80001ac:	b508      	push	{r3, lr}
 80001ae:	4b03      	ldr	r3, [pc, #12]	; (80001bc <frame_dummy+0x10>)
 80001b0:	b11b      	cbz	r3, 80001ba <frame_dummy+0xe>
 80001b2:	4903      	ldr	r1, [pc, #12]	; (80001c0 <frame_dummy+0x14>)
 80001b4:	4803      	ldr	r0, [pc, #12]	; (80001c4 <frame_dummy+0x18>)
 80001b6:	f3af 8000 	nop.w
 80001ba:	bd08      	pop	{r3, pc}
 80001bc:	00000000 	.word	0x00000000
 80001c0:	200000a4 	.word	0x200000a4
 80001c4:	0800b280 	.word	0x0800b280

080001c8 <__aeabi_drsub>:
 80001c8:	f081 4100 	eor.w	r1, r1, #2147483648	; 0x80000000
 80001cc:	e002      	b.n	80001d4 <__adddf3>
 80001ce:	bf00      	nop

080001d0 <__aeabi_dsub>:
 80001d0:	f083 4300 	eor.w	r3, r3, #2147483648	; 0x80000000

080001d4 <__adddf3>:
 80001d4:	b530      	push	{r4, r5, lr}
 80001d6:	ea4f 0441 	mov.w	r4, r1, lsl #1
 80001da:	ea4f 0543 	mov.w	r5, r3, lsl #1
 80001de:	ea94 0f05 	teq	r4, r5
 80001e2:	bf08      	it	eq
 80001e4:	ea90 0f02 	teqeq	r0, r2
 80001e8:	bf1f      	itttt	ne
 80001ea:	ea54 0c00 	orrsne.w	ip, r4, r0
 80001ee:	ea55 0c02 	orrsne.w	ip, r5, r2
 80001f2:	ea7f 5c64 	mvnsne.w	ip, r4, asr #21
 80001f6:	ea7f 5c65 	mvnsne.w	ip, r5, asr #21
 80001fa:	f000 80e2 	beq.w	80003c2 <__adddf3+0x1ee>
 80001fe:	ea4f 5454 	mov.w	r4, r4, lsr #21
 8000202:	ebd4 5555 	rsbs	r5, r4, r5, lsr #21
 8000206:	bfb8      	it	lt
 8000208:	426d      	neglt	r5, r5
 800020a:	dd0c      	ble.n	8000226 <__adddf3+0x52>
 800020c:	442c      	add	r4, r5
 800020e:	ea80 0202 	eor.w	r2, r0, r2
 8000212:	ea81 0303 	eor.w	r3, r1, r3
 8000216:	ea82 0000 	eor.w	r0, r2, r0
 800021a:	ea83 0101 	eor.w	r1, r3, r1
 800021e:	ea80 0202 	eor.w	r2, r0, r2
 8000222:	ea81 0303 	eor.w	r3, r1, r3
 8000226:	2d36      	cmp	r5, #54	; 0x36
 8000228:	bf88      	it	hi
 800022a:	bd30      	pophi	{r4, r5, pc}
 800022c:	f011 4f00 	tst.w	r1, #2147483648	; 0x80000000
 8000230:	ea4f 3101 	mov.w	r1, r1, lsl #12
 8000234:	f44f 1c80 	mov.w	ip, #1048576	; 0x100000
 8000238:	ea4c 3111 	orr.w	r1, ip, r1, lsr #12
 800023c:	d002      	beq.n	8000244 <__adddf3+0x70>
 800023e:	4240      	negs	r0, r0
 8000240:	eb61 0141 	sbc.w	r1, r1, r1, lsl #1
 8000244:	f013 4f00 	tst.w	r3, #2147483648	; 0x80000000
 8000248:	ea4f 3303 	mov.w	r3, r3, lsl #12
 800024c:	ea4c 3313 	orr.w	r3, ip, r3, lsr #12
 8000250:	d002      	beq.n	8000258 <__adddf3+0x84>
 8000252:	4252      	negs	r2, r2
 8000254:	eb63 0343 	sbc.w	r3, r3, r3, lsl #1
 8000258:	ea94 0f05 	teq	r4, r5
 800025c:	f000 80a7 	beq.w	80003ae <__adddf3+0x1da>
 8000260:	f1a4 0401 	sub.w	r4, r4, #1
 8000264:	f1d5 0e20 	rsbs	lr, r5, #32
 8000268:	db0d      	blt.n	8000286 <__adddf3+0xb2>
 800026a:	fa02 fc0e 	lsl.w	ip, r2, lr
 800026e:	fa22 f205 	lsr.w	r2, r2, r5
 8000272:	1880      	adds	r0, r0, r2
 8000274:	f141 0100 	adc.w	r1, r1, #0
 8000278:	fa03 f20e 	lsl.w	r2, r3, lr
 800027c:	1880      	adds	r0, r0, r2
 800027e:	fa43 f305 	asr.w	r3, r3, r5
 8000282:	4159      	adcs	r1, r3
 8000284:	e00e      	b.n	80002a4 <__adddf3+0xd0>
 8000286:	f1a5 0520 	sub.w	r5, r5, #32
 800028a:	f10e 0e20 	add.w	lr, lr, #32
 800028e:	2a01      	cmp	r2, #1
 8000290:	fa03 fc0e 	lsl.w	ip, r3, lr
 8000294:	bf28      	it	cs
 8000296:	f04c 0c02 	orrcs.w	ip, ip, #2
 800029a:	fa43 f305 	asr.w	r3, r3, r5
 800029e:	18c0      	adds	r0, r0, r3
 80002a0:	eb51 71e3 	adcs.w	r1, r1, r3, asr #31
 80002a4:	f001 4500 	and.w	r5, r1, #2147483648	; 0x80000000
 80002a8:	d507      	bpl.n	80002ba <__adddf3+0xe6>
 80002aa:	f04f 0e00 	mov.w	lr, #0
 80002ae:	f1dc 0c00 	rsbs	ip, ip, #0
 80002b2:	eb7e 0000 	sbcs.w	r0, lr, r0
 80002b6:	eb6e 0101 	sbc.w	r1, lr, r1
 80002ba:	f5b1 1f80 	cmp.w	r1, #1048576	; 0x100000
 80002be:	d31b      	bcc.n	80002f8 <__adddf3+0x124>
 80002c0:	f5b1 1f00 	cmp.w	r1, #2097152	; 0x200000
 80002c4:	d30c      	bcc.n	80002e0 <__adddf3+0x10c>
 80002c6:	0849      	lsrs	r1, r1, #1
 80002c8:	ea5f 0030 	movs.w	r0, r0, rrx
 80002cc:	ea4f 0c3c 	mov.w	ip, ip, rrx
 80002d0:	f104 0401 	add.w	r4, r4, #1
 80002d4:	ea4f 5244 	mov.w	r2, r4, lsl #21
 80002d8:	f512 0f80 	cmn.w	r2, #4194304	; 0x400000
 80002dc:	f080 809a 	bcs.w	8000414 <__adddf3+0x240>
 80002e0:	f1bc 4f00 	cmp.w	ip, #2147483648	; 0x80000000
 80002e4:	bf08      	it	eq
 80002e6:	ea5f 0c50 	movseq.w	ip, r0, lsr #1
 80002ea:	f150 0000 	adcs.w	r0, r0, #0
 80002ee:	eb41 5104 	adc.w	r1, r1, r4, lsl #20
 80002f2:	ea41 0105 	orr.w	r1, r1, r5
 80002f6:	bd30      	pop	{r4, r5, pc}
 80002f8:	ea5f 0c4c 	movs.w	ip, ip, lsl #1
 80002fc:	4140      	adcs	r0, r0
 80002fe:	eb41 0101 	adc.w	r1, r1, r1
 8000302:	3c01      	subs	r4, #1
 8000304:	bf28      	it	cs
 8000306:	f5b1 1f80 	cmpcs.w	r1, #1048576	; 0x100000
 800030a:	d2e9      	bcs.n	80002e0 <__adddf3+0x10c>
 800030c:	f091 0f00 	teq	r1, #0
 8000310:	bf04      	itt	eq
 8000312:	4601      	moveq	r1, r0
 8000314:	2000      	moveq	r0, #0
 8000316:	fab1 f381 	clz	r3, r1
 800031a:	bf08      	it	eq
 800031c:	3320      	addeq	r3, #32
 800031e:	f1a3 030b 	sub.w	r3, r3, #11
 8000322:	f1b3 0220 	subs.w	r2, r3, #32
 8000326:	da0c      	bge.n	8000342 <__adddf3+0x16e>
 8000328:	320c      	adds	r2, #12
 800032a:	dd08      	ble.n	800033e <__adddf3+0x16a>
 800032c:	f102 0c14 	add.w	ip, r2, #20
 8000330:	f1c2 020c 	rsb	r2, r2, #12
 8000334:	fa01 f00c 	lsl.w	r0, r1, ip
 8000338:	fa21 f102 	lsr.w	r1, r1, r2
 800033c:	e00c      	b.n	8000358 <__adddf3+0x184>
 800033e:	f102 0214 	add.w	r2, r2, #20
 8000342:	bfd8      	it	le
 8000344:	f1c2 0c20 	rsble	ip, r2, #32
 8000348:	fa01 f102 	lsl.w	r1, r1, r2
 800034c:	fa20 fc0c 	lsr.w	ip, r0, ip
 8000350:	bfdc      	itt	le
 8000352:	ea41 010c 	orrle.w	r1, r1, ip
 8000356:	4090      	lslle	r0, r2
 8000358:	1ae4      	subs	r4, r4, r3
 800035a:	bfa2      	ittt	ge
 800035c:	eb01 5104 	addge.w	r1, r1, r4, lsl #20
 8000360:	4329      	orrge	r1, r5
 8000362:	bd30      	popge	{r4, r5, pc}
 8000364:	ea6f 0404 	mvn.w	r4, r4
 8000368:	3c1f      	subs	r4, #31
 800036a:	da1c      	bge.n	80003a6 <__adddf3+0x1d2>
 800036c:	340c      	adds	r4, #12
 800036e:	dc0e      	bgt.n	800038e <__adddf3+0x1ba>
 8000370:	f104 0414 	add.w	r4, r4, #20
 8000374:	f1c4 0220 	rsb	r2, r4, #32
 8000378:	fa20 f004 	lsr.w	r0, r0, r4
 800037c:	fa01 f302 	lsl.w	r3, r1, r2
 8000380:	ea40 0003 	orr.w	r0, r0, r3
 8000384:	fa21 f304 	lsr.w	r3, r1, r4
 8000388:	ea45 0103 	orr.w	r1, r5, r3
 800038c:	bd30      	pop	{r4, r5, pc}
 800038e:	f1c4 040c 	rsb	r4, r4, #12
 8000392:	f1c4 0220 	rsb	r2, r4, #32
 8000396:	fa20 f002 	lsr.w	r0, r0, r2
 800039a:	fa01 f304 	lsl.w	r3, r1, r4
 800039e:	ea40 0003 	orr.w	r0, r0, r3
 80003a2:	4629      	mov	r1, r5
 80003a4:	bd30      	pop	{r4, r5, pc}
 80003a6:	fa21 f004 	lsr.w	r0, r1, r4
 80003aa:	4629      	mov	r1, r5
 80003ac:	bd30      	pop	{r4, r5, pc}
 80003ae:	f094 0f00 	teq	r4, #0
 80003b2:	f483 1380 	eor.w	r3, r3, #1048576	; 0x100000
 80003b6:	bf06      	itte	eq
 80003b8:	f481 1180 	eoreq.w	r1, r1, #1048576	; 0x100000
 80003bc:	3401      	addeq	r4, #1
 80003be:	3d01      	subne	r5, #1
 80003c0:	e74e      	b.n	8000260 <__adddf3+0x8c>
 80003c2:	ea7f 5c64 	mvns.w	ip, r4, asr #21
 80003c6:	bf18      	it	ne
 80003c8:	ea7f 5c65 	mvnsne.w	ip, r5, asr #21
 80003cc:	d029      	beq.n	8000422 <__adddf3+0x24e>
 80003ce:	ea94 0f05 	teq	r4, r5
 80003d2:	bf08      	it	eq
 80003d4:	ea90 0f02 	teqeq	r0, r2
 80003d8:	d005      	beq.n	80003e6 <__adddf3+0x212>
 80003da:	ea54 0c00 	orrs.w	ip, r4, r0
 80003de:	bf04      	itt	eq
 80003e0:	4619      	moveq	r1, r3
 80003e2:	4610      	moveq	r0, r2
 80003e4:	bd30      	pop	{r4, r5, pc}
 80003e6:	ea91 0f03 	teq	r1, r3
 80003ea:	bf1e      	ittt	ne
 80003ec:	2100      	movne	r1, #0
 80003ee:	2000      	movne	r0, #0
 80003f0:	bd30      	popne	{r4, r5, pc}
 80003f2:	ea5f 5c54 	movs.w	ip, r4, lsr #21
 80003f6:	d105      	bne.n	8000404 <__adddf3+0x230>
 80003f8:	0040      	lsls	r0, r0, #1
 80003fa:	4149      	adcs	r1, r1
 80003fc:	bf28      	it	cs
 80003fe:	f041 4100 	orrcs.w	r1, r1, #2147483648	; 0x80000000
 8000402:	bd30      	pop	{r4, r5, pc}
 8000404:	f514 0480 	adds.w	r4, r4, #4194304	; 0x400000
 8000408:	bf3c      	itt	cc
 800040a:	f501 1180 	addcc.w	r1, r1, #1048576	; 0x100000
 800040e:	bd30      	popcc	{r4, r5, pc}
 8000410:	f001 4500 	and.w	r5, r1, #2147483648	; 0x80000000
 8000414:	f045 41fe 	orr.w	r1, r5, #2130706432	; 0x7f000000
 8000418:	f441 0170 	orr.w	r1, r1, #15728640	; 0xf00000
 800041c:	f04f 0000 	mov.w	r0, #0
 8000420:	bd30      	pop	{r4, r5, pc}
 8000422:	ea7f 5c64 	mvns.w	ip, r4, asr #21
 8000426:	bf1a      	itte	ne
 8000428:	4619      	movne	r1, r3
 800042a:	4610      	movne	r0, r2
 800042c:	ea7f 5c65 	mvnseq.w	ip, r5, asr #21
 8000430:	bf1c      	itt	ne
 8000432:	460b      	movne	r3, r1
 8000434:	4602      	movne	r2, r0
 8000436:	ea50 3401 	orrs.w	r4, r0, r1, lsl #12
 800043a:	bf06      	itte	eq
 800043c:	ea52 3503 	orrseq.w	r5, r2, r3, lsl #12
 8000440:	ea91 0f03 	teqeq	r1, r3
 8000444:	f441 2100 	orrne.w	r1, r1, #524288	; 0x80000
 8000448:	bd30      	pop	{r4, r5, pc}
 800044a:	bf00      	nop

0800044c <__aeabi_ui2d>:
 800044c:	f090 0f00 	teq	r0, #0
 8000450:	bf04      	itt	eq
 8000452:	2100      	moveq	r1, #0
 8000454:	4770      	bxeq	lr
 8000456:	b530      	push	{r4, r5, lr}
 8000458:	f44f 6480 	mov.w	r4, #1024	; 0x400
 800045c:	f104 0432 	add.w	r4, r4, #50	; 0x32
 8000460:	f04f 0500 	mov.w	r5, #0
 8000464:	f04f 0100 	mov.w	r1, #0
 8000468:	e750      	b.n	800030c <__adddf3+0x138>
 800046a:	bf00      	nop

0800046c <__aeabi_i2d>:
 800046c:	f090 0f00 	teq	r0, #0
 8000470:	bf04      	itt	eq
 8000472:	2100      	moveq	r1, #0
 8000474:	4770      	bxeq	lr
 8000476:	b530      	push	{r4, r5, lr}
 8000478:	f44f 6480 	mov.w	r4, #1024	; 0x400
 800047c:	f104 0432 	add.w	r4, r4, #50	; 0x32
 8000480:	f010 4500 	ands.w	r5, r0, #2147483648	; 0x80000000
 8000484:	bf48      	it	mi
 8000486:	4240      	negmi	r0, r0
 8000488:	f04f 0100 	mov.w	r1, #0
 800048c:	e73e      	b.n	800030c <__adddf3+0x138>
 800048e:	bf00      	nop

08000490 <__aeabi_f2d>:
 8000490:	0042      	lsls	r2, r0, #1
 8000492:	ea4f 01e2 	mov.w	r1, r2, asr #3
 8000496:	ea4f 0131 	mov.w	r1, r1, rrx
 800049a:	ea4f 7002 	mov.w	r0, r2, lsl #28
 800049e:	bf1f      	itttt	ne
 80004a0:	f012 437f 	andsne.w	r3, r2, #4278190080	; 0xff000000
 80004a4:	f093 4f7f 	teqne	r3, #4278190080	; 0xff000000
 80004a8:	f081 5160 	eorne.w	r1, r1, #939524096	; 0x38000000
 80004ac:	4770      	bxne	lr
 80004ae:	f032 427f 	bics.w	r2, r2, #4278190080	; 0xff000000
 80004b2:	bf08      	it	eq
 80004b4:	4770      	bxeq	lr
 80004b6:	f093 4f7f 	teq	r3, #4278190080	; 0xff000000
 80004ba:	bf04      	itt	eq
 80004bc:	f441 2100 	orreq.w	r1, r1, #524288	; 0x80000
 80004c0:	4770      	bxeq	lr
 80004c2:	b530      	push	{r4, r5, lr}
 80004c4:	f44f 7460 	mov.w	r4, #896	; 0x380
 80004c8:	f001 4500 	and.w	r5, r1, #2147483648	; 0x80000000
 80004cc:	f021 4100 	bic.w	r1, r1, #2147483648	; 0x80000000
 80004d0:	e71c      	b.n	800030c <__adddf3+0x138>
 80004d2:	bf00      	nop

080004d4 <__aeabi_ul2d>:
 80004d4:	ea50 0201 	orrs.w	r2, r0, r1
 80004d8:	bf08      	it	eq
 80004da:	4770      	bxeq	lr
 80004dc:	b530      	push	{r4, r5, lr}
 80004de:	f04f 0500 	mov.w	r5, #0
 80004e2:	e00a      	b.n	80004fa <__aeabi_l2d+0x16>

080004e4 <__aeabi_l2d>:
 80004e4:	ea50 0201 	orrs.w	r2, r0, r1
 80004e8:	bf08      	it	eq
 80004ea:	4770      	bxeq	lr
 80004ec:	b530      	push	{r4, r5, lr}
 80004ee:	f011 4500 	ands.w	r5, r1, #2147483648	; 0x80000000
 80004f2:	d502      	bpl.n	80004fa <__aeabi_l2d+0x16>
 80004f4:	4240      	negs	r0, r0
 80004f6:	eb61 0141 	sbc.w	r1, r1, r1, lsl #1
 80004fa:	f44f 6480 	mov.w	r4, #1024	; 0x400
 80004fe:	f104 0432 	add.w	r4, r4, #50	; 0x32
 8000502:	ea5f 5c91 	movs.w	ip, r1, lsr #22
 8000506:	f43f aed8 	beq.w	80002ba <__adddf3+0xe6>
 800050a:	f04f 0203 	mov.w	r2, #3
 800050e:	ea5f 0cdc 	movs.w	ip, ip, lsr #3
 8000512:	bf18      	it	ne
 8000514:	3203      	addne	r2, #3
 8000516:	ea5f 0cdc 	movs.w	ip, ip, lsr #3
 800051a:	bf18      	it	ne
 800051c:	3203      	addne	r2, #3
 800051e:	eb02 02dc 	add.w	r2, r2, ip, lsr #3
 8000522:	f1c2 0320 	rsb	r3, r2, #32
 8000526:	fa00 fc03 	lsl.w	ip, r0, r3
 800052a:	fa20 f002 	lsr.w	r0, r0, r2
 800052e:	fa01 fe03 	lsl.w	lr, r1, r3
 8000532:	ea40 000e 	orr.w	r0, r0, lr
 8000536:	fa21 f102 	lsr.w	r1, r1, r2
 800053a:	4414      	add	r4, r2
 800053c:	e6bd      	b.n	80002ba <__adddf3+0xe6>
 800053e:	bf00      	nop

08000540 <__aeabi_dmul>:
 8000540:	b570      	push	{r4, r5, r6, lr}
 8000542:	f04f 0cff 	mov.w	ip, #255	; 0xff
 8000546:	f44c 6ce0 	orr.w	ip, ip, #1792	; 0x700
 800054a:	ea1c 5411 	ands.w	r4, ip, r1, lsr #20
 800054e:	bf1d      	ittte	ne
 8000550:	ea1c 5513 	andsne.w	r5, ip, r3, lsr #20
 8000554:	ea94 0f0c 	teqne	r4, ip
 8000558:	ea95 0f0c 	teqne	r5, ip
 800055c:	f000 f8de 	bleq	800071c <__aeabi_dmul+0x1dc>
 8000560:	442c      	add	r4, r5
 8000562:	ea81 0603 	eor.w	r6, r1, r3
 8000566:	ea21 514c 	bic.w	r1, r1, ip, lsl #21
 800056a:	ea23 534c 	bic.w	r3, r3, ip, lsl #21
 800056e:	ea50 3501 	orrs.w	r5, r0, r1, lsl #12
 8000572:	bf18      	it	ne
 8000574:	ea52 3503 	orrsne.w	r5, r2, r3, lsl #12
 8000578:	f441 1180 	orr.w	r1, r1, #1048576	; 0x100000
 800057c:	f443 1380 	orr.w	r3, r3, #1048576	; 0x100000
 8000580:	d038      	beq.n	80005f4 <__aeabi_dmul+0xb4>
 8000582:	fba0 ce02 	umull	ip, lr, r0, r2
 8000586:	f04f 0500 	mov.w	r5, #0
 800058a:	fbe1 e502 	umlal	lr, r5, r1, r2
 800058e:	f006 4200 	and.w	r2, r6, #2147483648	; 0x80000000
 8000592:	fbe0 e503 	umlal	lr, r5, r0, r3
 8000596:	f04f 0600 	mov.w	r6, #0
 800059a:	fbe1 5603 	umlal	r5, r6, r1, r3
 800059e:	f09c 0f00 	teq	ip, #0
 80005a2:	bf18      	it	ne
 80005a4:	f04e 0e01 	orrne.w	lr, lr, #1
 80005a8:	f1a4 04ff 	sub.w	r4, r4, #255	; 0xff
 80005ac:	f5b6 7f00 	cmp.w	r6, #512	; 0x200
 80005b0:	f564 7440 	sbc.w	r4, r4, #768	; 0x300
 80005b4:	d204      	bcs.n	80005c0 <__aeabi_dmul+0x80>
 80005b6:	ea5f 0e4e 	movs.w	lr, lr, lsl #1
 80005ba:	416d      	adcs	r5, r5
 80005bc:	eb46 0606 	adc.w	r6, r6, r6
 80005c0:	ea42 21c6 	orr.w	r1, r2, r6, lsl #11
 80005c4:	ea41 5155 	orr.w	r1, r1, r5, lsr #21
 80005c8:	ea4f 20c5 	mov.w	r0, r5, lsl #11
 80005cc:	ea40 505e 	orr.w	r0, r0, lr, lsr #21
 80005d0:	ea4f 2ece 	mov.w	lr, lr, lsl #11
 80005d4:	f1b4 0cfd 	subs.w	ip, r4, #253	; 0xfd
 80005d8:	bf88      	it	hi
 80005da:	f5bc 6fe0 	cmphi.w	ip, #1792	; 0x700
 80005de:	d81e      	bhi.n	800061e <__aeabi_dmul+0xde>
 80005e0:	f1be 4f00 	cmp.w	lr, #2147483648	; 0x80000000
 80005e4:	bf08      	it	eq
 80005e6:	ea5f 0e50 	movseq.w	lr, r0, lsr #1
 80005ea:	f150 0000 	adcs.w	r0, r0, #0
 80005ee:	eb41 5104 	adc.w	r1, r1, r4, lsl #20
 80005f2:	bd70      	pop	{r4, r5, r6, pc}
 80005f4:	f006 4600 	and.w	r6, r6, #2147483648	; 0x80000000
 80005f8:	ea46 0101 	orr.w	r1, r6, r1
 80005fc:	ea40 0002 	orr.w	r0, r0, r2
 8000600:	ea81 0103 	eor.w	r1, r1, r3
 8000604:	ebb4 045c 	subs.w	r4, r4, ip, lsr #1
 8000608:	bfc2      	ittt	gt
 800060a:	ebd4 050c 	rsbsgt	r5, r4, ip
 800060e:	ea41 5104 	orrgt.w	r1, r1, r4, lsl #20
 8000612:	bd70      	popgt	{r4, r5, r6, pc}
 8000614:	f441 1180 	orr.w	r1, r1, #1048576	; 0x100000
 8000618:	f04f 0e00 	mov.w	lr, #0
 800061c:	3c01      	subs	r4, #1
 800061e:	f300 80ab 	bgt.w	8000778 <__aeabi_dmul+0x238>
 8000622:	f114 0f36 	cmn.w	r4, #54	; 0x36
 8000626:	bfde      	ittt	le
 8000628:	2000      	movle	r0, #0
 800062a:	f001 4100 	andle.w	r1, r1, #2147483648	; 0x80000000
 800062e:	bd70      	pople	{r4, r5, r6, pc}
 8000630:	f1c4 0400 	rsb	r4, r4, #0
 8000634:	3c20      	subs	r4, #32
 8000636:	da35      	bge.n	80006a4 <__aeabi_dmul+0x164>
 8000638:	340c      	adds	r4, #12
 800063a:	dc1b      	bgt.n	8000674 <__aeabi_dmul+0x134>
 800063c:	f104 0414 	add.w	r4, r4, #20
 8000640:	f1c4 0520 	rsb	r5, r4, #32
 8000644:	fa00 f305 	lsl.w	r3, r0, r5
 8000648:	fa20 f004 	lsr.w	r0, r0, r4
 800064c:	fa01 f205 	lsl.w	r2, r1, r5
 8000650:	ea40 0002 	orr.w	r0, r0, r2
 8000654:	f001 4200 	and.w	r2, r1, #2147483648	; 0x80000000
 8000658:	f021 4100 	bic.w	r1, r1, #2147483648	; 0x80000000
 800065c:	eb10 70d3 	adds.w	r0, r0, r3, lsr #31
 8000660:	fa21 f604 	lsr.w	r6, r1, r4
 8000664:	eb42 0106 	adc.w	r1, r2, r6
 8000668:	ea5e 0e43 	orrs.w	lr, lr, r3, lsl #1
 800066c:	bf08      	it	eq
 800066e:	ea20 70d3 	biceq.w	r0, r0, r3, lsr #31
 8000672:	bd70      	pop	{r4, r5, r6, pc}
 8000674:	f1c4 040c 	rsb	r4, r4, #12
 8000678:	f1c4 0520 	rsb	r5, r4, #32
 800067c:	fa00 f304 	lsl.w	r3, r0, r4
 8000680:	fa20 f005 	lsr.w	r0, r0, r5
 8000684:	fa01 f204 	lsl.w	r2, r1, r4
 8000688:	ea40 0002 	orr.w	r0, r0, r2
 800068c:	f001 4100 	and.w	r1, r1, #2147483648	; 0x80000000
 8000690:	eb10 70d3 	adds.w	r0, r0, r3, lsr #31
 8000694:	f141 0100 	adc.w	r1, r1, #0
 8000698:	ea5e 0e43 	orrs.w	lr, lr, r3, lsl #1
 800069c:	bf08      	it	eq
 800069e:	ea20 70d3 	biceq.w	r0, r0, r3, lsr #31
 80006a2:	bd70      	pop	{r4, r5, r6, pc}
 80006a4:	f1c4 0520 	rsb	r5, r4, #32
 80006a8:	fa00 f205 	lsl.w	r2, r0, r5
 80006ac:	ea4e 0e02 	orr.w	lr, lr, r2
 80006b0:	fa20 f304 	lsr.w	r3, r0, r4
 80006b4:	fa01 f205 	lsl.w	r2, r1, r5
 80006b8:	ea43 0302 	orr.w	r3, r3, r2
 80006bc:	fa21 f004 	lsr.w	r0, r1, r4
 80006c0:	f001 4100 	and.w	r1, r1, #2147483648	; 0x80000000
 80006c4:	fa21 f204 	lsr.w	r2, r1, r4
 80006c8:	ea20 0002 	bic.w	r0, r0, r2
 80006cc:	eb00 70d3 	add.w	r0, r0, r3, lsr #31
 80006d0:	ea5e 0e43 	orrs.w	lr, lr, r3, lsl #1
 80006d4:	bf08      	it	eq
 80006d6:	ea20 70d3 	biceq.w	r0, r0, r3, lsr #31
 80006da:	bd70      	pop	{r4, r5, r6, pc}
 80006dc:	f094 0f00 	teq	r4, #0
 80006e0:	d10f      	bne.n	8000702 <__aeabi_dmul+0x1c2>
 80006e2:	f001 4600 	and.w	r6, r1, #2147483648	; 0x80000000
 80006e6:	0040      	lsls	r0, r0, #1
 80006e8:	eb41 0101 	adc.w	r1, r1, r1
 80006ec:	f411 1f80 	tst.w	r1, #1048576	; 0x100000
 80006f0:	bf08      	it	eq
 80006f2:	3c01      	subeq	r4, #1
 80006f4:	d0f7      	beq.n	80006e6 <__aeabi_dmul+0x1a6>
 80006f6:	ea41 0106 	orr.w	r1, r1, r6
 80006fa:	f095 0f00 	teq	r5, #0
 80006fe:	bf18      	it	ne
 8000700:	4770      	bxne	lr
 8000702:	f003 4600 	and.w	r6, r3, #2147483648	; 0x80000000
 8000706:	0052      	lsls	r2, r2, #1
 8000708:	eb43 0303 	adc.w	r3, r3, r3
 800070c:	f413 1f80 	tst.w	r3, #1048576	; 0x100000
 8000710:	bf08      	it	eq
 8000712:	3d01      	subeq	r5, #1
 8000714:	d0f7      	beq.n	8000706 <__aeabi_dmul+0x1c6>
 8000716:	ea43 0306 	orr.w	r3, r3, r6
 800071a:	4770      	bx	lr
 800071c:	ea94 0f0c 	teq	r4, ip
 8000720:	ea0c 5513 	and.w	r5, ip, r3, lsr #20
 8000724:	bf18      	it	ne
 8000726:	ea95 0f0c 	teqne	r5, ip
 800072a:	d00c      	beq.n	8000746 <__aeabi_dmul+0x206>
 800072c:	ea50 0641 	orrs.w	r6, r0, r1, lsl #1
 8000730:	bf18      	it	ne
 8000732:	ea52 0643 	orrsne.w	r6, r2, r3, lsl #1
 8000736:	d1d1      	bne.n	80006dc <__aeabi_dmul+0x19c>
 8000738:	ea81 0103 	eor.w	r1, r1, r3
 800073c:	f001 4100 	and.w	r1, r1, #2147483648	; 0x80000000
 8000740:	f04f 0000 	mov.w	r0, #0
 8000744:	bd70      	pop	{r4, r5, r6, pc}
 8000746:	ea50 0641 	orrs.w	r6, r0, r1, lsl #1
 800074a:	bf06      	itte	eq
 800074c:	4610      	moveq	r0, r2
 800074e:	4619      	moveq	r1, r3
 8000750:	ea52 0643 	orrsne.w	r6, r2, r3, lsl #1
 8000754:	d019      	beq.n	800078a <__aeabi_dmul+0x24a>
 8000756:	ea94 0f0c 	teq	r4, ip
 800075a:	d102      	bne.n	8000762 <__aeabi_dmul+0x222>
 800075c:	ea50 3601 	orrs.w	r6, r0, r1, lsl #12
 8000760:	d113      	bne.n	800078a <__aeabi_dmul+0x24a>
 8000762:	ea95 0f0c 	teq	r5, ip
 8000766:	d105      	bne.n	8000774 <__aeabi_dmul+0x234>
 8000768:	ea52 3603 	orrs.w	r6, r2, r3, lsl #12
 800076c:	bf1c      	itt	ne
 800076e:	4610      	movne	r0, r2
 8000770:	4619      	movne	r1, r3
 8000772:	d10a      	bne.n	800078a <__aeabi_dmul+0x24a>
 8000774:	ea81 0103 	eor.w	r1, r1, r3
 8000778:	f001 4100 	and.w	r1, r1, #2147483648	; 0x80000000
 800077c:	f041 41fe 	orr.w	r1, r1, #2130706432	; 0x7f000000
 8000780:	f441 0170 	orr.w	r1, r1, #15728640	; 0xf00000
 8000784:	f04f 0000 	mov.w	r0, #0
 8000788:	bd70      	pop	{r4, r5, r6, pc}
 800078a:	f041 41fe 	orr.w	r1, r1, #2130706432	; 0x7f000000
 800078e:	f441 0178 	orr.w	r1, r1, #16252928	; 0xf80000
 8000792:	bd70      	pop	{r4, r5, r6, pc}

08000794 <__aeabi_ddiv>:
 8000794:	b570      	push	{r4, r5, r6, lr}
 8000796:	f04f 0cff 	mov.w	ip, #255	; 0xff
 800079a:	f44c 6ce0 	orr.w	ip, ip, #1792	; 0x700
 800079e:	ea1c 5411 	ands.w	r4, ip, r1, lsr #20
 80007a2:	bf1d      	ittte	ne
 80007a4:	ea1c 5513 	andsne.w	r5, ip, r3, lsr #20
 80007a8:	ea94 0f0c 	teqne	r4, ip
 80007ac:	ea95 0f0c 	teqne	r5, ip
 80007b0:	f000 f8a7 	bleq	8000902 <__aeabi_ddiv+0x16e>
 80007b4:	eba4 0405 	sub.w	r4, r4, r5
 80007b8:	ea81 0e03 	eor.w	lr, r1, r3
 80007bc:	ea52 3503 	orrs.w	r5, r2, r3, lsl #12
 80007c0:	ea4f 3101 	mov.w	r1, r1, lsl #12
 80007c4:	f000 8088 	beq.w	80008d8 <__aeabi_ddiv+0x144>
 80007c8:	ea4f 3303 	mov.w	r3, r3, lsl #12
 80007cc:	f04f 5580 	mov.w	r5, #268435456	; 0x10000000
 80007d0:	ea45 1313 	orr.w	r3, r5, r3, lsr #4
 80007d4:	ea43 6312 	orr.w	r3, r3, r2, lsr #24
 80007d8:	ea4f 2202 	mov.w	r2, r2, lsl #8
 80007dc:	ea45 1511 	orr.w	r5, r5, r1, lsr #4
 80007e0:	ea45 6510 	orr.w	r5, r5, r0, lsr #24
 80007e4:	ea4f 2600 	mov.w	r6, r0, lsl #8
 80007e8:	f00e 4100 	and.w	r1, lr, #2147483648	; 0x80000000
 80007ec:	429d      	cmp	r5, r3
 80007ee:	bf08      	it	eq
 80007f0:	4296      	cmpeq	r6, r2
 80007f2:	f144 04fd 	adc.w	r4, r4, #253	; 0xfd
 80007f6:	f504 7440 	add.w	r4, r4, #768	; 0x300
 80007fa:	d202      	bcs.n	8000802 <__aeabi_ddiv+0x6e>
 80007fc:	085b      	lsrs	r3, r3, #1
 80007fe:	ea4f 0232 	mov.w	r2, r2, rrx
 8000802:	1ab6      	subs	r6, r6, r2
 8000804:	eb65 0503 	sbc.w	r5, r5, r3
 8000808:	085b      	lsrs	r3, r3, #1
 800080a:	ea4f 0232 	mov.w	r2, r2, rrx
 800080e:	f44f 1080 	mov.w	r0, #1048576	; 0x100000
 8000812:	f44f 2c00 	mov.w	ip, #524288	; 0x80000
 8000816:	ebb6 0e02 	subs.w	lr, r6, r2
 800081a:	eb75 0e03 	sbcs.w	lr, r5, r3
 800081e:	bf22      	ittt	cs
 8000820:	1ab6      	subcs	r6, r6, r2
 8000822:	4675      	movcs	r5, lr
 8000824:	ea40 000c 	orrcs.w	r0, r0, ip
 8000828:	085b      	lsrs	r3, r3, #1
 800082a:	ea4f 0232 	mov.w	r2, r2, rrx
 800082e:	ebb6 0e02 	subs.w	lr, r6, r2
 8000832:	eb75 0e03 	sbcs.w	lr, r5, r3
 8000836:	bf22      	ittt	cs
 8000838:	1ab6      	subcs	r6, r6, r2
 800083a:	4675      	movcs	r5, lr
 800083c:	ea40 005c 	orrcs.w	r0, r0, ip, lsr #1
 8000840:	085b      	lsrs	r3, r3, #1
 8000842:	ea4f 0232 	mov.w	r2, r2, rrx
 8000846:	ebb6 0e02 	subs.w	lr, r6, r2
 800084a:	eb75 0e03 	sbcs.w	lr, r5, r3
 800084e:	bf22      	ittt	cs
 8000850:	1ab6      	subcs	r6, r6, r2
 8000852:	4675      	movcs	r5, lr
 8000854:	ea40 009c 	orrcs.w	r0, r0, ip, lsr #2
 8000858:	085b      	lsrs	r3, r3, #1
 800085a:	ea4f 0232 	mov.w	r2, r2, rrx
 800085e:	ebb6 0e02 	subs.w	lr, r6, r2
 8000862:	eb75 0e03 	sbcs.w	lr, r5, r3
 8000866:	bf22      	ittt	cs
 8000868:	1ab6      	subcs	r6, r6, r2
 800086a:	4675      	movcs	r5, lr
 800086c:	ea40 00dc 	orrcs.w	r0, r0, ip, lsr #3
 8000870:	ea55 0e06 	orrs.w	lr, r5, r6
 8000874:	d018      	beq.n	80008a8 <__aeabi_ddiv+0x114>
 8000876:	ea4f 1505 	mov.w	r5, r5, lsl #4
 800087a:	ea45 7516 	orr.w	r5, r5, r6, lsr #28
 800087e:	ea4f 1606 	mov.w	r6, r6, lsl #4
 8000882:	ea4f 03c3 	mov.w	r3, r3, lsl #3
 8000886:	ea43 7352 	orr.w	r3, r3, r2, lsr #29
 800088a:	ea4f 02c2 	mov.w	r2, r2, lsl #3
 800088e:	ea5f 1c1c 	movs.w	ip, ip, lsr #4
 8000892:	d1c0      	bne.n	8000816 <__aeabi_ddiv+0x82>
 8000894:	f411 1f80 	tst.w	r1, #1048576	; 0x100000
 8000898:	d10b      	bne.n	80008b2 <__aeabi_ddiv+0x11e>
 800089a:	ea41 0100 	orr.w	r1, r1, r0
 800089e:	f04f 0000 	mov.w	r0, #0
 80008a2:	f04f 4c00 	mov.w	ip, #2147483648	; 0x80000000
 80008a6:	e7b6      	b.n	8000816 <__aeabi_ddiv+0x82>
 80008a8:	f411 1f80 	tst.w	r1, #1048576	; 0x100000
 80008ac:	bf04      	itt	eq
 80008ae:	4301      	orreq	r1, r0
 80008b0:	2000      	moveq	r0, #0
 80008b2:	f1b4 0cfd 	subs.w	ip, r4, #253	; 0xfd
 80008b6:	bf88      	it	hi
 80008b8:	f5bc 6fe0 	cmphi.w	ip, #1792	; 0x700
 80008bc:	f63f aeaf 	bhi.w	800061e <__aeabi_dmul+0xde>
 80008c0:	ebb5 0c03 	subs.w	ip, r5, r3
 80008c4:	bf04      	itt	eq
 80008c6:	ebb6 0c02 	subseq.w	ip, r6, r2
 80008ca:	ea5f 0c50 	movseq.w	ip, r0, lsr #1
 80008ce:	f150 0000 	adcs.w	r0, r0, #0
 80008d2:	eb41 5104 	adc.w	r1, r1, r4, lsl #20
 80008d6:	bd70      	pop	{r4, r5, r6, pc}
 80008d8:	f00e 4e00 	and.w	lr, lr, #2147483648	; 0x80000000
 80008dc:	ea4e 3111 	orr.w	r1, lr, r1, lsr #12
 80008e0:	eb14 045c 	adds.w	r4, r4, ip, lsr #1
 80008e4:	bfc2      	ittt	gt
 80008e6:	ebd4 050c 	rsbsgt	r5, r4, ip
 80008ea:	ea41 5104 	orrgt.w	r1, r1, r4, lsl #20
 80008ee:	bd70      	popgt	{r4, r5, r6, pc}
 80008f0:	f441 1180 	orr.w	r1, r1, #1048576	; 0x100000
 80008f4:	f04f 0e00 	mov.w	lr, #0
 80008f8:	3c01      	subs	r4, #1
 80008fa:	e690      	b.n	800061e <__aeabi_dmul+0xde>
 80008fc:	ea45 0e06 	orr.w	lr, r5, r6
 8000900:	e68d      	b.n	800061e <__aeabi_dmul+0xde>
 8000902:	ea0c 5513 	and.w	r5, ip, r3, lsr #20
 8000906:	ea94 0f0c 	teq	r4, ip
 800090a:	bf08      	it	eq
 800090c:	ea95 0f0c 	teqeq	r5, ip
 8000910:	f43f af3b 	beq.w	800078a <__aeabi_dmul+0x24a>
 8000914:	ea94 0f0c 	teq	r4, ip
 8000918:	d10a      	bne.n	8000930 <__aeabi_ddiv+0x19c>
 800091a:	ea50 3401 	orrs.w	r4, r0, r1, lsl #12
 800091e:	f47f af34 	bne.w	800078a <__aeabi_dmul+0x24a>
 8000922:	ea95 0f0c 	teq	r5, ip
 8000926:	f47f af25 	bne.w	8000774 <__aeabi_dmul+0x234>
 800092a:	4610      	mov	r0, r2
 800092c:	4619      	mov	r1, r3
 800092e:	e72c      	b.n	800078a <__aeabi_dmul+0x24a>
 8000930:	ea95 0f0c 	teq	r5, ip
 8000934:	d106      	bne.n	8000944 <__aeabi_ddiv+0x1b0>
 8000936:	ea52 3503 	orrs.w	r5, r2, r3, lsl #12
 800093a:	f43f aefd 	beq.w	8000738 <__aeabi_dmul+0x1f8>
 800093e:	4610      	mov	r0, r2
 8000940:	4619      	mov	r1, r3
 8000942:	e722      	b.n	800078a <__aeabi_dmul+0x24a>
 8000944:	ea50 0641 	orrs.w	r6, r0, r1, lsl #1
 8000948:	bf18      	it	ne
 800094a:	ea52 0643 	orrsne.w	r6, r2, r3, lsl #1
 800094e:	f47f aec5 	bne.w	80006dc <__aeabi_dmul+0x19c>
 8000952:	ea50 0441 	orrs.w	r4, r0, r1, lsl #1
 8000956:	f47f af0d 	bne.w	8000774 <__aeabi_dmul+0x234>
 800095a:	ea52 0543 	orrs.w	r5, r2, r3, lsl #1
 800095e:	f47f aeeb 	bne.w	8000738 <__aeabi_dmul+0x1f8>
 8000962:	e712      	b.n	800078a <__aeabi_dmul+0x24a>

08000964 <__gedf2>:
 8000964:	f04f 3cff 	mov.w	ip, #4294967295
 8000968:	e006      	b.n	8000978 <__cmpdf2+0x4>
 800096a:	bf00      	nop

0800096c <__ledf2>:
 800096c:	f04f 0c01 	mov.w	ip, #1
 8000970:	e002      	b.n	8000978 <__cmpdf2+0x4>
 8000972:	bf00      	nop

08000974 <__cmpdf2>:
 8000974:	f04f 0c01 	mov.w	ip, #1
 8000978:	f84d cd04 	str.w	ip, [sp, #-4]!
 800097c:	ea4f 0c41 	mov.w	ip, r1, lsl #1
 8000980:	ea7f 5c6c 	mvns.w	ip, ip, asr #21
 8000984:	ea4f 0c43 	mov.w	ip, r3, lsl #1
 8000988:	bf18      	it	ne
 800098a:	ea7f 5c6c 	mvnsne.w	ip, ip, asr #21
 800098e:	d01b      	beq.n	80009c8 <__cmpdf2+0x54>
 8000990:	b001      	add	sp, #4
 8000992:	ea50 0c41 	orrs.w	ip, r0, r1, lsl #1
 8000996:	bf0c      	ite	eq
 8000998:	ea52 0c43 	orrseq.w	ip, r2, r3, lsl #1
 800099c:	ea91 0f03 	teqne	r1, r3
 80009a0:	bf02      	ittt	eq
 80009a2:	ea90 0f02 	teqeq	r0, r2
 80009a6:	2000      	moveq	r0, #0
 80009a8:	4770      	bxeq	lr
 80009aa:	f110 0f00 	cmn.w	r0, #0
 80009ae:	ea91 0f03 	teq	r1, r3
 80009b2:	bf58      	it	pl
 80009b4:	4299      	cmppl	r1, r3
 80009b6:	bf08      	it	eq
 80009b8:	4290      	cmpeq	r0, r2
 80009ba:	bf2c      	ite	cs
 80009bc:	17d8      	asrcs	r0, r3, #31
 80009be:	ea6f 70e3 	mvncc.w	r0, r3, asr #31
 80009c2:	f040 0001 	orr.w	r0, r0, #1
 80009c6:	4770      	bx	lr
 80009c8:	ea4f 0c41 	mov.w	ip, r1, lsl #1
 80009cc:	ea7f 5c6c 	mvns.w	ip, ip, asr #21
 80009d0:	d102      	bne.n	80009d8 <__cmpdf2+0x64>
 80009d2:	ea50 3c01 	orrs.w	ip, r0, r1, lsl #12
 80009d6:	d107      	bne.n	80009e8 <__cmpdf2+0x74>
 80009d8:	ea4f 0c43 	mov.w	ip, r3, lsl #1
 80009dc:	ea7f 5c6c 	mvns.w	ip, ip, asr #21
 80009e0:	d1d6      	bne.n	8000990 <__cmpdf2+0x1c>
 80009e2:	ea52 3c03 	orrs.w	ip, r2, r3, lsl #12
 80009e6:	d0d3      	beq.n	8000990 <__cmpdf2+0x1c>
 80009e8:	f85d 0b04 	ldr.w	r0, [sp], #4
 80009ec:	4770      	bx	lr
 80009ee:	bf00      	nop

080009f0 <__aeabi_cdrcmple>:
 80009f0:	4684      	mov	ip, r0
 80009f2:	4610      	mov	r0, r2
 80009f4:	4662      	mov	r2, ip
 80009f6:	468c      	mov	ip, r1
 80009f8:	4619      	mov	r1, r3
 80009fa:	4663      	mov	r3, ip
 80009fc:	e000      	b.n	8000a00 <__aeabi_cdcmpeq>
 80009fe:	bf00      	nop

08000a00 <__aeabi_cdcmpeq>:
 8000a00:	b501      	push	{r0, lr}
 8000a02:	f7ff ffb7 	bl	8000974 <__cmpdf2>
 8000a06:	2800      	cmp	r0, #0
 8000a08:	bf48      	it	mi
 8000a0a:	f110 0f00 	cmnmi.w	r0, #0
 8000a0e:	bd01      	pop	{r0, pc}

08000a10 <__aeabi_dcmpeq>:
 8000a10:	f84d ed08 	str.w	lr, [sp, #-8]!
 8000a14:	f7ff fff4 	bl	8000a00 <__aeabi_cdcmpeq>
 8000a18:	bf0c      	ite	eq
 8000a1a:	2001      	moveq	r0, #1
 8000a1c:	2000      	movne	r0, #0
 8000a1e:	f85d fb08 	ldr.w	pc, [sp], #8
 8000a22:	bf00      	nop

08000a24 <__aeabi_dcmplt>:
 8000a24:	f84d ed08 	str.w	lr, [sp, #-8]!
 8000a28:	f7ff ffea 	bl	8000a00 <__aeabi_cdcmpeq>
 8000a2c:	bf34      	ite	cc
 8000a2e:	2001      	movcc	r0, #1
 8000a30:	2000      	movcs	r0, #0
 8000a32:	f85d fb08 	ldr.w	pc, [sp], #8
 8000a36:	bf00      	nop

08000a38 <__aeabi_dcmple>:
 8000a38:	f84d ed08 	str.w	lr, [sp, #-8]!
 8000a3c:	f7ff ffe0 	bl	8000a00 <__aeabi_cdcmpeq>
 8000a40:	bf94      	ite	ls
 8000a42:	2001      	movls	r0, #1
 8000a44:	2000      	movhi	r0, #0
 8000a46:	f85d fb08 	ldr.w	pc, [sp], #8
 8000a4a:	bf00      	nop

08000a4c <__aeabi_dcmpge>:
 8000a4c:	f84d ed08 	str.w	lr, [sp, #-8]!
 8000a50:	f7ff ffce 	bl	80009f0 <__aeabi_cdrcmple>
 8000a54:	bf94      	ite	ls
 8000a56:	2001      	movls	r0, #1
 8000a58:	2000      	movhi	r0, #0
 8000a5a:	f85d fb08 	ldr.w	pc, [sp], #8
 8000a5e:	bf00      	nop

08000a60 <__aeabi_dcmpgt>:
 8000a60:	f84d ed08 	str.w	lr, [sp, #-8]!
 8000a64:	f7ff ffc4 	bl	80009f0 <__aeabi_cdrcmple>
 8000a68:	bf34      	ite	cc
 8000a6a:	2001      	movcc	r0, #1
 8000a6c:	2000      	movcs	r0, #0
 8000a6e:	f85d fb08 	ldr.w	pc, [sp], #8
 8000a72:	bf00      	nop

08000a74 <__aeabi_d2iz>:
 8000a74:	ea4f 0241 	mov.w	r2, r1, lsl #1
 8000a78:	f512 1200 	adds.w	r2, r2, #2097152	; 0x200000
 8000a7c:	d215      	bcs.n	8000aaa <__aeabi_d2iz+0x36>
 8000a7e:	d511      	bpl.n	8000aa4 <__aeabi_d2iz+0x30>
 8000a80:	f46f 7378 	mvn.w	r3, #992	; 0x3e0
 8000a84:	ebb3 5262 	subs.w	r2, r3, r2, asr #21
 8000a88:	d912      	bls.n	8000ab0 <__aeabi_d2iz+0x3c>
 8000a8a:	ea4f 23c1 	mov.w	r3, r1, lsl #11
 8000a8e:	f043 4300 	orr.w	r3, r3, #2147483648	; 0x80000000
 8000a92:	ea43 5350 	orr.w	r3, r3, r0, lsr #21
 8000a96:	f011 4f00 	tst.w	r1, #2147483648	; 0x80000000
 8000a9a:	fa23 f002 	lsr.w	r0, r3, r2
 8000a9e:	bf18      	it	ne
 8000aa0:	4240      	negne	r0, r0
 8000aa2:	4770      	bx	lr
 8000aa4:	f04f 0000 	mov.w	r0, #0
 8000aa8:	4770      	bx	lr
 8000aaa:	ea50 3001 	orrs.w	r0, r0, r1, lsl #12
 8000aae:	d105      	bne.n	8000abc <__aeabi_d2iz+0x48>
 8000ab0:	f011 4000 	ands.w	r0, r1, #2147483648	; 0x80000000
 8000ab4:	bf08      	it	eq
 8000ab6:	f06f 4000 	mvneq.w	r0, #2147483648	; 0x80000000
 8000aba:	4770      	bx	lr
 8000abc:	f04f 0000 	mov.w	r0, #0
 8000ac0:	4770      	bx	lr
 8000ac2:	bf00      	nop

08000ac4 <__aeabi_d2f>:
 8000ac4:	ea4f 0241 	mov.w	r2, r1, lsl #1
 8000ac8:	f1b2 43e0 	subs.w	r3, r2, #1879048192	; 0x70000000
 8000acc:	bf24      	itt	cs
 8000ace:	f5b3 1c00 	subscs.w	ip, r3, #2097152	; 0x200000
 8000ad2:	f1dc 5cfe 	rsbscs	ip, ip, #532676608	; 0x1fc00000
 8000ad6:	d90d      	bls.n	8000af4 <__aeabi_d2f+0x30>
 8000ad8:	f001 4c00 	and.w	ip, r1, #2147483648	; 0x80000000
 8000adc:	ea4f 02c0 	mov.w	r2, r0, lsl #3
 8000ae0:	ea4c 7050 	orr.w	r0, ip, r0, lsr #29
 8000ae4:	f1b2 4f00 	cmp.w	r2, #2147483648	; 0x80000000
 8000ae8:	eb40 0083 	adc.w	r0, r0, r3, lsl #2
 8000aec:	bf08      	it	eq
 8000aee:	f020 0001 	biceq.w	r0, r0, #1
 8000af2:	4770      	bx	lr
 8000af4:	f011 4f80 	tst.w	r1, #1073741824	; 0x40000000
 8000af8:	d121      	bne.n	8000b3e <__aeabi_d2f+0x7a>
 8000afa:	f113 7238 	adds.w	r2, r3, #48234496	; 0x2e00000
 8000afe:	bfbc      	itt	lt
 8000b00:	f001 4000 	andlt.w	r0, r1, #2147483648	; 0x80000000
 8000b04:	4770      	bxlt	lr
 8000b06:	f441 1180 	orr.w	r1, r1, #1048576	; 0x100000
 8000b0a:	ea4f 5252 	mov.w	r2, r2, lsr #21
 8000b0e:	f1c2 0218 	rsb	r2, r2, #24
 8000b12:	f1c2 0c20 	rsb	ip, r2, #32
 8000b16:	fa10 f30c 	lsls.w	r3, r0, ip
 8000b1a:	fa20 f002 	lsr.w	r0, r0, r2
 8000b1e:	bf18      	it	ne
 8000b20:	f040 0001 	orrne.w	r0, r0, #1
 8000b24:	ea4f 23c1 	mov.w	r3, r1, lsl #11
 8000b28:	ea4f 23d3 	mov.w	r3, r3, lsr #11
 8000b2c:	fa03 fc0c 	lsl.w	ip, r3, ip
 8000b30:	ea40 000c 	orr.w	r0, r0, ip
 8000b34:	fa23 f302 	lsr.w	r3, r3, r2
 8000b38:	ea4f 0343 	mov.w	r3, r3, lsl #1
 8000b3c:	e7cc      	b.n	8000ad8 <__aeabi_d2f+0x14>
 8000b3e:	ea7f 5362 	mvns.w	r3, r2, asr #21
 8000b42:	d107      	bne.n	8000b54 <__aeabi_d2f+0x90>
 8000b44:	ea50 3301 	orrs.w	r3, r0, r1, lsl #12
 8000b48:	bf1e      	ittt	ne
 8000b4a:	f04f 40fe 	movne.w	r0, #2130706432	; 0x7f000000
 8000b4e:	f440 0040 	orrne.w	r0, r0, #12582912	; 0xc00000
 8000b52:	4770      	bxne	lr
 8000b54:	f001 4000 	and.w	r0, r1, #2147483648	; 0x80000000
 8000b58:	f040 40fe 	orr.w	r0, r0, #2130706432	; 0x7f000000
 8000b5c:	f440 0000 	orr.w	r0, r0, #8388608	; 0x800000
 8000b60:	4770      	bx	lr
 8000b62:	bf00      	nop

08000b64 <__aeabi_uldivmod>:
 8000b64:	b953      	cbnz	r3, 8000b7c <__aeabi_uldivmod+0x18>
 8000b66:	b94a      	cbnz	r2, 8000b7c <__aeabi_uldivmod+0x18>
 8000b68:	2900      	cmp	r1, #0
 8000b6a:	bf08      	it	eq
 8000b6c:	2800      	cmpeq	r0, #0
 8000b6e:	bf1c      	itt	ne
 8000b70:	f04f 31ff 	movne.w	r1, #4294967295
 8000b74:	f04f 30ff 	movne.w	r0, #4294967295
 8000b78:	f000 b96e 	b.w	8000e58 <__aeabi_idiv0>
 8000b7c:	f1ad 0c08 	sub.w	ip, sp, #8
 8000b80:	e96d ce04 	strd	ip, lr, [sp, #-16]!
 8000b84:	f000 f806 	bl	8000b94 <__udivmoddi4>
 8000b88:	f8dd e004 	ldr.w	lr, [sp, #4]
 8000b8c:	e9dd 2302 	ldrd	r2, r3, [sp, #8]
 8000b90:	b004      	add	sp, #16
 8000b92:	4770      	bx	lr

08000b94 <__udivmoddi4>:
 8000b94:	e92d 47f0 	stmdb	sp!, {r4, r5, r6, r7, r8, r9, sl, lr}
 8000b98:	9d08      	ldr	r5, [sp, #32]
 8000b9a:	4604      	mov	r4, r0
 8000b9c:	468c      	mov	ip, r1
 8000b9e:	2b00      	cmp	r3, #0
 8000ba0:	f040 8083 	bne.w	8000caa <__udivmoddi4+0x116>
 8000ba4:	428a      	cmp	r2, r1
 8000ba6:	4617      	mov	r7, r2
 8000ba8:	d947      	bls.n	8000c3a <__udivmoddi4+0xa6>
 8000baa:	fab2 f282 	clz	r2, r2
 8000bae:	b142      	cbz	r2, 8000bc2 <__udivmoddi4+0x2e>
 8000bb0:	f1c2 0020 	rsb	r0, r2, #32
 8000bb4:	fa24 f000 	lsr.w	r0, r4, r0
 8000bb8:	4091      	lsls	r1, r2
 8000bba:	4097      	lsls	r7, r2
 8000bbc:	ea40 0c01 	orr.w	ip, r0, r1
 8000bc0:	4094      	lsls	r4, r2
 8000bc2:	ea4f 4817 	mov.w	r8, r7, lsr #16
 8000bc6:	0c23      	lsrs	r3, r4, #16
 8000bc8:	fbbc f6f8 	udiv	r6, ip, r8
 8000bcc:	fa1f fe87 	uxth.w	lr, r7
 8000bd0:	fb08 c116 	mls	r1, r8, r6, ip
 8000bd4:	ea43 4301 	orr.w	r3, r3, r1, lsl #16
 8000bd8:	fb06 f10e 	mul.w	r1, r6, lr
 8000bdc:	4299      	cmp	r1, r3
 8000bde:	d909      	bls.n	8000bf4 <__udivmoddi4+0x60>
 8000be0:	18fb      	adds	r3, r7, r3
 8000be2:	f106 30ff 	add.w	r0, r6, #4294967295
 8000be6:	f080 8119 	bcs.w	8000e1c <__udivmoddi4+0x288>
 8000bea:	4299      	cmp	r1, r3
 8000bec:	f240 8116 	bls.w	8000e1c <__udivmoddi4+0x288>
 8000bf0:	3e02      	subs	r6, #2
 8000bf2:	443b      	add	r3, r7
 8000bf4:	1a5b      	subs	r3, r3, r1
 8000bf6:	b2a4      	uxth	r4, r4
 8000bf8:	fbb3 f0f8 	udiv	r0, r3, r8
 8000bfc:	fb08 3310 	mls	r3, r8, r0, r3
 8000c00:	ea44 4403 	orr.w	r4, r4, r3, lsl #16
 8000c04:	fb00 fe0e 	mul.w	lr, r0, lr
 8000c08:	45a6      	cmp	lr, r4
 8000c0a:	d909      	bls.n	8000c20 <__udivmoddi4+0x8c>
 8000c0c:	193c      	adds	r4, r7, r4
 8000c0e:	f100 33ff 	add.w	r3, r0, #4294967295
 8000c12:	f080 8105 	bcs.w	8000e20 <__udivmoddi4+0x28c>
 8000c16:	45a6      	cmp	lr, r4
 8000c18:	f240 8102 	bls.w	8000e20 <__udivmoddi4+0x28c>
 8000c1c:	3802      	subs	r0, #2
 8000c1e:	443c      	add	r4, r7
 8000c20:	ea40 4006 	orr.w	r0, r0, r6, lsl #16
 8000c24:	eba4 040e 	sub.w	r4, r4, lr
 8000c28:	2600      	movs	r6, #0
 8000c2a:	b11d      	cbz	r5, 8000c34 <__udivmoddi4+0xa0>
 8000c2c:	40d4      	lsrs	r4, r2
 8000c2e:	2300      	movs	r3, #0
 8000c30:	e9c5 4300 	strd	r4, r3, [r5]
 8000c34:	4631      	mov	r1, r6
 8000c36:	e8bd 87f0 	ldmia.w	sp!, {r4, r5, r6, r7, r8, r9, sl, pc}
 8000c3a:	b902      	cbnz	r2, 8000c3e <__udivmoddi4+0xaa>
 8000c3c:	deff      	udf	#255	; 0xff
 8000c3e:	fab2 f282 	clz	r2, r2
 8000c42:	2a00      	cmp	r2, #0
 8000c44:	d150      	bne.n	8000ce8 <__udivmoddi4+0x154>
 8000c46:	1bcb      	subs	r3, r1, r7
 8000c48:	ea4f 4e17 	mov.w	lr, r7, lsr #16
 8000c4c:	fa1f f887 	uxth.w	r8, r7
 8000c50:	2601      	movs	r6, #1
 8000c52:	fbb3 fcfe 	udiv	ip, r3, lr
 8000c56:	0c21      	lsrs	r1, r4, #16
 8000c58:	fb0e 331c 	mls	r3, lr, ip, r3
 8000c5c:	ea41 4103 	orr.w	r1, r1, r3, lsl #16
 8000c60:	fb08 f30c 	mul.w	r3, r8, ip
 8000c64:	428b      	cmp	r3, r1
 8000c66:	d907      	bls.n	8000c78 <__udivmoddi4+0xe4>
 8000c68:	1879      	adds	r1, r7, r1
 8000c6a:	f10c 30ff 	add.w	r0, ip, #4294967295
 8000c6e:	d202      	bcs.n	8000c76 <__udivmoddi4+0xe2>
 8000c70:	428b      	cmp	r3, r1
 8000c72:	f200 80e9 	bhi.w	8000e48 <__udivmoddi4+0x2b4>
 8000c76:	4684      	mov	ip, r0
 8000c78:	1ac9      	subs	r1, r1, r3
 8000c7a:	b2a3      	uxth	r3, r4
 8000c7c:	fbb1 f0fe 	udiv	r0, r1, lr
 8000c80:	fb0e 1110 	mls	r1, lr, r0, r1
 8000c84:	ea43 4401 	orr.w	r4, r3, r1, lsl #16
 8000c88:	fb08 f800 	mul.w	r8, r8, r0
 8000c8c:	45a0      	cmp	r8, r4
 8000c8e:	d907      	bls.n	8000ca0 <__udivmoddi4+0x10c>
 8000c90:	193c      	adds	r4, r7, r4
 8000c92:	f100 33ff 	add.w	r3, r0, #4294967295
 8000c96:	d202      	bcs.n	8000c9e <__udivmoddi4+0x10a>
 8000c98:	45a0      	cmp	r8, r4
 8000c9a:	f200 80d9 	bhi.w	8000e50 <__udivmoddi4+0x2bc>
 8000c9e:	4618      	mov	r0, r3
 8000ca0:	eba4 0408 	sub.w	r4, r4, r8
 8000ca4:	ea40 400c 	orr.w	r0, r0, ip, lsl #16
 8000ca8:	e7bf      	b.n	8000c2a <__udivmoddi4+0x96>
 8000caa:	428b      	cmp	r3, r1
 8000cac:	d909      	bls.n	8000cc2 <__udivmoddi4+0x12e>
 8000cae:	2d00      	cmp	r5, #0
 8000cb0:	f000 80b1 	beq.w	8000e16 <__udivmoddi4+0x282>
 8000cb4:	2600      	movs	r6, #0
 8000cb6:	e9c5 0100 	strd	r0, r1, [r5]
 8000cba:	4630      	mov	r0, r6
 8000cbc:	4631      	mov	r1, r6
 8000cbe:	e8bd 87f0 	ldmia.w	sp!, {r4, r5, r6, r7, r8, r9, sl, pc}
 8000cc2:	fab3 f683 	clz	r6, r3
 8000cc6:	2e00      	cmp	r6, #0
 8000cc8:	d14a      	bne.n	8000d60 <__udivmoddi4+0x1cc>
 8000cca:	428b      	cmp	r3, r1
 8000ccc:	d302      	bcc.n	8000cd4 <__udivmoddi4+0x140>
 8000cce:	4282      	cmp	r2, r0
 8000cd0:	f200 80b8 	bhi.w	8000e44 <__udivmoddi4+0x2b0>
 8000cd4:	1a84      	subs	r4, r0, r2
 8000cd6:	eb61 0103 	sbc.w	r1, r1, r3
 8000cda:	2001      	movs	r0, #1
 8000cdc:	468c      	mov	ip, r1
 8000cde:	2d00      	cmp	r5, #0
 8000ce0:	d0a8      	beq.n	8000c34 <__udivmoddi4+0xa0>
 8000ce2:	e9c5 4c00 	strd	r4, ip, [r5]
 8000ce6:	e7a5      	b.n	8000c34 <__udivmoddi4+0xa0>
 8000ce8:	f1c2 0320 	rsb	r3, r2, #32
 8000cec:	fa20 f603 	lsr.w	r6, r0, r3
 8000cf0:	4097      	lsls	r7, r2
 8000cf2:	fa01 f002 	lsl.w	r0, r1, r2
 8000cf6:	ea4f 4e17 	mov.w	lr, r7, lsr #16
 8000cfa:	40d9      	lsrs	r1, r3
 8000cfc:	4330      	orrs	r0, r6
 8000cfe:	0c03      	lsrs	r3, r0, #16
 8000d00:	fbb1 f6fe 	udiv	r6, r1, lr
 8000d04:	fa1f f887 	uxth.w	r8, r7
 8000d08:	fb0e 1116 	mls	r1, lr, r6, r1
 8000d0c:	ea43 4301 	orr.w	r3, r3, r1, lsl #16
 8000d10:	fb06 f108 	mul.w	r1, r6, r8
 8000d14:	4299      	cmp	r1, r3
 8000d16:	fa04 f402 	lsl.w	r4, r4, r2
 8000d1a:	d909      	bls.n	8000d30 <__udivmoddi4+0x19c>
 8000d1c:	18fb      	adds	r3, r7, r3
 8000d1e:	f106 3cff 	add.w	ip, r6, #4294967295
 8000d22:	f080 808d 	bcs.w	8000e40 <__udivmoddi4+0x2ac>
 8000d26:	4299      	cmp	r1, r3
 8000d28:	f240 808a 	bls.w	8000e40 <__udivmoddi4+0x2ac>
 8000d2c:	3e02      	subs	r6, #2
 8000d2e:	443b      	add	r3, r7
 8000d30:	1a5b      	subs	r3, r3, r1
 8000d32:	b281      	uxth	r1, r0
 8000d34:	fbb3 f0fe 	udiv	r0, r3, lr
 8000d38:	fb0e 3310 	mls	r3, lr, r0, r3
 8000d3c:	ea41 4103 	orr.w	r1, r1, r3, lsl #16
 8000d40:	fb00 f308 	mul.w	r3, r0, r8
 8000d44:	428b      	cmp	r3, r1
 8000d46:	d907      	bls.n	8000d58 <__udivmoddi4+0x1c4>
 8000d48:	1879      	adds	r1, r7, r1
 8000d4a:	f100 3cff 	add.w	ip, r0, #4294967295
 8000d4e:	d273      	bcs.n	8000e38 <__udivmoddi4+0x2a4>
 8000d50:	428b      	cmp	r3, r1
 8000d52:	d971      	bls.n	8000e38 <__udivmoddi4+0x2a4>
 8000d54:	3802      	subs	r0, #2
 8000d56:	4439      	add	r1, r7
 8000d58:	1acb      	subs	r3, r1, r3
 8000d5a:	ea40 4606 	orr.w	r6, r0, r6, lsl #16
 8000d5e:	e778      	b.n	8000c52 <__udivmoddi4+0xbe>
 8000d60:	f1c6 0c20 	rsb	ip, r6, #32
 8000d64:	fa03 f406 	lsl.w	r4, r3, r6
 8000d68:	fa22 f30c 	lsr.w	r3, r2, ip
 8000d6c:	431c      	orrs	r4, r3
 8000d6e:	fa20 f70c 	lsr.w	r7, r0, ip
 8000d72:	fa01 f306 	lsl.w	r3, r1, r6
 8000d76:	ea4f 4e14 	mov.w	lr, r4, lsr #16
 8000d7a:	fa21 f10c 	lsr.w	r1, r1, ip
 8000d7e:	431f      	orrs	r7, r3
 8000d80:	0c3b      	lsrs	r3, r7, #16
 8000d82:	fbb1 f9fe 	udiv	r9, r1, lr
 8000d86:	fa1f f884 	uxth.w	r8, r4
 8000d8a:	fb0e 1119 	mls	r1, lr, r9, r1
 8000d8e:	ea43 4101 	orr.w	r1, r3, r1, lsl #16
 8000d92:	fb09 fa08 	mul.w	sl, r9, r8
 8000d96:	458a      	cmp	sl, r1
 8000d98:	fa02 f206 	lsl.w	r2, r2, r6
 8000d9c:	fa00 f306 	lsl.w	r3, r0, r6
 8000da0:	d908      	bls.n	8000db4 <__udivmoddi4+0x220>
 8000da2:	1861      	adds	r1, r4, r1
 8000da4:	f109 30ff 	add.w	r0, r9, #4294967295
 8000da8:	d248      	bcs.n	8000e3c <__udivmoddi4+0x2a8>
 8000daa:	458a      	cmp	sl, r1
 8000dac:	d946      	bls.n	8000e3c <__udivmoddi4+0x2a8>
 8000dae:	f1a9 0902 	sub.w	r9, r9, #2
 8000db2:	4421      	add	r1, r4
 8000db4:	eba1 010a 	sub.w	r1, r1, sl
 8000db8:	b2bf      	uxth	r7, r7
 8000dba:	fbb1 f0fe 	udiv	r0, r1, lr
 8000dbe:	fb0e 1110 	mls	r1, lr, r0, r1
 8000dc2:	ea47 4701 	orr.w	r7, r7, r1, lsl #16
 8000dc6:	fb00 f808 	mul.w	r8, r0, r8
 8000dca:	45b8      	cmp	r8, r7
 8000dcc:	d907      	bls.n	8000dde <__udivmoddi4+0x24a>
 8000dce:	19e7      	adds	r7, r4, r7
 8000dd0:	f100 31ff 	add.w	r1, r0, #4294967295
 8000dd4:	d22e      	bcs.n	8000e34 <__udivmoddi4+0x2a0>
 8000dd6:	45b8      	cmp	r8, r7
 8000dd8:	d92c      	bls.n	8000e34 <__udivmoddi4+0x2a0>
 8000dda:	3802      	subs	r0, #2
 8000ddc:	4427      	add	r7, r4
 8000dde:	ea40 4009 	orr.w	r0, r0, r9, lsl #16
 8000de2:	eba7 0708 	sub.w	r7, r7, r8
 8000de6:	fba0 8902 	umull	r8, r9, r0, r2
 8000dea:	454f      	cmp	r7, r9
 8000dec:	46c6      	mov	lr, r8
 8000dee:	4649      	mov	r1, r9
 8000df0:	d31a      	bcc.n	8000e28 <__udivmoddi4+0x294>
 8000df2:	d017      	beq.n	8000e24 <__udivmoddi4+0x290>
 8000df4:	b15d      	cbz	r5, 8000e0e <__udivmoddi4+0x27a>
 8000df6:	ebb3 020e 	subs.w	r2, r3, lr
 8000dfa:	eb67 0701 	sbc.w	r7, r7, r1
 8000dfe:	fa07 fc0c 	lsl.w	ip, r7, ip
 8000e02:	40f2      	lsrs	r2, r6
 8000e04:	ea4c 0202 	orr.w	r2, ip, r2
 8000e08:	40f7      	lsrs	r7, r6
 8000e0a:	e9c5 2700 	strd	r2, r7, [r5]
 8000e0e:	2600      	movs	r6, #0
 8000e10:	4631      	mov	r1, r6
 8000e12:	e8bd 87f0 	ldmia.w	sp!, {r4, r5, r6, r7, r8, r9, sl, pc}
 8000e16:	462e      	mov	r6, r5
 8000e18:	4628      	mov	r0, r5
 8000e1a:	e70b      	b.n	8000c34 <__udivmoddi4+0xa0>
 8000e1c:	4606      	mov	r6, r0
 8000e1e:	e6e9      	b.n	8000bf4 <__udivmoddi4+0x60>
 8000e20:	4618      	mov	r0, r3
 8000e22:	e6fd      	b.n	8000c20 <__udivmoddi4+0x8c>
 8000e24:	4543      	cmp	r3, r8
 8000e26:	d2e5      	bcs.n	8000df4 <__udivmoddi4+0x260>
 8000e28:	ebb8 0e02 	subs.w	lr, r8, r2
 8000e2c:	eb69 0104 	sbc.w	r1, r9, r4
 8000e30:	3801      	subs	r0, #1
 8000e32:	e7df      	b.n	8000df4 <__udivmoddi4+0x260>
 8000e34:	4608      	mov	r0, r1
 8000e36:	e7d2      	b.n	8000dde <__udivmoddi4+0x24a>
 8000e38:	4660      	mov	r0, ip
 8000e3a:	e78d      	b.n	8000d58 <__udivmoddi4+0x1c4>
 8000e3c:	4681      	mov	r9, r0
 8000e3e:	e7b9      	b.n	8000db4 <__udivmoddi4+0x220>
 8000e40:	4666      	mov	r6, ip
 8000e42:	e775      	b.n	8000d30 <__udivmoddi4+0x19c>
 8000e44:	4630      	mov	r0, r6
 8000e46:	e74a      	b.n	8000cde <__udivmoddi4+0x14a>
 8000e48:	f1ac 0c02 	sub.w	ip, ip, #2
 8000e4c:	4439      	add	r1, r7
 8000e4e:	e713      	b.n	8000c78 <__udivmoddi4+0xe4>
 8000e50:	3802      	subs	r0, #2
 8000e52:	443c      	add	r4, r7
 8000e54:	e724      	b.n	8000ca0 <__udivmoddi4+0x10c>
 8000e56:	bf00      	nop

08000e58 <__aeabi_idiv0>:
 8000e58:	4770      	bx	lr
 8000e5a:	bf00      	nop

08000e5c <FusionAhrsInitialise>:
/**
 * @brief Initialises the AHRS algorithm structure.
 * @param fusionAhrs AHRS algorithm structure.
 * @param gain AHRS algorithm gain.
 */
void FusionAhrsInitialise(FusionAhrs * const fusionAhrs, const float gain) {
 8000e5c:	b480      	push	{r7}
 8000e5e:	b08b      	sub	sp, #44	; 0x2c
 8000e60:	af00      	add	r7, sp, #0
 8000e62:	6078      	str	r0, [r7, #4]
 8000e64:	ed87 0a00 	vstr	s0, [r7]
    fusionAhrs->gain = gain;
 8000e68:	687b      	ldr	r3, [r7, #4]
 8000e6a:	683a      	ldr	r2, [r7, #0]
 8000e6c:	601a      	str	r2, [r3, #0]
    fusionAhrs->minimumMagneticFieldSquared = 0.0f;
 8000e6e:	687b      	ldr	r3, [r7, #4]
 8000e70:	f04f 0200 	mov.w	r2, #0
 8000e74:	605a      	str	r2, [r3, #4]
    fusionAhrs->maximumMagneticFieldSquared = FLT_MAX;
 8000e76:	687b      	ldr	r3, [r7, #4]
 8000e78:	4a15      	ldr	r2, [pc, #84]	; (8000ed0 <FusionAhrsInitialise+0x74>)
 8000e7a:	609a      	str	r2, [r3, #8]
    fusionAhrs->quaternion = FUSION_QUATERNION_IDENTITY;
 8000e7c:	687b      	ldr	r3, [r7, #4]
 8000e7e:	f04f 527e 	mov.w	r2, #1065353216	; 0x3f800000
 8000e82:	60da      	str	r2, [r3, #12]
 8000e84:	687b      	ldr	r3, [r7, #4]
 8000e86:	f04f 0200 	mov.w	r2, #0
 8000e8a:	611a      	str	r2, [r3, #16]
 8000e8c:	687b      	ldr	r3, [r7, #4]
 8000e8e:	f04f 0200 	mov.w	r2, #0
 8000e92:	615a      	str	r2, [r3, #20]
 8000e94:	687b      	ldr	r3, [r7, #4]
 8000e96:	f04f 0200 	mov.w	r2, #0
 8000e9a:	619a      	str	r2, [r3, #24]
    fusionAhrs->linearAcceleration = FUSION_VECTOR3_ZERO;
 8000e9c:	687b      	ldr	r3, [r7, #4]
 8000e9e:	f04f 0200 	mov.w	r2, #0
 8000ea2:	61da      	str	r2, [r3, #28]
 8000ea4:	687b      	ldr	r3, [r7, #4]
 8000ea6:	f04f 0200 	mov.w	r2, #0
 8000eaa:	621a      	str	r2, [r3, #32]
 8000eac:	687b      	ldr	r3, [r7, #4]
 8000eae:	f04f 0200 	mov.w	r2, #0
 8000eb2:	625a      	str	r2, [r3, #36]	; 0x24
    fusionAhrs->rampedGain = INITIAL_GAIN;
 8000eb4:	687b      	ldr	r3, [r7, #4]
 8000eb6:	4a07      	ldr	r2, [pc, #28]	; (8000ed4 <FusionAhrsInitialise+0x78>)
 8000eb8:	629a      	str	r2, [r3, #40]	; 0x28
    fusionAhrs->zeroYawPending = false;
 8000eba:	687b      	ldr	r3, [r7, #4]
 8000ebc:	2200      	movs	r2, #0
 8000ebe:	f883 202c 	strb.w	r2, [r3, #44]	; 0x2c
}
 8000ec2:	bf00      	nop
 8000ec4:	372c      	adds	r7, #44	; 0x2c
 8000ec6:	46bd      	mov	sp, r7
 8000ec8:	f85d 7b04 	ldr.w	r7, [sp], #4
 8000ecc:	4770      	bx	lr
 8000ece:	bf00      	nop
 8000ed0:	7f7fffff 	.word	0x7f7fffff
 8000ed4:	41200000 	.word	0x41200000

08000ed8 <FusionAhrsUpdate>:
 * @param accelerometer Accelerometer measurement in g.
 * @param magnetometer Magnetometer measurement in uT.
 * @param samplePeriod Sample period in seconds.  This is the difference in time
 * between the current and previous gyroscope measurements.
 */
void FusionAhrsUpdate(FusionAhrs * const fusionAhrs, const FusionVector3 gyroscope, const FusionVector3 accelerometer, const FusionVector3 magnetometer, const float samplePeriod) {
 8000ed8:	b490      	push	{r4, r7}
 8000eda:	f5ad 6d85 	sub.w	sp, sp, #1064	; 0x428
 8000ede:	af00      	add	r7, sp, #0
 8000ee0:	f107 032c 	add.w	r3, r7, #44	; 0x2c
 8000ee4:	6018      	str	r0, [r3, #0]
 8000ee6:	f107 0120 	add.w	r1, r7, #32
 8000eea:	eeb0 5a61 	vmov.f32	s10, s3
 8000eee:	eef0 5a42 	vmov.f32	s11, s4
 8000ef2:	eeb0 6a62 	vmov.f32	s12, s5
 8000ef6:	f107 0214 	add.w	r2, r7, #20
 8000efa:	eef0 6a43 	vmov.f32	s13, s6
 8000efe:	eeb0 7a63 	vmov.f32	s14, s7
 8000f02:	eef0 7a44 	vmov.f32	s15, s8
 8000f06:	f107 0308 	add.w	r3, r7, #8
 8000f0a:	1d38      	adds	r0, r7, #4
 8000f0c:	edc0 4a00 	vstr	s9, [r0]
 8000f10:	ed81 0a00 	vstr	s0, [r1]
 8000f14:	edc1 0a01 	vstr	s1, [r1, #4]
 8000f18:	ed81 1a02 	vstr	s2, [r1, #8]
 8000f1c:	ed82 5a00 	vstr	s10, [r2]
 8000f20:	edc2 5a01 	vstr	s11, [r2, #4]
 8000f24:	ed82 6a02 	vstr	s12, [r2, #8]
 8000f28:	edc3 6a00 	vstr	s13, [r3]
 8000f2c:	ed83 7a01 	vstr	s14, [r3, #4]
 8000f30:	edc3 7a02 	vstr	s15, [r3, #8]
#define Q fusionAhrs->quaternion.element // define shorthand label for more readable code

    // Calculate feedback error
    FusionVector3 halfFeedbackError = FUSION_VECTOR3_ZERO; // scaled by 0.5 to avoid repeated multiplications by 2
 8000f34:	f507 732e 	add.w	r3, r7, #696	; 0x2b8
 8000f38:	f04f 0200 	mov.w	r2, #0
 8000f3c:	601a      	str	r2, [r3, #0]
 8000f3e:	f507 732e 	add.w	r3, r7, #696	; 0x2b8
 8000f42:	f04f 0200 	mov.w	r2, #0
 8000f46:	605a      	str	r2, [r3, #4]
 8000f48:	f507 732e 	add.w	r3, r7, #696	; 0x2b8
 8000f4c:	f04f 0200 	mov.w	r2, #0
 8000f50:	609a      	str	r2, [r3, #8]
    do {
        // Abandon feedback calculation if accelerometer measurement invalid
        if ((accelerometer.axis.x == 0.0f) && (accelerometer.axis.y == 0.0f) && (accelerometer.axis.z == 0.0f)) {
 8000f52:	f107 0314 	add.w	r3, r7, #20
 8000f56:	edd3 7a00 	vldr	s15, [r3]
 8000f5a:	eef5 7a40 	vcmp.f32	s15, #0.0
 8000f5e:	eef1 fa10 	vmrs	APSR_nzcv, fpscr
 8000f62:	d112      	bne.n	8000f8a <FusionAhrsUpdate+0xb2>
 8000f64:	f107 0314 	add.w	r3, r7, #20
 8000f68:	edd3 7a01 	vldr	s15, [r3, #4]
 8000f6c:	eef5 7a40 	vcmp.f32	s15, #0.0
 8000f70:	eef1 fa10 	vmrs	APSR_nzcv, fpscr
 8000f74:	d109      	bne.n	8000f8a <FusionAhrsUpdate+0xb2>
 8000f76:	f107 0314 	add.w	r3, r7, #20
 8000f7a:	edd3 7a02 	vldr	s15, [r3, #8]
 8000f7e:	eef5 7a40 	vcmp.f32	s15, #0.0
 8000f82:	eef1 fa10 	vmrs	APSR_nzcv, fpscr
 8000f86:	f000 8437 	beq.w	80017f8 <FusionAhrsUpdate+0x920>
            break;
        }

        // Calculate direction of gravity assumed by quaternion
        const FusionVector3 halfGravity = {
            .axis.x = Q.x * Q.z - Q.w * Q.y,
 8000f8a:	f107 032c 	add.w	r3, r7, #44	; 0x2c
 8000f8e:	681b      	ldr	r3, [r3, #0]
 8000f90:	ed93 7a04 	vldr	s14, [r3, #16]
 8000f94:	f107 032c 	add.w	r3, r7, #44	; 0x2c
 8000f98:	681b      	ldr	r3, [r3, #0]
 8000f9a:	edd3 7a06 	vldr	s15, [r3, #24]
 8000f9e:	ee27 7a27 	vmul.f32	s14, s14, s15
 8000fa2:	f107 032c 	add.w	r3, r7, #44	; 0x2c
 8000fa6:	681b      	ldr	r3, [r3, #0]
 8000fa8:	edd3 6a03 	vldr	s13, [r3, #12]
 8000fac:	f107 032c 	add.w	r3, r7, #44	; 0x2c
 8000fb0:	681b      	ldr	r3, [r3, #0]
 8000fb2:	edd3 7a05 	vldr	s15, [r3, #20]
 8000fb6:	ee66 7aa7 	vmul.f32	s15, s13, s15
 8000fba:	ee77 7a67 	vsub.f32	s15, s14, s15
        const FusionVector3 halfGravity = {
 8000fbe:	f507 73a4 	add.w	r3, r7, #328	; 0x148
 8000fc2:	edc3 7a00 	vstr	s15, [r3]
            .axis.y = Q.w * Q.x + Q.y * Q.z,
 8000fc6:	f107 032c 	add.w	r3, r7, #44	; 0x2c
 8000fca:	681b      	ldr	r3, [r3, #0]
 8000fcc:	ed93 7a03 	vldr	s14, [r3, #12]
 8000fd0:	f107 032c 	add.w	r3, r7, #44	; 0x2c
 8000fd4:	681b      	ldr	r3, [r3, #0]
 8000fd6:	edd3 7a04 	vldr	s15, [r3, #16]
 8000fda:	ee27 7a27 	vmul.f32	s14, s14, s15
 8000fde:	f107 032c 	add.w	r3, r7, #44	; 0x2c
 8000fe2:	681b      	ldr	r3, [r3, #0]
 8000fe4:	edd3 6a05 	vldr	s13, [r3, #20]
 8000fe8:	f107 032c 	add.w	r3, r7, #44	; 0x2c
 8000fec:	681b      	ldr	r3, [r3, #0]
 8000fee:	edd3 7a06 	vldr	s15, [r3, #24]
 8000ff2:	ee66 7aa7 	vmul.f32	s15, s13, s15
 8000ff6:	ee77 7a27 	vadd.f32	s15, s14, s15
        const FusionVector3 halfGravity = {
 8000ffa:	f507 73a4 	add.w	r3, r7, #328	; 0x148
 8000ffe:	edc3 7a01 	vstr	s15, [r3, #4]
            .axis.z = Q.w * Q.w - 0.5f + Q.z * Q.z,
 8001002:	f107 032c 	add.w	r3, r7, #44	; 0x2c
 8001006:	681b      	ldr	r3, [r3, #0]
 8001008:	ed93 7a03 	vldr	s14, [r3, #12]
 800100c:	f107 032c 	add.w	r3, r7, #44	; 0x2c
 8001010:	681b      	ldr	r3, [r3, #0]
 8001012:	edd3 7a03 	vldr	s15, [r3, #12]
 8001016:	ee67 7a27 	vmul.f32	s15, s14, s15
 800101a:	eeb6 7a00 	vmov.f32	s14, #96	; 0x3f000000  0.5
 800101e:	ee37 7ac7 	vsub.f32	s14, s15, s14
 8001022:	f107 032c 	add.w	r3, r7, #44	; 0x2c
 8001026:	681b      	ldr	r3, [r3, #0]
 8001028:	edd3 6a06 	vldr	s13, [r3, #24]
 800102c:	f107 032c 	add.w	r3, r7, #44	; 0x2c
 8001030:	681b      	ldr	r3, [r3, #0]
 8001032:	edd3 7a06 	vldr	s15, [r3, #24]
 8001036:	ee66 7aa7 	vmul.f32	s15, s13, s15
 800103a:	ee77 7a27 	vadd.f32	s15, s14, s15
        const FusionVector3 halfGravity = {
 800103e:	f507 73a4 	add.w	r3, r7, #328	; 0x148
 8001042:	edc3 7a02 	vstr	s15, [r3, #8]
 8001046:	f107 038c 	add.w	r3, r7, #140	; 0x8c
 800104a:	f107 0214 	add.w	r2, r7, #20
 800104e:	ca07      	ldmia	r2, {r0, r1, r2}
 8001050:	e883 0007 	stmia.w	r3, {r0, r1, r2}
 8001054:	f107 0380 	add.w	r3, r7, #128	; 0x80
 8001058:	f107 028c 	add.w	r2, r7, #140	; 0x8c
 800105c:	ca07      	ldmia	r2, {r0, r1, r2}
 800105e:	e883 0007 	stmia.w	r3, {r0, r1, r2}
 * @param vector Vector of the operation.
 * @return Vector magnitude squared.
 */
static inline __attribute__((always_inline)) float FusionVectorMagnitudeSquared(const FusionVector3 vector) {
#define V vector.axis // define shorthand label for more readable code
    return V.x * V.x + V.y * V.y + V.z * V.z;
 8001062:	f107 0380 	add.w	r3, r7, #128	; 0x80
 8001066:	ed93 7a00 	vldr	s14, [r3]
 800106a:	f107 0380 	add.w	r3, r7, #128	; 0x80
 800106e:	edd3 7a00 	vldr	s15, [r3]
 8001072:	ee27 7a27 	vmul.f32	s14, s14, s15
 8001076:	f107 0380 	add.w	r3, r7, #128	; 0x80
 800107a:	edd3 6a01 	vldr	s13, [r3, #4]
 800107e:	f107 0380 	add.w	r3, r7, #128	; 0x80
 8001082:	edd3 7a01 	vldr	s15, [r3, #4]
 8001086:	ee66 7aa7 	vmul.f32	s15, s13, s15
 800108a:	ee37 7a27 	vadd.f32	s14, s14, s15
 800108e:	f107 0380 	add.w	r3, r7, #128	; 0x80
 8001092:	edd3 6a02 	vldr	s13, [r3, #8]
 8001096:	f107 0380 	add.w	r3, r7, #128	; 0x80
 800109a:	edd3 7a02 	vldr	s15, [r3, #8]
 800109e:	ee66 7aa7 	vmul.f32	s15, s13, s15
 80010a2:	ee77 7a27 	vadd.f32	s15, s14, s15
 80010a6:	f207 431c 	addw	r3, r7, #1052	; 0x41c
 80010aa:	edc3 7a00 	vstr	s15, [r3]
    float halfx = 0.5f * x;
 80010ae:	f207 431c 	addw	r3, r7, #1052	; 0x41c
 80010b2:	edd3 7a00 	vldr	s15, [r3]
 80010b6:	eeb6 7a00 	vmov.f32	s14, #96	; 0x3f000000  0.5
 80010ba:	ee67 7a87 	vmul.f32	s15, s15, s14
 80010be:	f507 6383 	add.w	r3, r7, #1048	; 0x418
 80010c2:	edc3 7a00 	vstr	s15, [r3]
    float y = x;
 80010c6:	f107 037c 	add.w	r3, r7, #124	; 0x7c
 80010ca:	f207 421c 	addw	r2, r7, #1052	; 0x41c
 80010ce:	6812      	ldr	r2, [r2, #0]
 80010d0:	601a      	str	r2, [r3, #0]
    int32_t i = *(int32_t*) & y;
 80010d2:	f107 037c 	add.w	r3, r7, #124	; 0x7c
 80010d6:	681a      	ldr	r2, [r3, #0]
 80010d8:	f107 0378 	add.w	r3, r7, #120	; 0x78
 80010dc:	601a      	str	r2, [r3, #0]
    i = 0x5f3759df - (i >> 1);
 80010de:	f107 0378 	add.w	r3, r7, #120	; 0x78
 80010e2:	681b      	ldr	r3, [r3, #0]
 80010e4:	105a      	asrs	r2, r3, #1
 80010e6:	4b9a      	ldr	r3, [pc, #616]	; (8001350 <FusionAhrsUpdate+0x478>)
 80010e8:	1a9b      	subs	r3, r3, r2
 80010ea:	f107 0278 	add.w	r2, r7, #120	; 0x78
 80010ee:	6013      	str	r3, [r2, #0]
    y = *(float*) &i;
 80010f0:	f107 0378 	add.w	r3, r7, #120	; 0x78
 80010f4:	681a      	ldr	r2, [r3, #0]
 80010f6:	f107 037c 	add.w	r3, r7, #124	; 0x7c
 80010fa:	601a      	str	r2, [r3, #0]
    y = y * (1.5f - (halfx * y * y));
 80010fc:	f107 037c 	add.w	r3, r7, #124	; 0x7c
 8001100:	ed93 7a00 	vldr	s14, [r3]
 8001104:	f507 6383 	add.w	r3, r7, #1048	; 0x418
 8001108:	edd3 7a00 	vldr	s15, [r3]
 800110c:	ee27 7a27 	vmul.f32	s14, s14, s15
 8001110:	f107 037c 	add.w	r3, r7, #124	; 0x7c
 8001114:	edd3 7a00 	vldr	s15, [r3]
 8001118:	ee67 7a27 	vmul.f32	s15, s14, s15
 800111c:	eeb7 7a08 	vmov.f32	s14, #120	; 0x3fc00000  1.5
 8001120:	ee37 7a67 	vsub.f32	s14, s14, s15
 8001124:	f107 037c 	add.w	r3, r7, #124	; 0x7c
 8001128:	edd3 7a00 	vldr	s15, [r3]
 800112c:	ee67 7a27 	vmul.f32	s15, s14, s15
 8001130:	f107 037c 	add.w	r3, r7, #124	; 0x7c
 8001134:	edc3 7a00 	vstr	s15, [r3]
    return y;
 8001138:	f107 037c 	add.w	r3, r7, #124	; 0x7c
 800113c:	681b      	ldr	r3, [r3, #0]
 * square root approximation.
 * @param vector Vector to be normalised.
 * @return Normalised vector.
 */
static inline __attribute__((always_inline)) FusionVector3 FusionVectorFastNormalise(const FusionVector3 vector) {
    const float magnitudeReciprocal = FusionFastInverseSqrt(FusionVectorMagnitudeSquared(vector));
 800113e:	f207 4214 	addw	r2, r7, #1044	; 0x414
 8001142:	6013      	str	r3, [r2, #0]
 8001144:	f107 036c 	add.w	r3, r7, #108	; 0x6c
 8001148:	f107 028c 	add.w	r2, r7, #140	; 0x8c
 800114c:	ca07      	ldmia	r2, {r0, r1, r2}
 800114e:	e883 0007 	stmia.w	r3, {r0, r1, r2}
 8001152:	f207 4314 	addw	r3, r7, #1044	; 0x414
 8001156:	681b      	ldr	r3, [r3, #0]
 8001158:	f507 6282 	add.w	r2, r7, #1040	; 0x410
 800115c:	6013      	str	r3, [r2, #0]
    result.axis.x = vector.axis.x * scalar;
 800115e:	f107 036c 	add.w	r3, r7, #108	; 0x6c
 8001162:	ed93 7a00 	vldr	s14, [r3]
 8001166:	f507 6382 	add.w	r3, r7, #1040	; 0x410
 800116a:	edd3 7a00 	vldr	s15, [r3]
 800116e:	ee67 7a27 	vmul.f32	s15, s14, s15
 8001172:	f107 0360 	add.w	r3, r7, #96	; 0x60
 8001176:	edc3 7a00 	vstr	s15, [r3]
    result.axis.y = vector.axis.y * scalar;
 800117a:	f107 036c 	add.w	r3, r7, #108	; 0x6c
 800117e:	ed93 7a01 	vldr	s14, [r3, #4]
 8001182:	f507 6382 	add.w	r3, r7, #1040	; 0x410
 8001186:	edd3 7a00 	vldr	s15, [r3]
 800118a:	ee67 7a27 	vmul.f32	s15, s14, s15
 800118e:	f107 0360 	add.w	r3, r7, #96	; 0x60
 8001192:	edc3 7a01 	vstr	s15, [r3, #4]
    result.axis.z = vector.axis.z * scalar;
 8001196:	f107 036c 	add.w	r3, r7, #108	; 0x6c
 800119a:	ed93 7a02 	vldr	s14, [r3, #8]
 800119e:	f507 6382 	add.w	r3, r7, #1040	; 0x410
 80011a2:	edd3 7a00 	vldr	s15, [r3]
 80011a6:	ee67 7a27 	vmul.f32	s15, s14, s15
 80011aa:	f107 0360 	add.w	r3, r7, #96	; 0x60
 80011ae:	edc3 7a02 	vstr	s15, [r3, #8]
    return result;
 80011b2:	f507 734a 	add.w	r3, r7, #808	; 0x328
 80011b6:	f107 0260 	add.w	r2, r7, #96	; 0x60
 80011ba:	ca07      	ldmia	r2, {r0, r1, r2}
 80011bc:	e883 0007 	stmia.w	r3, {r0, r1, r2}
 80011c0:	f507 724a 	add.w	r2, r7, #808	; 0x328
 80011c4:	f507 734d 	add.w	r3, r7, #820	; 0x334
 80011c8:	ca07      	ldmia	r2, {r0, r1, r2}
 80011ca:	e883 0007 	stmia.w	r3, {r0, r1, r2}
    return FusionVectorMultiplyScalar(vector, magnitudeReciprocal);
 80011ce:	bf00      	nop
 80011d0:	f507 7331 	add.w	r3, r7, #708	; 0x2c4
 80011d4:	461c      	mov	r4, r3
 80011d6:	f507 734d 	add.w	r3, r7, #820	; 0x334
 80011da:	e893 0007 	ldmia.w	r3, {r0, r1, r2}
 80011de:	e884 0007 	stmia.w	r4, {r0, r1, r2}
 80011e2:	f107 0348 	add.w	r3, r7, #72	; 0x48
 80011e6:	f507 7231 	add.w	r2, r7, #708	; 0x2c4
 80011ea:	ca07      	ldmia	r2, {r0, r1, r2}
 80011ec:	e883 0007 	stmia.w	r3, {r0, r1, r2}
 80011f0:	f107 0354 	add.w	r3, r7, #84	; 0x54
 80011f4:	f507 72a4 	add.w	r2, r7, #328	; 0x148
 80011f8:	ca07      	ldmia	r2, {r0, r1, r2}
 80011fa:	e883 0007 	stmia.w	r3, {r0, r1, r2}
    result.axis.x = A.y * B.z - A.z * B.y;
 80011fe:	f107 0348 	add.w	r3, r7, #72	; 0x48
 8001202:	ed93 7a01 	vldr	s14, [r3, #4]
 8001206:	f107 0354 	add.w	r3, r7, #84	; 0x54
 800120a:	edd3 7a02 	vldr	s15, [r3, #8]
 800120e:	ee27 7a27 	vmul.f32	s14, s14, s15
 8001212:	f107 0348 	add.w	r3, r7, #72	; 0x48
 8001216:	edd3 6a02 	vldr	s13, [r3, #8]
 800121a:	f107 0354 	add.w	r3, r7, #84	; 0x54
 800121e:	edd3 7a01 	vldr	s15, [r3, #4]
 8001222:	ee66 7aa7 	vmul.f32	s15, s13, s15
 8001226:	ee77 7a67 	vsub.f32	s15, s14, s15
 800122a:	f107 033c 	add.w	r3, r7, #60	; 0x3c
 800122e:	edc3 7a00 	vstr	s15, [r3]
    result.axis.y = A.z * B.x - A.x * B.z;
 8001232:	f107 0348 	add.w	r3, r7, #72	; 0x48
 8001236:	ed93 7a02 	vldr	s14, [r3, #8]
 800123a:	f107 0354 	add.w	r3, r7, #84	; 0x54
 800123e:	edd3 7a00 	vldr	s15, [r3]
 8001242:	ee27 7a27 	vmul.f32	s14, s14, s15
 8001246:	f107 0348 	add.w	r3, r7, #72	; 0x48
 800124a:	edd3 6a00 	vldr	s13, [r3]
 800124e:	f107 0354 	add.w	r3, r7, #84	; 0x54
 8001252:	edd3 7a02 	vldr	s15, [r3, #8]
 8001256:	ee66 7aa7 	vmul.f32	s15, s13, s15
 800125a:	ee77 7a67 	vsub.f32	s15, s14, s15
 800125e:	f107 033c 	add.w	r3, r7, #60	; 0x3c
 8001262:	edc3 7a01 	vstr	s15, [r3, #4]
    result.axis.z = A.x * B.y - A.y * B.x;
 8001266:	f107 0348 	add.w	r3, r7, #72	; 0x48
 800126a:	ed93 7a00 	vldr	s14, [r3]
 800126e:	f107 0354 	add.w	r3, r7, #84	; 0x54
 8001272:	edd3 7a01 	vldr	s15, [r3, #4]
 8001276:	ee27 7a27 	vmul.f32	s14, s14, s15
 800127a:	f107 0348 	add.w	r3, r7, #72	; 0x48
 800127e:	edd3 6a01 	vldr	s13, [r3, #4]
 8001282:	f107 0354 	add.w	r3, r7, #84	; 0x54
 8001286:	edd3 7a00 	vldr	s15, [r3]
 800128a:	ee66 7aa7 	vmul.f32	s15, s13, s15
 800128e:	ee77 7a67 	vsub.f32	s15, s14, s15
 8001292:	f107 033c 	add.w	r3, r7, #60	; 0x3c
 8001296:	edc3 7a02 	vstr	s15, [r3, #8]
    return result;
 800129a:	f507 7347 	add.w	r3, r7, #796	; 0x31c
 800129e:	f107 023c 	add.w	r2, r7, #60	; 0x3c
 80012a2:	ca07      	ldmia	r2, {r0, r1, r2}
 80012a4:	e883 0007 	stmia.w	r3, {r0, r1, r2}
 80012a8:	f507 732e 	add.w	r3, r7, #696	; 0x2b8
 80012ac:	f507 7247 	add.w	r2, r7, #796	; 0x31c
 80012b0:	ca07      	ldmia	r2, {r0, r1, r2}
 80012b2:	e883 0007 	stmia.w	r3, {r0, r1, r2}
 80012b6:	f107 0330 	add.w	r3, r7, #48	; 0x30
 80012ba:	f107 0208 	add.w	r2, r7, #8
 80012be:	ca07      	ldmia	r2, {r0, r1, r2}
 80012c0:	e883 0007 	stmia.w	r3, {r0, r1, r2}
    return V.x * V.x + V.y * V.y + V.z * V.z;
 80012c4:	f107 0330 	add.w	r3, r7, #48	; 0x30
 80012c8:	ed93 7a00 	vldr	s14, [r3]
 80012cc:	f107 0330 	add.w	r3, r7, #48	; 0x30
 80012d0:	edd3 7a00 	vldr	s15, [r3]
 80012d4:	ee27 7a27 	vmul.f32	s14, s14, s15
 80012d8:	f107 0330 	add.w	r3, r7, #48	; 0x30
 80012dc:	edd3 6a01 	vldr	s13, [r3, #4]
 80012e0:	f107 0330 	add.w	r3, r7, #48	; 0x30
 80012e4:	edd3 7a01 	vldr	s15, [r3, #4]
 80012e8:	ee66 7aa7 	vmul.f32	s15, s13, s15
 80012ec:	ee37 7a27 	vadd.f32	s14, s14, s15
 80012f0:	f107 0330 	add.w	r3, r7, #48	; 0x30
 80012f4:	edd3 6a02 	vldr	s13, [r3, #8]
 80012f8:	f107 0330 	add.w	r3, r7, #48	; 0x30
 80012fc:	edd3 7a02 	vldr	s15, [r3, #8]
 8001300:	ee66 7aa7 	vmul.f32	s15, s13, s15
 8001304:	ee77 7a27 	vadd.f32	s15, s14, s15

        // Calculate accelerometer feedback error
        halfFeedbackError = FusionVectorCrossProduct(FusionVectorFastNormalise(accelerometer), halfGravity);

        // Abandon magnetometer feedback calculation if magnetometer measurement invalid
        const float magnetometerMagnitudeSquared = FusionVectorMagnitudeSquared(magnetometer);
 8001308:	f507 6384 	add.w	r3, r7, #1056	; 0x420
 800130c:	edc3 7a00 	vstr	s15, [r3]
        if ((magnetometerMagnitudeSquared < fusionAhrs->minimumMagneticFieldSquared) || (magnetometerMagnitudeSquared > fusionAhrs->maximumMagneticFieldSquared)) {
 8001310:	f107 032c 	add.w	r3, r7, #44	; 0x2c
 8001314:	681b      	ldr	r3, [r3, #0]
 8001316:	edd3 7a01 	vldr	s15, [r3, #4]
 800131a:	f507 6384 	add.w	r3, r7, #1056	; 0x420
 800131e:	ed93 7a00 	vldr	s14, [r3]
 8001322:	eeb4 7ae7 	vcmpe.f32	s14, s15
 8001326:	eef1 fa10 	vmrs	APSR_nzcv, fpscr
 800132a:	f100 8266 	bmi.w	80017fa <FusionAhrsUpdate+0x922>
 800132e:	f107 032c 	add.w	r3, r7, #44	; 0x2c
 8001332:	681b      	ldr	r3, [r3, #0]
 8001334:	edd3 7a02 	vldr	s15, [r3, #8]
 8001338:	f507 6384 	add.w	r3, r7, #1056	; 0x420
 800133c:	ed93 7a00 	vldr	s14, [r3]
 8001340:	eeb4 7ae7 	vcmpe.f32	s14, s15
 8001344:	eef1 fa10 	vmrs	APSR_nzcv, fpscr
 8001348:	f300 8257 	bgt.w	80017fa <FusionAhrsUpdate+0x922>
 800134c:	e002      	b.n	8001354 <FusionAhrsUpdate+0x47c>
 800134e:	bf00      	nop
 8001350:	5f3759df 	.word	0x5f3759df
            break;
        }

        // Compute direction of 'magnetic west' assumed by quaternion
        const FusionVector3 halfWest = {
            .axis.x = Q.x * Q.y + Q.w * Q.z,
 8001354:	f107 032c 	add.w	r3, r7, #44	; 0x2c
 8001358:	681b      	ldr	r3, [r3, #0]
 800135a:	ed93 7a04 	vldr	s14, [r3, #16]
 800135e:	f107 032c 	add.w	r3, r7, #44	; 0x2c
 8001362:	681b      	ldr	r3, [r3, #0]
 8001364:	edd3 7a05 	vldr	s15, [r3, #20]
 8001368:	ee27 7a27 	vmul.f32	s14, s14, s15
 800136c:	f107 032c 	add.w	r3, r7, #44	; 0x2c
 8001370:	681b      	ldr	r3, [r3, #0]
 8001372:	edd3 6a03 	vldr	s13, [r3, #12]
 8001376:	f107 032c 	add.w	r3, r7, #44	; 0x2c
 800137a:	681b      	ldr	r3, [r3, #0]
 800137c:	edd3 7a06 	vldr	s15, [r3, #24]
 8001380:	ee66 7aa7 	vmul.f32	s15, s13, s15
 8001384:	ee77 7a27 	vadd.f32	s15, s14, s15
        const FusionVector3 halfWest = {
 8001388:	f507 739e 	add.w	r3, r7, #316	; 0x13c
 800138c:	edc3 7a00 	vstr	s15, [r3]
            .axis.y = Q.w * Q.w - 0.5f + Q.y * Q.y,
 8001390:	f107 032c 	add.w	r3, r7, #44	; 0x2c
 8001394:	681b      	ldr	r3, [r3, #0]
 8001396:	ed93 7a03 	vldr	s14, [r3, #12]
 800139a:	f107 032c 	add.w	r3, r7, #44	; 0x2c
 800139e:	681b      	ldr	r3, [r3, #0]
 80013a0:	edd3 7a03 	vldr	s15, [r3, #12]
 80013a4:	ee67 7a27 	vmul.f32	s15, s14, s15
 80013a8:	eeb6 7a00 	vmov.f32	s14, #96	; 0x3f000000  0.5
 80013ac:	ee37 7ac7 	vsub.f32	s14, s15, s14
 80013b0:	f107 032c 	add.w	r3, r7, #44	; 0x2c
 80013b4:	681b      	ldr	r3, [r3, #0]
 80013b6:	edd3 6a05 	vldr	s13, [r3, #20]
 80013ba:	f107 032c 	add.w	r3, r7, #44	; 0x2c
 80013be:	681b      	ldr	r3, [r3, #0]
 80013c0:	edd3 7a05 	vldr	s15, [r3, #20]
 80013c4:	ee66 7aa7 	vmul.f32	s15, s13, s15
 80013c8:	ee77 7a27 	vadd.f32	s15, s14, s15
        const FusionVector3 halfWest = {
 80013cc:	f507 739e 	add.w	r3, r7, #316	; 0x13c
 80013d0:	edc3 7a01 	vstr	s15, [r3, #4]
            .axis.z = Q.y * Q.z - Q.w * Q.x
 80013d4:	f107 032c 	add.w	r3, r7, #44	; 0x2c
 80013d8:	681b      	ldr	r3, [r3, #0]
 80013da:	ed93 7a05 	vldr	s14, [r3, #20]
 80013de:	f107 032c 	add.w	r3, r7, #44	; 0x2c
 80013e2:	681b      	ldr	r3, [r3, #0]
 80013e4:	edd3 7a06 	vldr	s15, [r3, #24]
 80013e8:	ee27 7a27 	vmul.f32	s14, s14, s15
 80013ec:	f107 032c 	add.w	r3, r7, #44	; 0x2c
 80013f0:	681b      	ldr	r3, [r3, #0]
 80013f2:	edd3 6a03 	vldr	s13, [r3, #12]
 80013f6:	f107 032c 	add.w	r3, r7, #44	; 0x2c
 80013fa:	681b      	ldr	r3, [r3, #0]
 80013fc:	edd3 7a04 	vldr	s15, [r3, #16]
 8001400:	ee66 7aa7 	vmul.f32	s15, s13, s15
 8001404:	ee77 7a67 	vsub.f32	s15, s14, s15
        const FusionVector3 halfWest = {
 8001408:	f507 739e 	add.w	r3, r7, #316	; 0x13c
 800140c:	edc3 7a02 	vstr	s15, [r3, #8]
 8001410:	f507 7392 	add.w	r3, r7, #292	; 0x124
 8001414:	f107 0214 	add.w	r2, r7, #20
 8001418:	ca07      	ldmia	r2, {r0, r1, r2}
 800141a:	e883 0007 	stmia.w	r3, {r0, r1, r2}
 800141e:	f507 7398 	add.w	r3, r7, #304	; 0x130
 8001422:	f107 0208 	add.w	r2, r7, #8
 8001426:	ca07      	ldmia	r2, {r0, r1, r2}
 8001428:	e883 0007 	stmia.w	r3, {r0, r1, r2}
    result.axis.x = A.y * B.z - A.z * B.y;
 800142c:	f507 7392 	add.w	r3, r7, #292	; 0x124
 8001430:	ed93 7a01 	vldr	s14, [r3, #4]
 8001434:	f507 7398 	add.w	r3, r7, #304	; 0x130
 8001438:	edd3 7a02 	vldr	s15, [r3, #8]
 800143c:	ee27 7a27 	vmul.f32	s14, s14, s15
 8001440:	f507 7392 	add.w	r3, r7, #292	; 0x124
 8001444:	edd3 6a02 	vldr	s13, [r3, #8]
 8001448:	f507 7398 	add.w	r3, r7, #304	; 0x130
 800144c:	edd3 7a01 	vldr	s15, [r3, #4]
 8001450:	ee66 7aa7 	vmul.f32	s15, s13, s15
 8001454:	ee77 7a67 	vsub.f32	s15, s14, s15
 8001458:	f507 738c 	add.w	r3, r7, #280	; 0x118
 800145c:	edc3 7a00 	vstr	s15, [r3]
    result.axis.y = A.z * B.x - A.x * B.z;
 8001460:	f507 7392 	add.w	r3, r7, #292	; 0x124
 8001464:	ed93 7a02 	vldr	s14, [r3, #8]
 8001468:	f507 7398 	add.w	r3, r7, #304	; 0x130
 800146c:	edd3 7a00 	vldr	s15, [r3]
 8001470:	ee27 7a27 	vmul.f32	s14, s14, s15
 8001474:	f507 7392 	add.w	r3, r7, #292	; 0x124
 8001478:	edd3 6a00 	vldr	s13, [r3]
 800147c:	f507 7398 	add.w	r3, r7, #304	; 0x130
 8001480:	edd3 7a02 	vldr	s15, [r3, #8]
 8001484:	ee66 7aa7 	vmul.f32	s15, s13, s15
 8001488:	ee77 7a67 	vsub.f32	s15, s14, s15
 800148c:	f507 738c 	add.w	r3, r7, #280	; 0x118
 8001490:	edc3 7a01 	vstr	s15, [r3, #4]
    result.axis.z = A.x * B.y - A.y * B.x;
 8001494:	f507 7392 	add.w	r3, r7, #292	; 0x124
 8001498:	ed93 7a00 	vldr	s14, [r3]
 800149c:	f507 7398 	add.w	r3, r7, #304	; 0x130
 80014a0:	edd3 7a01 	vldr	s15, [r3, #4]
 80014a4:	ee27 7a27 	vmul.f32	s14, s14, s15
 80014a8:	f507 7392 	add.w	r3, r7, #292	; 0x124
 80014ac:	edd3 6a01 	vldr	s13, [r3, #4]
 80014b0:	f507 7398 	add.w	r3, r7, #304	; 0x130
 80014b4:	edd3 7a00 	vldr	s15, [r3]
 80014b8:	ee66 7aa7 	vmul.f32	s15, s13, s15
 80014bc:	ee77 7a67 	vsub.f32	s15, s14, s15
 80014c0:	f507 738c 	add.w	r3, r7, #280	; 0x118
 80014c4:	edc3 7a02 	vstr	s15, [r3, #8]
    return result;
 80014c8:	f507 728c 	add.w	r2, r7, #280	; 0x118
 80014cc:	f507 735c 	add.w	r3, r7, #880	; 0x370
 80014d0:	ca07      	ldmia	r2, {r0, r1, r2}
 80014d2:	e883 0007 	stmia.w	r3, {r0, r1, r2}
 80014d6:	f507 7334 	add.w	r3, r7, #720	; 0x2d0
 80014da:	461c      	mov	r4, r3
 80014dc:	f507 735c 	add.w	r3, r7, #880	; 0x370
 80014e0:	e893 0007 	ldmia.w	r3, {r0, r1, r2}
 80014e4:	e884 0007 	stmia.w	r4, {r0, r1, r2}
 80014e8:	f507 7386 	add.w	r3, r7, #268	; 0x10c
 80014ec:	f507 7234 	add.w	r2, r7, #720	; 0x2d0
 80014f0:	ca07      	ldmia	r2, {r0, r1, r2}
 80014f2:	e883 0007 	stmia.w	r3, {r0, r1, r2}
 80014f6:	f507 7380 	add.w	r3, r7, #256	; 0x100
 80014fa:	f507 7286 	add.w	r2, r7, #268	; 0x10c
 80014fe:	ca07      	ldmia	r2, {r0, r1, r2}
 8001500:	e883 0007 	stmia.w	r3, {r0, r1, r2}
    return V.x * V.x + V.y * V.y + V.z * V.z;
 8001504:	f507 7380 	add.w	r3, r7, #256	; 0x100
 8001508:	ed93 7a00 	vldr	s14, [r3]
 800150c:	f507 7380 	add.w	r3, r7, #256	; 0x100
 8001510:	edd3 7a00 	vldr	s15, [r3]
 8001514:	ee27 7a27 	vmul.f32	s14, s14, s15
 8001518:	f507 7380 	add.w	r3, r7, #256	; 0x100
 800151c:	edd3 6a01 	vldr	s13, [r3, #4]
 8001520:	f507 7380 	add.w	r3, r7, #256	; 0x100
 8001524:	edd3 7a01 	vldr	s15, [r3, #4]
 8001528:	ee66 7aa7 	vmul.f32	s15, s13, s15
 800152c:	ee37 7a27 	vadd.f32	s14, s14, s15
 8001530:	f507 7380 	add.w	r3, r7, #256	; 0x100
 8001534:	edd3 6a02 	vldr	s13, [r3, #8]
 8001538:	f507 7380 	add.w	r3, r7, #256	; 0x100
 800153c:	edd3 7a02 	vldr	s15, [r3, #8]
 8001540:	ee66 7aa7 	vmul.f32	s15, s13, s15
 8001544:	ee77 7a27 	vadd.f32	s15, s14, s15
 8001548:	f207 430c 	addw	r3, r7, #1036	; 0x40c
 800154c:	edc3 7a00 	vstr	s15, [r3]
    float halfx = 0.5f * x;
 8001550:	f207 430c 	addw	r3, r7, #1036	; 0x40c
 8001554:	edd3 7a00 	vldr	s15, [r3]
 8001558:	eeb6 7a00 	vmov.f32	s14, #96	; 0x3f000000  0.5
 800155c:	ee67 7a87 	vmul.f32	s15, s15, s14
 8001560:	f507 6381 	add.w	r3, r7, #1032	; 0x408
 8001564:	edc3 7a00 	vstr	s15, [r3]
    float y = x;
 8001568:	f107 03fc 	add.w	r3, r7, #252	; 0xfc
 800156c:	f207 420c 	addw	r2, r7, #1036	; 0x40c
 8001570:	6812      	ldr	r2, [r2, #0]
 8001572:	601a      	str	r2, [r3, #0]
    int32_t i = *(int32_t*) & y;
 8001574:	f107 03fc 	add.w	r3, r7, #252	; 0xfc
 8001578:	681a      	ldr	r2, [r3, #0]
 800157a:	f107 03f8 	add.w	r3, r7, #248	; 0xf8
 800157e:	601a      	str	r2, [r3, #0]
    i = 0x5f3759df - (i >> 1);
 8001580:	f107 03f8 	add.w	r3, r7, #248	; 0xf8
 8001584:	681b      	ldr	r3, [r3, #0]
 8001586:	105a      	asrs	r2, r3, #1
 8001588:	4b99      	ldr	r3, [pc, #612]	; (80017f0 <FusionAhrsUpdate+0x918>)
 800158a:	1a9b      	subs	r3, r3, r2
 800158c:	f107 02f8 	add.w	r2, r7, #248	; 0xf8
 8001590:	6013      	str	r3, [r2, #0]
    y = *(float*) &i;
 8001592:	f107 03f8 	add.w	r3, r7, #248	; 0xf8
 8001596:	681a      	ldr	r2, [r3, #0]
 8001598:	f107 03fc 	add.w	r3, r7, #252	; 0xfc
 800159c:	601a      	str	r2, [r3, #0]
    y = y * (1.5f - (halfx * y * y));
 800159e:	f107 03fc 	add.w	r3, r7, #252	; 0xfc
 80015a2:	ed93 7a00 	vldr	s14, [r3]
 80015a6:	f507 6381 	add.w	r3, r7, #1032	; 0x408
 80015aa:	edd3 7a00 	vldr	s15, [r3]
 80015ae:	ee27 7a27 	vmul.f32	s14, s14, s15
 80015b2:	f107 03fc 	add.w	r3, r7, #252	; 0xfc
 80015b6:	edd3 7a00 	vldr	s15, [r3]
 80015ba:	ee67 7a27 	vmul.f32	s15, s14, s15
 80015be:	eeb7 7a08 	vmov.f32	s14, #120	; 0x3fc00000  1.5
 80015c2:	ee37 7a67 	vsub.f32	s14, s14, s15
 80015c6:	f107 03fc 	add.w	r3, r7, #252	; 0xfc
 80015ca:	edd3 7a00 	vldr	s15, [r3]
 80015ce:	ee67 7a27 	vmul.f32	s15, s14, s15
 80015d2:	f107 03fc 	add.w	r3, r7, #252	; 0xfc
 80015d6:	edc3 7a00 	vstr	s15, [r3]
    return y;
 80015da:	f107 03fc 	add.w	r3, r7, #252	; 0xfc
 80015de:	681b      	ldr	r3, [r3, #0]
    const float magnitudeReciprocal = FusionFastInverseSqrt(FusionVectorMagnitudeSquared(vector));
 80015e0:	f207 4204 	addw	r2, r7, #1028	; 0x404
 80015e4:	6013      	str	r3, [r2, #0]
 80015e6:	f107 03ec 	add.w	r3, r7, #236	; 0xec
 80015ea:	f507 7286 	add.w	r2, r7, #268	; 0x10c
 80015ee:	ca07      	ldmia	r2, {r0, r1, r2}
 80015f0:	e883 0007 	stmia.w	r3, {r0, r1, r2}
 80015f4:	f207 4304 	addw	r3, r7, #1028	; 0x404
 80015f8:	681b      	ldr	r3, [r3, #0]
 80015fa:	f507 6280 	add.w	r2, r7, #1024	; 0x400
 80015fe:	6013      	str	r3, [r2, #0]
    result.axis.x = vector.axis.x * scalar;
 8001600:	f107 03ec 	add.w	r3, r7, #236	; 0xec
 8001604:	ed93 7a00 	vldr	s14, [r3]
 8001608:	f507 6380 	add.w	r3, r7, #1024	; 0x400
 800160c:	edd3 7a00 	vldr	s15, [r3]
 8001610:	ee67 7a27 	vmul.f32	s15, s14, s15
 8001614:	f107 03e0 	add.w	r3, r7, #224	; 0xe0
 8001618:	edc3 7a00 	vstr	s15, [r3]
    result.axis.y = vector.axis.y * scalar;
 800161c:	f107 03ec 	add.w	r3, r7, #236	; 0xec
 8001620:	ed93 7a01 	vldr	s14, [r3, #4]
 8001624:	f507 6380 	add.w	r3, r7, #1024	; 0x400
 8001628:	edd3 7a00 	vldr	s15, [r3]
 800162c:	ee67 7a27 	vmul.f32	s15, s14, s15
 8001630:	f107 03e0 	add.w	r3, r7, #224	; 0xe0
 8001634:	edc3 7a01 	vstr	s15, [r3, #4]
    result.axis.z = vector.axis.z * scalar;
 8001638:	f107 03ec 	add.w	r3, r7, #236	; 0xec
 800163c:	ed93 7a02 	vldr	s14, [r3, #8]
 8001640:	f507 6380 	add.w	r3, r7, #1024	; 0x400
 8001644:	edd3 7a00 	vldr	s15, [r3]
 8001648:	ee67 7a27 	vmul.f32	s15, s14, s15
 800164c:	f107 03e0 	add.w	r3, r7, #224	; 0xe0
 8001650:	edc3 7a02 	vstr	s15, [r3, #8]
    return result;
 8001654:	f107 02e0 	add.w	r2, r7, #224	; 0xe0
 8001658:	f507 7356 	add.w	r3, r7, #856	; 0x358
 800165c:	ca07      	ldmia	r2, {r0, r1, r2}
 800165e:	e883 0007 	stmia.w	r3, {r0, r1, r2}
 8001662:	f507 7359 	add.w	r3, r7, #868	; 0x364
 8001666:	f507 7256 	add.w	r2, r7, #856	; 0x358
 800166a:	ca07      	ldmia	r2, {r0, r1, r2}
 800166c:	e883 0007 	stmia.w	r3, {r0, r1, r2}
    return FusionVectorMultiplyScalar(vector, magnitudeReciprocal);
 8001670:	bf00      	nop
 8001672:	f507 7337 	add.w	r3, r7, #732	; 0x2dc
 8001676:	461c      	mov	r4, r3
 8001678:	f507 7359 	add.w	r3, r7, #868	; 0x364
 800167c:	e893 0007 	ldmia.w	r3, {r0, r1, r2}
 8001680:	e884 0007 	stmia.w	r4, {r0, r1, r2}
 8001684:	f107 03c8 	add.w	r3, r7, #200	; 0xc8
 8001688:	f507 7237 	add.w	r2, r7, #732	; 0x2dc
 800168c:	ca07      	ldmia	r2, {r0, r1, r2}
 800168e:	e883 0007 	stmia.w	r3, {r0, r1, r2}
 8001692:	f107 03d4 	add.w	r3, r7, #212	; 0xd4
 8001696:	f507 729e 	add.w	r2, r7, #316	; 0x13c
 800169a:	ca07      	ldmia	r2, {r0, r1, r2}
 800169c:	e883 0007 	stmia.w	r3, {r0, r1, r2}
    result.axis.x = A.y * B.z - A.z * B.y;
 80016a0:	f107 03c8 	add.w	r3, r7, #200	; 0xc8
 80016a4:	ed93 7a01 	vldr	s14, [r3, #4]
 80016a8:	f107 03d4 	add.w	r3, r7, #212	; 0xd4
 80016ac:	edd3 7a02 	vldr	s15, [r3, #8]
 80016b0:	ee27 7a27 	vmul.f32	s14, s14, s15
 80016b4:	f107 03c8 	add.w	r3, r7, #200	; 0xc8
 80016b8:	edd3 6a02 	vldr	s13, [r3, #8]
 80016bc:	f107 03d4 	add.w	r3, r7, #212	; 0xd4
 80016c0:	edd3 7a01 	vldr	s15, [r3, #4]
 80016c4:	ee66 7aa7 	vmul.f32	s15, s13, s15
 80016c8:	ee77 7a67 	vsub.f32	s15, s14, s15
 80016cc:	f107 03bc 	add.w	r3, r7, #188	; 0xbc
 80016d0:	edc3 7a00 	vstr	s15, [r3]
    result.axis.y = A.z * B.x - A.x * B.z;
 80016d4:	f107 03c8 	add.w	r3, r7, #200	; 0xc8
 80016d8:	ed93 7a02 	vldr	s14, [r3, #8]
 80016dc:	f107 03d4 	add.w	r3, r7, #212	; 0xd4
 80016e0:	edd3 7a00 	vldr	s15, [r3]
 80016e4:	ee27 7a27 	vmul.f32	s14, s14, s15
 80016e8:	f107 03c8 	add.w	r3, r7, #200	; 0xc8
 80016ec:	edd3 6a00 	vldr	s13, [r3]
 80016f0:	f107 03d4 	add.w	r3, r7, #212	; 0xd4
 80016f4:	edd3 7a02 	vldr	s15, [r3, #8]
 80016f8:	ee66 7aa7 	vmul.f32	s15, s13, s15
 80016fc:	ee77 7a67 	vsub.f32	s15, s14, s15
 8001700:	f107 03bc 	add.w	r3, r7, #188	; 0xbc
 8001704:	edc3 7a01 	vstr	s15, [r3, #4]
    result.axis.z = A.x * B.y - A.y * B.x;
 8001708:	f107 03c8 	add.w	r3, r7, #200	; 0xc8
 800170c:	ed93 7a00 	vldr	s14, [r3]
 8001710:	f107 03d4 	add.w	r3, r7, #212	; 0xd4
 8001714:	edd3 7a01 	vldr	s15, [r3, #4]
 8001718:	ee27 7a27 	vmul.f32	s14, s14, s15
 800171c:	f107 03c8 	add.w	r3, r7, #200	; 0xc8
 8001720:	edd3 6a01 	vldr	s13, [r3, #4]
 8001724:	f107 03d4 	add.w	r3, r7, #212	; 0xd4
 8001728:	edd3 7a00 	vldr	s15, [r3]
 800172c:	ee66 7aa7 	vmul.f32	s15, s13, s15
 8001730:	ee77 7a67 	vsub.f32	s15, s14, s15
 8001734:	f107 03bc 	add.w	r3, r7, #188	; 0xbc
 8001738:	edc3 7a02 	vstr	s15, [r3, #8]
    return result;
 800173c:	f107 02bc 	add.w	r2, r7, #188	; 0xbc
 8001740:	f507 7353 	add.w	r3, r7, #844	; 0x34c
 8001744:	ca07      	ldmia	r2, {r0, r1, r2}
 8001746:	e883 0007 	stmia.w	r3, {r0, r1, r2}
 800174a:	f507 733a 	add.w	r3, r7, #744	; 0x2e8
 800174e:	461c      	mov	r4, r3
 8001750:	f507 7353 	add.w	r3, r7, #844	; 0x34c
 8001754:	e893 0007 	ldmia.w	r3, {r0, r1, r2}
 8001758:	e884 0007 	stmia.w	r4, {r0, r1, r2}
 800175c:	f107 03a4 	add.w	r3, r7, #164	; 0xa4
 8001760:	f507 722e 	add.w	r2, r7, #696	; 0x2b8
 8001764:	ca07      	ldmia	r2, {r0, r1, r2}
 8001766:	e883 0007 	stmia.w	r3, {r0, r1, r2}
 800176a:	f107 03b0 	add.w	r3, r7, #176	; 0xb0
 800176e:	f507 723a 	add.w	r2, r7, #744	; 0x2e8
 8001772:	ca07      	ldmia	r2, {r0, r1, r2}
 8001774:	e883 0007 	stmia.w	r3, {r0, r1, r2}
    result.axis.x = vectorA.axis.x + vectorB.axis.x;
 8001778:	f107 03a4 	add.w	r3, r7, #164	; 0xa4
 800177c:	ed93 7a00 	vldr	s14, [r3]
 8001780:	f107 03b0 	add.w	r3, r7, #176	; 0xb0
 8001784:	edd3 7a00 	vldr	s15, [r3]
 8001788:	ee77 7a27 	vadd.f32	s15, s14, s15
 800178c:	f107 0398 	add.w	r3, r7, #152	; 0x98
 8001790:	edc3 7a00 	vstr	s15, [r3]
    result.axis.y = vectorA.axis.y + vectorB.axis.y;
 8001794:	f107 03a4 	add.w	r3, r7, #164	; 0xa4
 8001798:	ed93 7a01 	vldr	s14, [r3, #4]
 800179c:	f107 03b0 	add.w	r3, r7, #176	; 0xb0
 80017a0:	edd3 7a01 	vldr	s15, [r3, #4]
 80017a4:	ee77 7a27 	vadd.f32	s15, s14, s15
 80017a8:	f107 0398 	add.w	r3, r7, #152	; 0x98
 80017ac:	edc3 7a01 	vstr	s15, [r3, #4]
    result.axis.z = vectorA.axis.z + vectorB.axis.z;
 80017b0:	f107 03a4 	add.w	r3, r7, #164	; 0xa4
 80017b4:	ed93 7a02 	vldr	s14, [r3, #8]
 80017b8:	f107 03b0 	add.w	r3, r7, #176	; 0xb0
 80017bc:	edd3 7a02 	vldr	s15, [r3, #8]
 80017c0:	ee77 7a27 	vadd.f32	s15, s14, s15
 80017c4:	f107 0398 	add.w	r3, r7, #152	; 0x98
 80017c8:	edc3 7a02 	vstr	s15, [r3, #8]
    return result;
 80017cc:	f107 0298 	add.w	r2, r7, #152	; 0x98
 80017d0:	f507 7350 	add.w	r3, r7, #832	; 0x340
 80017d4:	ca07      	ldmia	r2, {r0, r1, r2}
 80017d6:	e883 0007 	stmia.w	r3, {r0, r1, r2}
 80017da:	f507 732e 	add.w	r3, r7, #696	; 0x2b8
 80017de:	461c      	mov	r4, r3
 80017e0:	f507 7350 	add.w	r3, r7, #832	; 0x340
 80017e4:	e893 0007 	ldmia.w	r3, {r0, r1, r2}
 80017e8:	e884 0007 	stmia.w	r4, {r0, r1, r2}
 80017ec:	e005      	b.n	80017fa <FusionAhrsUpdate+0x922>
 80017ee:	bf00      	nop
 80017f0:	5f3759df 	.word	0x5f3759df
 80017f4:	3c8efa35 	.word	0x3c8efa35
            break;
 80017f8:	bf00      	nop
        halfFeedbackError = FusionVectorAdd(halfFeedbackError, FusionVectorCrossProduct(FusionVectorFastNormalise(FusionVectorCrossProduct(accelerometer, magnetometer)), halfWest));

    } while (false);

    // Ramp down gain until initialisation complete
    if (fusionAhrs->gain == 0) {
 80017fa:	f107 032c 	add.w	r3, r7, #44	; 0x2c
 80017fe:	681b      	ldr	r3, [r3, #0]
 8001800:	edd3 7a00 	vldr	s15, [r3]
 8001804:	eef5 7a40 	vcmp.f32	s15, #0.0
 8001808:	eef1 fa10 	vmrs	APSR_nzcv, fpscr
 800180c:	d105      	bne.n	800181a <FusionAhrsUpdate+0x942>
        fusionAhrs->rampedGain = 0; // skip initialisation if gain is zero
 800180e:	f107 032c 	add.w	r3, r7, #44	; 0x2c
 8001812:	681b      	ldr	r3, [r3, #0]
 8001814:	f04f 0200 	mov.w	r2, #0
 8001818:	629a      	str	r2, [r3, #40]	; 0x28
    }
    float feedbackGain = fusionAhrs->gain;
 800181a:	f107 032c 	add.w	r3, r7, #44	; 0x2c
 800181e:	681b      	ldr	r3, [r3, #0]
 8001820:	681b      	ldr	r3, [r3, #0]
 8001822:	f207 4224 	addw	r2, r7, #1060	; 0x424
 8001826:	6013      	str	r3, [r2, #0]
    if (fusionAhrs->rampedGain > fusionAhrs->gain) {
 8001828:	f107 032c 	add.w	r3, r7, #44	; 0x2c
 800182c:	681b      	ldr	r3, [r3, #0]
 800182e:	ed93 7a0a 	vldr	s14, [r3, #40]	; 0x28
 8001832:	f107 032c 	add.w	r3, r7, #44	; 0x2c
 8001836:	681b      	ldr	r3, [r3, #0]
 8001838:	edd3 7a00 	vldr	s15, [r3]
 800183c:	eeb4 7ae7 	vcmpe.f32	s14, s15
 8001840:	eef1 fa10 	vmrs	APSR_nzcv, fpscr
 8001844:	dd24      	ble.n	8001890 <FusionAhrsUpdate+0x9b8>
        fusionAhrs->rampedGain -= (INITIAL_GAIN - fusionAhrs->gain) * samplePeriod / INITIALISATION_PERIOD;
 8001846:	f107 032c 	add.w	r3, r7, #44	; 0x2c
 800184a:	681b      	ldr	r3, [r3, #0]
 800184c:	ed93 7a0a 	vldr	s14, [r3, #40]	; 0x28
 8001850:	f107 032c 	add.w	r3, r7, #44	; 0x2c
 8001854:	681b      	ldr	r3, [r3, #0]
 8001856:	edd3 7a00 	vldr	s15, [r3]
 800185a:	eef2 6a04 	vmov.f32	s13, #36	; 0x41200000  10.0
 800185e:	ee76 6ae7 	vsub.f32	s13, s13, s15
 8001862:	1d3b      	adds	r3, r7, #4
 8001864:	edd3 7a00 	vldr	s15, [r3]
 8001868:	ee66 6aa7 	vmul.f32	s13, s13, s15
 800186c:	eeb0 6a08 	vmov.f32	s12, #8	; 0x40400000  3.0
 8001870:	eec6 7a86 	vdiv.f32	s15, s13, s12
 8001874:	ee77 7a67 	vsub.f32	s15, s14, s15
 8001878:	f107 032c 	add.w	r3, r7, #44	; 0x2c
 800187c:	681b      	ldr	r3, [r3, #0]
 800187e:	edc3 7a0a 	vstr	s15, [r3, #40]	; 0x28
        feedbackGain = fusionAhrs->rampedGain;
 8001882:	f107 032c 	add.w	r3, r7, #44	; 0x2c
 8001886:	681b      	ldr	r3, [r3, #0]
 8001888:	6a9b      	ldr	r3, [r3, #40]	; 0x28
 800188a:	f207 4224 	addw	r2, r7, #1060	; 0x424
 800188e:	6013      	str	r3, [r2, #0]
    return degrees * ((float) M_PI / 180.0f);
 8001890:	ed1f 7a28 	vldr	s14, [pc, #-160]	; 80017f4 <FusionAhrsUpdate+0x91c>
    }

    // Convert gyroscope to radians per second scaled by 0.5
    FusionVector3 halfGyroscope = FusionVectorMultiplyScalar(gyroscope, 0.5f * FusionDegreesToRadians(1.0f));
 8001894:	eef6 7a00 	vmov.f32	s15, #96	; 0x3f000000  0.5
 8001898:	ee67 7a27 	vmul.f32	s15, s14, s15
 800189c:	f507 7322 	add.w	r3, r7, #648	; 0x288
 80018a0:	f107 0220 	add.w	r2, r7, #32
 80018a4:	ca07      	ldmia	r2, {r0, r1, r2}
 80018a6:	e883 0007 	stmia.w	r3, {r0, r1, r2}
 80018aa:	edc7 7afa 	vstr	s15, [r7, #1000]	; 0x3e8
    result.axis.x = vector.axis.x * scalar;
 80018ae:	f507 7322 	add.w	r3, r7, #648	; 0x288
 80018b2:	ed93 7a00 	vldr	s14, [r3]
 80018b6:	edd7 7afa 	vldr	s15, [r7, #1000]	; 0x3e8
 80018ba:	ee67 7a27 	vmul.f32	s15, s14, s15
 80018be:	f507 731f 	add.w	r3, r7, #636	; 0x27c
 80018c2:	edc3 7a00 	vstr	s15, [r3]
    result.axis.y = vector.axis.y * scalar;
 80018c6:	f507 7322 	add.w	r3, r7, #648	; 0x288
 80018ca:	ed93 7a01 	vldr	s14, [r3, #4]
 80018ce:	edd7 7afa 	vldr	s15, [r7, #1000]	; 0x3e8
 80018d2:	ee67 7a27 	vmul.f32	s15, s14, s15
 80018d6:	f507 731f 	add.w	r3, r7, #636	; 0x27c
 80018da:	edc3 7a01 	vstr	s15, [r3, #4]
    result.axis.z = vector.axis.z * scalar;
 80018de:	f507 7322 	add.w	r3, r7, #648	; 0x288
 80018e2:	ed93 7a02 	vldr	s14, [r3, #8]
 80018e6:	edd7 7afa 	vldr	s15, [r7, #1000]	; 0x3e8
 80018ea:	ee67 7a27 	vmul.f32	s15, s14, s15
 80018ee:	f507 731f 	add.w	r3, r7, #636	; 0x27c
 80018f2:	edc3 7a02 	vstr	s15, [r3, #8]
    return result;
 80018f6:	f507 721f 	add.w	r2, r7, #636	; 0x27c
 80018fa:	f507 7377 	add.w	r3, r7, #988	; 0x3dc
 80018fe:	ca07      	ldmia	r2, {r0, r1, r2}
 8001900:	e883 0007 	stmia.w	r3, {r0, r1, r2}
 8001904:	f507 7328 	add.w	r3, r7, #672	; 0x2a0
 8001908:	461c      	mov	r4, r3
 800190a:	f507 7377 	add.w	r3, r7, #988	; 0x3dc
 800190e:	e893 0007 	ldmia.w	r3, {r0, r1, r2}
 8001912:	e884 0007 	stmia.w	r4, {r0, r1, r2}
 8001916:	f507 731c 	add.w	r3, r7, #624	; 0x270
 800191a:	f507 722e 	add.w	r2, r7, #696	; 0x2b8
 800191e:	ca07      	ldmia	r2, {r0, r1, r2}
 8001920:	e883 0007 	stmia.w	r3, {r0, r1, r2}
 8001924:	f207 4324 	addw	r3, r7, #1060	; 0x424
 8001928:	681b      	ldr	r3, [r3, #0]
 800192a:	f8c7 33ec 	str.w	r3, [r7, #1004]	; 0x3ec
    result.axis.x = vector.axis.x * scalar;
 800192e:	f507 731c 	add.w	r3, r7, #624	; 0x270
 8001932:	ed93 7a00 	vldr	s14, [r3]
 8001936:	edd7 7afb 	vldr	s15, [r7, #1004]	; 0x3ec
 800193a:	ee67 7a27 	vmul.f32	s15, s14, s15
 800193e:	f507 7319 	add.w	r3, r7, #612	; 0x264
 8001942:	edc3 7a00 	vstr	s15, [r3]
    result.axis.y = vector.axis.y * scalar;
 8001946:	f507 731c 	add.w	r3, r7, #624	; 0x270
 800194a:	ed93 7a01 	vldr	s14, [r3, #4]
 800194e:	edd7 7afb 	vldr	s15, [r7, #1004]	; 0x3ec
 8001952:	ee67 7a27 	vmul.f32	s15, s14, s15
 8001956:	f507 7319 	add.w	r3, r7, #612	; 0x264
 800195a:	edc3 7a01 	vstr	s15, [r3, #4]
    result.axis.z = vector.axis.z * scalar;
 800195e:	f507 731c 	add.w	r3, r7, #624	; 0x270
 8001962:	ed93 7a02 	vldr	s14, [r3, #8]
 8001966:	edd7 7afb 	vldr	s15, [r7, #1004]	; 0x3ec
 800196a:	ee67 7a27 	vmul.f32	s15, s14, s15
 800196e:	f507 7319 	add.w	r3, r7, #612	; 0x264
 8001972:	edc3 7a02 	vstr	s15, [r3, #8]
    return result;
 8001976:	f507 7219 	add.w	r2, r7, #612	; 0x264
 800197a:	f507 7374 	add.w	r3, r7, #976	; 0x3d0
 800197e:	ca07      	ldmia	r2, {r0, r1, r2}
 8001980:	e883 0007 	stmia.w	r3, {r0, r1, r2}
 8001984:	f507 733d 	add.w	r3, r7, #756	; 0x2f4
 8001988:	461c      	mov	r4, r3
 800198a:	f507 7374 	add.w	r3, r7, #976	; 0x3d0
 800198e:	e893 0007 	ldmia.w	r3, {r0, r1, r2}
 8001992:	e884 0007 	stmia.w	r4, {r0, r1, r2}
 8001996:	f507 7313 	add.w	r3, r7, #588	; 0x24c
 800199a:	f507 7228 	add.w	r2, r7, #672	; 0x2a0
 800199e:	ca07      	ldmia	r2, {r0, r1, r2}
 80019a0:	e883 0007 	stmia.w	r3, {r0, r1, r2}
 80019a4:	f507 7316 	add.w	r3, r7, #600	; 0x258
 80019a8:	f507 723d 	add.w	r2, r7, #756	; 0x2f4
 80019ac:	ca07      	ldmia	r2, {r0, r1, r2}
 80019ae:	e883 0007 	stmia.w	r3, {r0, r1, r2}
    result.axis.x = vectorA.axis.x + vectorB.axis.x;
 80019b2:	f507 7313 	add.w	r3, r7, #588	; 0x24c
 80019b6:	ed93 7a00 	vldr	s14, [r3]
 80019ba:	f507 7316 	add.w	r3, r7, #600	; 0x258
 80019be:	edd3 7a00 	vldr	s15, [r3]
 80019c2:	ee77 7a27 	vadd.f32	s15, s14, s15
 80019c6:	f507 7310 	add.w	r3, r7, #576	; 0x240
 80019ca:	edc3 7a00 	vstr	s15, [r3]
    result.axis.y = vectorA.axis.y + vectorB.axis.y;
 80019ce:	f507 7313 	add.w	r3, r7, #588	; 0x24c
 80019d2:	ed93 7a01 	vldr	s14, [r3, #4]
 80019d6:	f507 7316 	add.w	r3, r7, #600	; 0x258
 80019da:	edd3 7a01 	vldr	s15, [r3, #4]
 80019de:	ee77 7a27 	vadd.f32	s15, s14, s15
 80019e2:	f507 7310 	add.w	r3, r7, #576	; 0x240
 80019e6:	edc3 7a01 	vstr	s15, [r3, #4]
    result.axis.z = vectorA.axis.z + vectorB.axis.z;
 80019ea:	f507 7313 	add.w	r3, r7, #588	; 0x24c
 80019ee:	ed93 7a02 	vldr	s14, [r3, #8]
 80019f2:	f507 7316 	add.w	r3, r7, #600	; 0x258
 80019f6:	edd3 7a02 	vldr	s15, [r3, #8]
 80019fa:	ee77 7a27 	vadd.f32	s15, s14, s15
 80019fe:	f507 7310 	add.w	r3, r7, #576	; 0x240
 8001a02:	edc3 7a02 	vstr	s15, [r3, #8]
    return result;
 8001a06:	f507 7210 	add.w	r2, r7, #576	; 0x240
 8001a0a:	f507 7371 	add.w	r3, r7, #964	; 0x3c4
 8001a0e:	ca07      	ldmia	r2, {r0, r1, r2}
 8001a10:	e883 0007 	stmia.w	r3, {r0, r1, r2}
 8001a14:	f507 7328 	add.w	r3, r7, #672	; 0x2a0
 8001a18:	461c      	mov	r4, r3
 8001a1a:	f507 7371 	add.w	r3, r7, #964	; 0x3c4
 8001a1e:	e893 0007 	ldmia.w	r3, {r0, r1, r2}
 8001a22:	e884 0007 	stmia.w	r4, {r0, r1, r2}
 8001a26:	f507 730d 	add.w	r3, r7, #564	; 0x234
 8001a2a:	f507 7228 	add.w	r2, r7, #672	; 0x2a0
 8001a2e:	ca07      	ldmia	r2, {r0, r1, r2}
 8001a30:	e883 0007 	stmia.w	r3, {r0, r1, r2}
 8001a34:	1d3b      	adds	r3, r7, #4
 8001a36:	681b      	ldr	r3, [r3, #0]
 8001a38:	f8c7 33f0 	str.w	r3, [r7, #1008]	; 0x3f0
    result.axis.x = vector.axis.x * scalar;
 8001a3c:	f507 730d 	add.w	r3, r7, #564	; 0x234
 8001a40:	ed93 7a00 	vldr	s14, [r3]
 8001a44:	edd7 7afc 	vldr	s15, [r7, #1008]	; 0x3f0
 8001a48:	ee67 7a27 	vmul.f32	s15, s14, s15
 8001a4c:	f507 730a 	add.w	r3, r7, #552	; 0x228
 8001a50:	edc3 7a00 	vstr	s15, [r3]
    result.axis.y = vector.axis.y * scalar;
 8001a54:	f507 730d 	add.w	r3, r7, #564	; 0x234
 8001a58:	ed93 7a01 	vldr	s14, [r3, #4]
 8001a5c:	edd7 7afc 	vldr	s15, [r7, #1008]	; 0x3f0
 8001a60:	ee67 7a27 	vmul.f32	s15, s14, s15
 8001a64:	f507 730a 	add.w	r3, r7, #552	; 0x228
 8001a68:	edc3 7a01 	vstr	s15, [r3, #4]
    result.axis.z = vector.axis.z * scalar;
 8001a6c:	f507 730d 	add.w	r3, r7, #564	; 0x234
 8001a70:	ed93 7a02 	vldr	s14, [r3, #8]
 8001a74:	edd7 7afc 	vldr	s15, [r7, #1008]	; 0x3f0
 8001a78:	ee67 7a27 	vmul.f32	s15, s14, s15
 8001a7c:	f507 730a 	add.w	r3, r7, #552	; 0x228
 8001a80:	edc3 7a02 	vstr	s15, [r3, #8]
    return result;
 8001a84:	f507 720a 	add.w	r2, r7, #552	; 0x228
 8001a88:	f507 736e 	add.w	r3, r7, #952	; 0x3b8
 8001a8c:	ca07      	ldmia	r2, {r0, r1, r2}
 8001a8e:	e883 0007 	stmia.w	r3, {r0, r1, r2}
 8001a92:	f507 7340 	add.w	r3, r7, #768	; 0x300
 8001a96:	461c      	mov	r4, r3
 8001a98:	f507 736e 	add.w	r3, r7, #952	; 0x3b8
 8001a9c:	e893 0007 	ldmia.w	r3, {r0, r1, r2}
 8001aa0:	e884 0007 	stmia.w	r4, {r0, r1, r2}
 8001aa4:	f507 7203 	add.w	r2, r7, #524	; 0x20c
 8001aa8:	f107 032c 	add.w	r3, r7, #44	; 0x2c
 8001aac:	681b      	ldr	r3, [r3, #0]
 8001aae:	4614      	mov	r4, r2
 8001ab0:	330c      	adds	r3, #12
 8001ab2:	cb0f      	ldmia	r3, {r0, r1, r2, r3}
 8001ab4:	e884 000f 	stmia.w	r4, {r0, r1, r2, r3}
 8001ab8:	f507 7307 	add.w	r3, r7, #540	; 0x21c
 8001abc:	f507 7240 	add.w	r2, r7, #768	; 0x300
 8001ac0:	ca07      	ldmia	r2, {r0, r1, r2}
 8001ac2:	e883 0007 	stmia.w	r3, {r0, r1, r2}
 */
static inline __attribute__((always_inline)) FusionQuaternion FusionQuaternionMultiplyVector(const FusionQuaternion quaternion, const FusionVector3 vector) {
#define Q quaternion.element // define shorthand labels for more readable code
#define V vector.axis
    FusionQuaternion result;
    result.element.w = -Q.x * V.x - Q.y * V.y - Q.z * V.z;
 8001ac6:	f507 7303 	add.w	r3, r7, #524	; 0x20c
 8001aca:	edd3 7a01 	vldr	s15, [r3, #4]
 8001ace:	eeb1 7a67 	vneg.f32	s14, s15
 8001ad2:	f507 7307 	add.w	r3, r7, #540	; 0x21c
 8001ad6:	edd3 7a00 	vldr	s15, [r3]
 8001ada:	ee27 7a27 	vmul.f32	s14, s14, s15
 8001ade:	f507 7303 	add.w	r3, r7, #524	; 0x20c
 8001ae2:	edd3 6a02 	vldr	s13, [r3, #8]
 8001ae6:	f507 7307 	add.w	r3, r7, #540	; 0x21c
 8001aea:	edd3 7a01 	vldr	s15, [r3, #4]
 8001aee:	ee66 7aa7 	vmul.f32	s15, s13, s15
 8001af2:	ee37 7a67 	vsub.f32	s14, s14, s15
 8001af6:	f507 7303 	add.w	r3, r7, #524	; 0x20c
 8001afa:	edd3 6a03 	vldr	s13, [r3, #12]
 8001afe:	f507 7307 	add.w	r3, r7, #540	; 0x21c
 8001b02:	edd3 7a02 	vldr	s15, [r3, #8]
 8001b06:	ee66 7aa7 	vmul.f32	s15, s13, s15
 8001b0a:	ee77 7a67 	vsub.f32	s15, s14, s15
 8001b0e:	f507 73fe 	add.w	r3, r7, #508	; 0x1fc
 8001b12:	edc3 7a00 	vstr	s15, [r3]
    result.element.x = Q.w * V.x + Q.y * V.z - Q.z * V.y;
 8001b16:	f507 7303 	add.w	r3, r7, #524	; 0x20c
 8001b1a:	ed93 7a00 	vldr	s14, [r3]
 8001b1e:	f507 7307 	add.w	r3, r7, #540	; 0x21c
 8001b22:	edd3 7a00 	vldr	s15, [r3]
 8001b26:	ee27 7a27 	vmul.f32	s14, s14, s15
 8001b2a:	f507 7303 	add.w	r3, r7, #524	; 0x20c
 8001b2e:	edd3 6a02 	vldr	s13, [r3, #8]
 8001b32:	f507 7307 	add.w	r3, r7, #540	; 0x21c
 8001b36:	edd3 7a02 	vldr	s15, [r3, #8]
 8001b3a:	ee66 7aa7 	vmul.f32	s15, s13, s15
 8001b3e:	ee37 7a27 	vadd.f32	s14, s14, s15
 8001b42:	f507 7303 	add.w	r3, r7, #524	; 0x20c
 8001b46:	edd3 6a03 	vldr	s13, [r3, #12]
 8001b4a:	f507 7307 	add.w	r3, r7, #540	; 0x21c
 8001b4e:	edd3 7a01 	vldr	s15, [r3, #4]
 8001b52:	ee66 7aa7 	vmul.f32	s15, s13, s15
 8001b56:	ee77 7a67 	vsub.f32	s15, s14, s15
 8001b5a:	f507 73fe 	add.w	r3, r7, #508	; 0x1fc
 8001b5e:	edc3 7a01 	vstr	s15, [r3, #4]
    result.element.y = Q.w * V.y - Q.x * V.z + Q.z * V.x;
 8001b62:	f507 7303 	add.w	r3, r7, #524	; 0x20c
 8001b66:	ed93 7a00 	vldr	s14, [r3]
 8001b6a:	f507 7307 	add.w	r3, r7, #540	; 0x21c
 8001b6e:	edd3 7a01 	vldr	s15, [r3, #4]
 8001b72:	ee27 7a27 	vmul.f32	s14, s14, s15
 8001b76:	f507 7303 	add.w	r3, r7, #524	; 0x20c
 8001b7a:	edd3 6a01 	vldr	s13, [r3, #4]
 8001b7e:	f507 7307 	add.w	r3, r7, #540	; 0x21c
 8001b82:	edd3 7a02 	vldr	s15, [r3, #8]
 8001b86:	ee66 7aa7 	vmul.f32	s15, s13, s15
 8001b8a:	ee37 7a67 	vsub.f32	s14, s14, s15
 8001b8e:	f507 7303 	add.w	r3, r7, #524	; 0x20c
 8001b92:	edd3 6a03 	vldr	s13, [r3, #12]
 8001b96:	f507 7307 	add.w	r3, r7, #540	; 0x21c
 8001b9a:	edd3 7a00 	vldr	s15, [r3]
 8001b9e:	ee66 7aa7 	vmul.f32	s15, s13, s15
 8001ba2:	ee77 7a27 	vadd.f32	s15, s14, s15
 8001ba6:	f507 73fe 	add.w	r3, r7, #508	; 0x1fc
 8001baa:	edc3 7a02 	vstr	s15, [r3, #8]
    result.element.z = Q.w * V.z + Q.x * V.y - Q.y * V.x;
 8001bae:	f507 7303 	add.w	r3, r7, #524	; 0x20c
 8001bb2:	ed93 7a00 	vldr	s14, [r3]
 8001bb6:	f507 7307 	add.w	r3, r7, #540	; 0x21c
 8001bba:	edd3 7a02 	vldr	s15, [r3, #8]
 8001bbe:	ee27 7a27 	vmul.f32	s14, s14, s15
 8001bc2:	f507 7303 	add.w	r3, r7, #524	; 0x20c
 8001bc6:	edd3 6a01 	vldr	s13, [r3, #4]
 8001bca:	f507 7307 	add.w	r3, r7, #540	; 0x21c
 8001bce:	edd3 7a01 	vldr	s15, [r3, #4]
 8001bd2:	ee66 7aa7 	vmul.f32	s15, s13, s15
 8001bd6:	ee37 7a27 	vadd.f32	s14, s14, s15
 8001bda:	f507 7303 	add.w	r3, r7, #524	; 0x20c
 8001bde:	edd3 6a02 	vldr	s13, [r3, #8]
 8001be2:	f507 7307 	add.w	r3, r7, #540	; 0x21c
 8001be6:	edd3 7a00 	vldr	s15, [r3]
 8001bea:	ee66 7aa7 	vmul.f32	s15, s13, s15
 8001bee:	ee77 7a67 	vsub.f32	s15, s14, s15
 8001bf2:	f507 73fe 	add.w	r3, r7, #508	; 0x1fc
 8001bf6:	edc3 7a03 	vstr	s15, [r3, #12]
    return result;
 8001bfa:	f507 73fe 	add.w	r3, r7, #508	; 0x1fc
 8001bfe:	f507 746a 	add.w	r4, r7, #936	; 0x3a8
 8001c02:	cb0f      	ldmia	r3, {r0, r1, r2, r3}
 8001c04:	e884 000f 	stmia.w	r4, {r0, r1, r2, r3}
 8001c08:	f507 7343 	add.w	r3, r7, #780	; 0x30c
 8001c0c:	461c      	mov	r4, r3
 8001c0e:	f507 736a 	add.w	r3, r7, #936	; 0x3a8
 8001c12:	cb0f      	ldmia	r3, {r0, r1, r2, r3}
 8001c14:	e884 000f 	stmia.w	r4, {r0, r1, r2, r3}
 8001c18:	f507 72ee 	add.w	r2, r7, #476	; 0x1dc
 8001c1c:	f107 032c 	add.w	r3, r7, #44	; 0x2c
 8001c20:	681b      	ldr	r3, [r3, #0]
 8001c22:	4614      	mov	r4, r2
 8001c24:	330c      	adds	r3, #12
 8001c26:	cb0f      	ldmia	r3, {r0, r1, r2, r3}
 8001c28:	e884 000f 	stmia.w	r4, {r0, r1, r2, r3}
 8001c2c:	f507 72f6 	add.w	r2, r7, #492	; 0x1ec
 8001c30:	f507 7343 	add.w	r3, r7, #780	; 0x30c
 8001c34:	4614      	mov	r4, r2
 8001c36:	cb0f      	ldmia	r3, {r0, r1, r2, r3}
 8001c38:	e884 000f 	stmia.w	r4, {r0, r1, r2, r3}
    result.element.w = quaternionA.element.w + quaternionB.element.w;
 8001c3c:	f507 73ee 	add.w	r3, r7, #476	; 0x1dc
 8001c40:	ed93 7a00 	vldr	s14, [r3]
 8001c44:	f507 73f6 	add.w	r3, r7, #492	; 0x1ec
 8001c48:	edd3 7a00 	vldr	s15, [r3]
 8001c4c:	ee77 7a27 	vadd.f32	s15, s14, s15
 8001c50:	f507 73de 	add.w	r3, r7, #444	; 0x1bc
 8001c54:	edc3 7a00 	vstr	s15, [r3]
    result.element.x = quaternionA.element.x + quaternionB.element.x;
 8001c58:	f507 73ee 	add.w	r3, r7, #476	; 0x1dc
 8001c5c:	ed93 7a01 	vldr	s14, [r3, #4]
 8001c60:	f507 73f6 	add.w	r3, r7, #492	; 0x1ec
 8001c64:	edd3 7a01 	vldr	s15, [r3, #4]
 8001c68:	ee77 7a27 	vadd.f32	s15, s14, s15
 8001c6c:	f507 73de 	add.w	r3, r7, #444	; 0x1bc
 8001c70:	edc3 7a01 	vstr	s15, [r3, #4]
    result.element.y = quaternionA.element.y + quaternionB.element.y;
 8001c74:	f507 73ee 	add.w	r3, r7, #476	; 0x1dc
 8001c78:	ed93 7a02 	vldr	s14, [r3, #8]
 8001c7c:	f507 73f6 	add.w	r3, r7, #492	; 0x1ec
 8001c80:	edd3 7a02 	vldr	s15, [r3, #8]
 8001c84:	ee77 7a27 	vadd.f32	s15, s14, s15
 8001c88:	f507 73de 	add.w	r3, r7, #444	; 0x1bc
 8001c8c:	edc3 7a02 	vstr	s15, [r3, #8]
    result.element.z = quaternionA.element.z + quaternionB.element.z;
 8001c90:	f507 73ee 	add.w	r3, r7, #476	; 0x1dc
 8001c94:	ed93 7a03 	vldr	s14, [r3, #12]
 8001c98:	f507 73f6 	add.w	r3, r7, #492	; 0x1ec
 8001c9c:	edd3 7a03 	vldr	s15, [r3, #12]
 8001ca0:	ee77 7a27 	vadd.f32	s15, s14, s15
 8001ca4:	f507 73de 	add.w	r3, r7, #444	; 0x1bc
 8001ca8:	edc3 7a03 	vstr	s15, [r3, #12]
    return result;
 8001cac:	f507 73de 	add.w	r3, r7, #444	; 0x1bc
 8001cb0:	f507 7466 	add.w	r4, r7, #920	; 0x398
 8001cb4:	cb0f      	ldmia	r3, {r0, r1, r2, r3}
 8001cb6:	e884 000f 	stmia.w	r4, {r0, r1, r2, r3}
 8001cba:	f507 73e6 	add.w	r3, r7, #460	; 0x1cc
 8001cbe:	461c      	mov	r4, r3
 8001cc0:	f507 7366 	add.w	r3, r7, #920	; 0x398
 8001cc4:	cb0f      	ldmia	r3, {r0, r1, r2, r3}
 8001cc6:	e884 000f 	stmia.w	r4, {r0, r1, r2, r3}

    // Apply feedback to gyroscope
    halfGyroscope = FusionVectorAdd(halfGyroscope, FusionVectorMultiplyScalar(halfFeedbackError, feedbackGain));

    // Integrate rate of change of quaternion
    fusionAhrs->quaternion = FusionQuaternionAdd(fusionAhrs->quaternion, FusionQuaternionMultiplyVector(fusionAhrs->quaternion, FusionVectorMultiplyScalar(halfGyroscope, samplePeriod)));
 8001cca:	f107 032c 	add.w	r3, r7, #44	; 0x2c
 8001cce:	681b      	ldr	r3, [r3, #0]
 8001cd0:	f507 72e6 	add.w	r2, r7, #460	; 0x1cc
 8001cd4:	f103 040c 	add.w	r4, r3, #12
 8001cd8:	4613      	mov	r3, r2
 8001cda:	cb0f      	ldmia	r3, {r0, r1, r2, r3}
 8001cdc:	e884 000f 	stmia.w	r4, {r0, r1, r2, r3}
 8001ce0:	f507 72d6 	add.w	r2, r7, #428	; 0x1ac
 8001ce4:	f107 032c 	add.w	r3, r7, #44	; 0x2c
 8001ce8:	681b      	ldr	r3, [r3, #0]
 8001cea:	4614      	mov	r4, r2
 8001cec:	330c      	adds	r3, #12
 8001cee:	cb0f      	ldmia	r3, {r0, r1, r2, r3}
 8001cf0:	e884 000f 	stmia.w	r4, {r0, r1, r2, r3}
 * @param quaternion Quaternion to be normalised.
 * @return Normalised quaternion.
 */
static inline __attribute__((always_inline)) FusionQuaternion FusionQuaternionFastNormalise(const FusionQuaternion quaternion) {
#define Q quaternion.element // define shorthand label for more readable code
    const float magnitudeReciprocal = FusionFastInverseSqrt(Q.w * Q.w + Q.x * Q.x + Q.y * Q.y + Q.z * Q.z);
 8001cf4:	f507 73d6 	add.w	r3, r7, #428	; 0x1ac
 8001cf8:	ed93 7a00 	vldr	s14, [r3]
 8001cfc:	f507 73d6 	add.w	r3, r7, #428	; 0x1ac
 8001d00:	edd3 7a00 	vldr	s15, [r3]
 8001d04:	ee27 7a27 	vmul.f32	s14, s14, s15
 8001d08:	f507 73d6 	add.w	r3, r7, #428	; 0x1ac
 8001d0c:	edd3 6a01 	vldr	s13, [r3, #4]
 8001d10:	f507 73d6 	add.w	r3, r7, #428	; 0x1ac
 8001d14:	edd3 7a01 	vldr	s15, [r3, #4]
 8001d18:	ee66 7aa7 	vmul.f32	s15, s13, s15
 8001d1c:	ee37 7a27 	vadd.f32	s14, s14, s15
 8001d20:	f507 73d6 	add.w	r3, r7, #428	; 0x1ac
 8001d24:	edd3 6a02 	vldr	s13, [r3, #8]
 8001d28:	f507 73d6 	add.w	r3, r7, #428	; 0x1ac
 8001d2c:	edd3 7a02 	vldr	s15, [r3, #8]
 8001d30:	ee66 7aa7 	vmul.f32	s15, s13, s15
 8001d34:	ee37 7a27 	vadd.f32	s14, s14, s15
 8001d38:	f507 73d6 	add.w	r3, r7, #428	; 0x1ac
 8001d3c:	edd3 6a03 	vldr	s13, [r3, #12]
 8001d40:	f507 73d6 	add.w	r3, r7, #428	; 0x1ac
 8001d44:	edd3 7a03 	vldr	s15, [r3, #12]
 8001d48:	ee66 7aa7 	vmul.f32	s15, s13, s15
 8001d4c:	ee77 7a27 	vadd.f32	s15, s14, s15
 8001d50:	edc7 7aff 	vstr	s15, [r7, #1020]	; 0x3fc
    float halfx = 0.5f * x;
 8001d54:	edd7 7aff 	vldr	s15, [r7, #1020]	; 0x3fc
 8001d58:	eeb6 7a00 	vmov.f32	s14, #96	; 0x3f000000  0.5
 8001d5c:	ee67 7a87 	vmul.f32	s15, s15, s14
 8001d60:	edc7 7afe 	vstr	s15, [r7, #1016]	; 0x3f8
    float y = x;
 8001d64:	f507 73c4 	add.w	r3, r7, #392	; 0x188
 8001d68:	f8d7 23fc 	ldr.w	r2, [r7, #1020]	; 0x3fc
 8001d6c:	601a      	str	r2, [r3, #0]
    int32_t i = *(int32_t*) & y;
 8001d6e:	f507 73c4 	add.w	r3, r7, #392	; 0x188
 8001d72:	681a      	ldr	r2, [r3, #0]
 8001d74:	f507 73c2 	add.w	r3, r7, #388	; 0x184
 8001d78:	601a      	str	r2, [r3, #0]
    i = 0x5f3759df - (i >> 1);
 8001d7a:	f507 73c2 	add.w	r3, r7, #388	; 0x184
 8001d7e:	681b      	ldr	r3, [r3, #0]
 8001d80:	105a      	asrs	r2, r3, #1
 8001d82:	4b98      	ldr	r3, [pc, #608]	; (8001fe4 <FusionAhrsUpdate+0x110c>)
 8001d84:	1a9b      	subs	r3, r3, r2
 8001d86:	f507 72c2 	add.w	r2, r7, #388	; 0x184
 8001d8a:	6013      	str	r3, [r2, #0]
    y = *(float*) &i;
 8001d8c:	f507 73c2 	add.w	r3, r7, #388	; 0x184
 8001d90:	681a      	ldr	r2, [r3, #0]
 8001d92:	f507 73c4 	add.w	r3, r7, #392	; 0x188
 8001d96:	601a      	str	r2, [r3, #0]
    y = y * (1.5f - (halfx * y * y));
 8001d98:	f507 73c4 	add.w	r3, r7, #392	; 0x188
 8001d9c:	ed93 7a00 	vldr	s14, [r3]
 8001da0:	edd7 7afe 	vldr	s15, [r7, #1016]	; 0x3f8
 8001da4:	ee27 7a27 	vmul.f32	s14, s14, s15
 8001da8:	f507 73c4 	add.w	r3, r7, #392	; 0x188
 8001dac:	edd3 7a00 	vldr	s15, [r3]
 8001db0:	ee67 7a27 	vmul.f32	s15, s14, s15
 8001db4:	eeb7 7a08 	vmov.f32	s14, #120	; 0x3fc00000  1.5
 8001db8:	ee37 7a67 	vsub.f32	s14, s14, s15
 8001dbc:	f507 73c4 	add.w	r3, r7, #392	; 0x188
 8001dc0:	edd3 7a00 	vldr	s15, [r3]
 8001dc4:	ee67 7a27 	vmul.f32	s15, s14, s15
 8001dc8:	f507 73c4 	add.w	r3, r7, #392	; 0x188
 8001dcc:	edc3 7a00 	vstr	s15, [r3]
    return y;
 8001dd0:	f507 73c4 	add.w	r3, r7, #392	; 0x188
 8001dd4:	681b      	ldr	r3, [r3, #0]
    const float magnitudeReciprocal = FusionFastInverseSqrt(Q.w * Q.w + Q.x * Q.x + Q.y * Q.y + Q.z * Q.z);
 8001dd6:	f8c7 33f4 	str.w	r3, [r7, #1012]	; 0x3f4
    FusionQuaternion normalisedQuaternion;
    normalisedQuaternion.element.w = Q.w * magnitudeReciprocal;
 8001dda:	f507 73d6 	add.w	r3, r7, #428	; 0x1ac
 8001dde:	ed93 7a00 	vldr	s14, [r3]
 8001de2:	edd7 7afd 	vldr	s15, [r7, #1012]	; 0x3f4
 8001de6:	ee67 7a27 	vmul.f32	s15, s14, s15
 8001dea:	f507 73c6 	add.w	r3, r7, #396	; 0x18c
 8001dee:	edc3 7a00 	vstr	s15, [r3]
    normalisedQuaternion.element.x = Q.x * magnitudeReciprocal;
 8001df2:	f507 73d6 	add.w	r3, r7, #428	; 0x1ac
 8001df6:	ed93 7a01 	vldr	s14, [r3, #4]
 8001dfa:	edd7 7afd 	vldr	s15, [r7, #1012]	; 0x3f4
 8001dfe:	ee67 7a27 	vmul.f32	s15, s14, s15
 8001e02:	f507 73c6 	add.w	r3, r7, #396	; 0x18c
 8001e06:	edc3 7a01 	vstr	s15, [r3, #4]
    normalisedQuaternion.element.y = Q.y * magnitudeReciprocal;
 8001e0a:	f507 73d6 	add.w	r3, r7, #428	; 0x1ac
 8001e0e:	ed93 7a02 	vldr	s14, [r3, #8]
 8001e12:	edd7 7afd 	vldr	s15, [r7, #1012]	; 0x3f4
 8001e16:	ee67 7a27 	vmul.f32	s15, s14, s15
 8001e1a:	f507 73c6 	add.w	r3, r7, #396	; 0x18c
 8001e1e:	edc3 7a02 	vstr	s15, [r3, #8]
    normalisedQuaternion.element.z = Q.z * magnitudeReciprocal;
 8001e22:	f507 73d6 	add.w	r3, r7, #428	; 0x1ac
 8001e26:	ed93 7a03 	vldr	s14, [r3, #12]
 8001e2a:	edd7 7afd 	vldr	s15, [r7, #1012]	; 0x3f4
 8001e2e:	ee67 7a27 	vmul.f32	s15, s14, s15
 8001e32:	f507 73c6 	add.w	r3, r7, #396	; 0x18c
 8001e36:	edc3 7a03 	vstr	s15, [r3, #12]
    return normalisedQuaternion;
 8001e3a:	f507 73c6 	add.w	r3, r7, #396	; 0x18c
 8001e3e:	f507 7462 	add.w	r4, r7, #904	; 0x388
 8001e42:	cb0f      	ldmia	r3, {r0, r1, r2, r3}
 8001e44:	e884 000f 	stmia.w	r4, {r0, r1, r2, r3}
 8001e48:	f507 73ce 	add.w	r3, r7, #412	; 0x19c
 8001e4c:	461c      	mov	r4, r3
 8001e4e:	f507 7362 	add.w	r3, r7, #904	; 0x388
 8001e52:	cb0f      	ldmia	r3, {r0, r1, r2, r3}
 8001e54:	e884 000f 	stmia.w	r4, {r0, r1, r2, r3}

    // Normalise quaternion
    fusionAhrs->quaternion = FusionQuaternionFastNormalise(fusionAhrs->quaternion);
 8001e58:	f107 032c 	add.w	r3, r7, #44	; 0x2c
 8001e5c:	681b      	ldr	r3, [r3, #0]
 8001e5e:	f507 72ce 	add.w	r2, r7, #412	; 0x19c
 8001e62:	f103 040c 	add.w	r4, r3, #12
 8001e66:	4613      	mov	r3, r2
 8001e68:	cb0f      	ldmia	r3, {r0, r1, r2, r3}
 8001e6a:	e884 000f 	stmia.w	r4, {r0, r1, r2, r3}

    // Calculate linear acceleration
    const FusionVector3 gravity = {
        .axis.x = 2.0f * (Q.x * Q.z - Q.w * Q.y),
 8001e6e:	f107 032c 	add.w	r3, r7, #44	; 0x2c
 8001e72:	681b      	ldr	r3, [r3, #0]
 8001e74:	ed93 7a04 	vldr	s14, [r3, #16]
 8001e78:	f107 032c 	add.w	r3, r7, #44	; 0x2c
 8001e7c:	681b      	ldr	r3, [r3, #0]
 8001e7e:	edd3 7a06 	vldr	s15, [r3, #24]
 8001e82:	ee27 7a27 	vmul.f32	s14, s14, s15
 8001e86:	f107 032c 	add.w	r3, r7, #44	; 0x2c
 8001e8a:	681b      	ldr	r3, [r3, #0]
 8001e8c:	edd3 6a03 	vldr	s13, [r3, #12]
 8001e90:	f107 032c 	add.w	r3, r7, #44	; 0x2c
 8001e94:	681b      	ldr	r3, [r3, #0]
 8001e96:	edd3 7a05 	vldr	s15, [r3, #20]
 8001e9a:	ee66 7aa7 	vmul.f32	s15, s13, s15
 8001e9e:	ee77 7a67 	vsub.f32	s15, s14, s15
 8001ea2:	ee77 7aa7 	vadd.f32	s15, s15, s15
    const FusionVector3 gravity = {
 8001ea6:	f507 7325 	add.w	r3, r7, #660	; 0x294
 8001eaa:	edc3 7a00 	vstr	s15, [r3]
        .axis.y = 2.0f * (Q.w * Q.x + Q.y * Q.z),
 8001eae:	f107 032c 	add.w	r3, r7, #44	; 0x2c
 8001eb2:	681b      	ldr	r3, [r3, #0]
 8001eb4:	ed93 7a03 	vldr	s14, [r3, #12]
 8001eb8:	f107 032c 	add.w	r3, r7, #44	; 0x2c
 8001ebc:	681b      	ldr	r3, [r3, #0]
 8001ebe:	edd3 7a04 	vldr	s15, [r3, #16]
 8001ec2:	ee27 7a27 	vmul.f32	s14, s14, s15
 8001ec6:	f107 032c 	add.w	r3, r7, #44	; 0x2c
 8001eca:	681b      	ldr	r3, [r3, #0]
 8001ecc:	edd3 6a05 	vldr	s13, [r3, #20]
 8001ed0:	f107 032c 	add.w	r3, r7, #44	; 0x2c
 8001ed4:	681b      	ldr	r3, [r3, #0]
 8001ed6:	edd3 7a06 	vldr	s15, [r3, #24]
 8001eda:	ee66 7aa7 	vmul.f32	s15, s13, s15
 8001ede:	ee77 7a27 	vadd.f32	s15, s14, s15
 8001ee2:	ee77 7aa7 	vadd.f32	s15, s15, s15
    const FusionVector3 gravity = {
 8001ee6:	f507 7325 	add.w	r3, r7, #660	; 0x294
 8001eea:	edc3 7a01 	vstr	s15, [r3, #4]
        .axis.z = 2.0f * (Q.w * Q.w - 0.5f + Q.z * Q.z),
 8001eee:	f107 032c 	add.w	r3, r7, #44	; 0x2c
 8001ef2:	681b      	ldr	r3, [r3, #0]
 8001ef4:	ed93 7a03 	vldr	s14, [r3, #12]
 8001ef8:	f107 032c 	add.w	r3, r7, #44	; 0x2c
 8001efc:	681b      	ldr	r3, [r3, #0]
 8001efe:	edd3 7a03 	vldr	s15, [r3, #12]
 8001f02:	ee67 7a27 	vmul.f32	s15, s14, s15
 8001f06:	eeb6 7a00 	vmov.f32	s14, #96	; 0x3f000000  0.5
 8001f0a:	ee37 7ac7 	vsub.f32	s14, s15, s14
 8001f0e:	f107 032c 	add.w	r3, r7, #44	; 0x2c
 8001f12:	681b      	ldr	r3, [r3, #0]
 8001f14:	edd3 6a06 	vldr	s13, [r3, #24]
 8001f18:	f107 032c 	add.w	r3, r7, #44	; 0x2c
 8001f1c:	681b      	ldr	r3, [r3, #0]
 8001f1e:	edd3 7a06 	vldr	s15, [r3, #24]
 8001f22:	ee66 7aa7 	vmul.f32	s15, s13, s15
 8001f26:	ee77 7a27 	vadd.f32	s15, s14, s15
 8001f2a:	ee77 7aa7 	vadd.f32	s15, s15, s15
    const FusionVector3 gravity = {
 8001f2e:	f507 7325 	add.w	r3, r7, #660	; 0x294
 8001f32:	edc3 7a02 	vstr	s15, [r3, #8]
 8001f36:	f507 73b6 	add.w	r3, r7, #364	; 0x16c
 8001f3a:	f107 0214 	add.w	r2, r7, #20
 8001f3e:	ca07      	ldmia	r2, {r0, r1, r2}
 8001f40:	e883 0007 	stmia.w	r3, {r0, r1, r2}
 8001f44:	f507 73bc 	add.w	r3, r7, #376	; 0x178
 8001f48:	f507 7225 	add.w	r2, r7, #660	; 0x294
 8001f4c:	ca07      	ldmia	r2, {r0, r1, r2}
 8001f4e:	e883 0007 	stmia.w	r3, {r0, r1, r2}
    result.axis.x = vectorA.axis.x - vectorB.axis.x;
 8001f52:	f507 73b6 	add.w	r3, r7, #364	; 0x16c
 8001f56:	ed93 7a00 	vldr	s14, [r3]
 8001f5a:	f507 73bc 	add.w	r3, r7, #376	; 0x178
 8001f5e:	edd3 7a00 	vldr	s15, [r3]
 8001f62:	ee77 7a67 	vsub.f32	s15, s14, s15
 8001f66:	f507 73aa 	add.w	r3, r7, #340	; 0x154
 8001f6a:	edc3 7a00 	vstr	s15, [r3]
    result.axis.y = vectorA.axis.y - vectorB.axis.y;
 8001f6e:	f507 73b6 	add.w	r3, r7, #364	; 0x16c
 8001f72:	ed93 7a01 	vldr	s14, [r3, #4]
 8001f76:	f507 73bc 	add.w	r3, r7, #376	; 0x178
 8001f7a:	edd3 7a01 	vldr	s15, [r3, #4]
 8001f7e:	ee77 7a67 	vsub.f32	s15, s14, s15
 8001f82:	f507 73aa 	add.w	r3, r7, #340	; 0x154
 8001f86:	edc3 7a01 	vstr	s15, [r3, #4]
    result.axis.z = vectorA.axis.z - vectorB.axis.z;
 8001f8a:	f507 73b6 	add.w	r3, r7, #364	; 0x16c
 8001f8e:	ed93 7a02 	vldr	s14, [r3, #8]
 8001f92:	f507 73bc 	add.w	r3, r7, #376	; 0x178
 8001f96:	edd3 7a02 	vldr	s15, [r3, #8]
 8001f9a:	ee77 7a67 	vsub.f32	s15, s14, s15
 8001f9e:	f507 73aa 	add.w	r3, r7, #340	; 0x154
 8001fa2:	edc3 7a02 	vstr	s15, [r3, #8]
    return result;
 8001fa6:	f507 72aa 	add.w	r2, r7, #340	; 0x154
 8001faa:	f507 735f 	add.w	r3, r7, #892	; 0x37c
 8001fae:	ca07      	ldmia	r2, {r0, r1, r2}
 8001fb0:	e883 0007 	stmia.w	r3, {r0, r1, r2}
 8001fb4:	f507 73b0 	add.w	r3, r7, #352	; 0x160
 8001fb8:	461c      	mov	r4, r3
 8001fba:	f507 735f 	add.w	r3, r7, #892	; 0x37c
 8001fbe:	e893 0007 	ldmia.w	r3, {r0, r1, r2}
 8001fc2:	e884 0007 	stmia.w	r4, {r0, r1, r2}
    }; // equal to 3rd column of rotation matrix representation
    fusionAhrs->linearAcceleration = FusionVectorSubtract(accelerometer, gravity);
 8001fc6:	f107 032c 	add.w	r3, r7, #44	; 0x2c
 8001fca:	681b      	ldr	r3, [r3, #0]
 8001fcc:	f507 72b0 	add.w	r2, r7, #352	; 0x160
 8001fd0:	331c      	adds	r3, #28
 8001fd2:	ca07      	ldmia	r2, {r0, r1, r2}
 8001fd4:	e883 0007 	stmia.w	r3, {r0, r1, r2}

#undef Q // undefine shorthand label
}
 8001fd8:	bf00      	nop
 8001fda:	f507 6785 	add.w	r7, r7, #1064	; 0x428
 8001fde:	46bd      	mov	sp, r7
 8001fe0:	bc90      	pop	{r4, r7}
 8001fe2:	4770      	bx	lr
 8001fe4:	5f3759df 	.word	0x5f3759df

08001fe8 <FusionAhrsUpdateWithoutMagnetometer>:
 * @param gyroscope Gyroscope measurement in degrees per second.
 * @param accelerometer Accelerometer measurement in g.
 * @param samplePeriod Sample period in seconds.  This is the difference in time
 * between the current and previous gyroscope measurements.
 */
void FusionAhrsUpdateWithoutMagnetometer(FusionAhrs * const fusionAhrs, const FusionVector3 gyroscope, const FusionVector3 accelerometer, const float samplePeriod) {
 8001fe8:	b580      	push	{r7, lr}
 8001fea:	b08c      	sub	sp, #48	; 0x30
 8001fec:	af00      	add	r7, sp, #0
 8001fee:	61f8      	str	r0, [r7, #28]
 8001ff0:	eeb0 5a40 	vmov.f32	s10, s0
 8001ff4:	eef0 5a60 	vmov.f32	s11, s1
 8001ff8:	eeb0 6a41 	vmov.f32	s12, s2
 8001ffc:	eef0 6a61 	vmov.f32	s13, s3
 8002000:	eeb0 7a42 	vmov.f32	s14, s4
 8002004:	eef0 7a62 	vmov.f32	s15, s5
 8002008:	ed87 3a00 	vstr	s6, [r7]
 800200c:	ed87 5a04 	vstr	s10, [r7, #16]
 8002010:	edc7 5a05 	vstr	s11, [r7, #20]
 8002014:	ed87 6a06 	vstr	s12, [r7, #24]
 8002018:	edc7 6a01 	vstr	s13, [r7, #4]
 800201c:	ed87 7a02 	vstr	s14, [r7, #8]
 8002020:	edc7 7a03 	vstr	s15, [r7, #12]

    // Update AHRS algorithm
    FusionAhrsUpdate(fusionAhrs, gyroscope, accelerometer, FUSION_VECTOR3_ZERO, samplePeriod);
 8002024:	f04f 0300 	mov.w	r3, #0
 8002028:	627b      	str	r3, [r7, #36]	; 0x24
 800202a:	f04f 0300 	mov.w	r3, #0
 800202e:	62bb      	str	r3, [r7, #40]	; 0x28
 8002030:	f04f 0300 	mov.w	r3, #0
 8002034:	62fb      	str	r3, [r7, #44]	; 0x2c
 8002036:	ed97 3a09 	vldr	s6, [r7, #36]	; 0x24
 800203a:	edd7 3a0a 	vldr	s7, [r7, #40]	; 0x28
 800203e:	ed97 4a0b 	vldr	s8, [r7, #44]	; 0x2c
 8002042:	ed97 5a01 	vldr	s10, [r7, #4]
 8002046:	edd7 5a02 	vldr	s11, [r7, #8]
 800204a:	ed97 6a03 	vldr	s12, [r7, #12]
 800204e:	edd7 6a04 	vldr	s13, [r7, #16]
 8002052:	ed97 7a05 	vldr	s14, [r7, #20]
 8002056:	edd7 7a06 	vldr	s15, [r7, #24]
 800205a:	edd7 4a00 	vldr	s9, [r7]
 800205e:	eef0 1a45 	vmov.f32	s3, s10
 8002062:	eeb0 2a65 	vmov.f32	s4, s11
 8002066:	eef0 2a46 	vmov.f32	s5, s12
 800206a:	eeb0 0a66 	vmov.f32	s0, s13
 800206e:	eef0 0a47 	vmov.f32	s1, s14
 8002072:	eeb0 1a67 	vmov.f32	s2, s15
 8002076:	69f8      	ldr	r0, [r7, #28]
 8002078:	f7fe ff2e 	bl	8000ed8 <FusionAhrsUpdate>

    // Zero yaw once initialisation complete
    if (FusionAhrsIsInitialising(fusionAhrs) == true) {
 800207c:	69f8      	ldr	r0, [r7, #28]
 800207e:	f000 f862 	bl	8002146 <FusionAhrsIsInitialising>
 8002082:	4603      	mov	r3, r0
 8002084:	2b00      	cmp	r3, #0
 8002086:	d004      	beq.n	8002092 <FusionAhrsUpdateWithoutMagnetometer+0xaa>
        fusionAhrs->zeroYawPending = true;
 8002088:	69fb      	ldr	r3, [r7, #28]
 800208a:	2201      	movs	r2, #1
 800208c:	f883 202c 	strb.w	r2, [r3, #44]	; 0x2c
        if (fusionAhrs->zeroYawPending == true) {
            FusionAhrsSetYaw(fusionAhrs, 0.0f);
            fusionAhrs->zeroYawPending = false;
        }
    }
}
 8002090:	e00d      	b.n	80020ae <FusionAhrsUpdateWithoutMagnetometer+0xc6>
        if (fusionAhrs->zeroYawPending == true) {
 8002092:	69fb      	ldr	r3, [r7, #28]
 8002094:	f893 302c 	ldrb.w	r3, [r3, #44]	; 0x2c
 8002098:	2b00      	cmp	r3, #0
 800209a:	d008      	beq.n	80020ae <FusionAhrsUpdateWithoutMagnetometer+0xc6>
            FusionAhrsSetYaw(fusionAhrs, 0.0f);
 800209c:	ed9f 0a06 	vldr	s0, [pc, #24]	; 80020b8 <FusionAhrsUpdateWithoutMagnetometer+0xd0>
 80020a0:	69f8      	ldr	r0, [r7, #28]
 80020a2:	f000 f869 	bl	8002178 <FusionAhrsSetYaw>
            fusionAhrs->zeroYawPending = false;
 80020a6:	69fb      	ldr	r3, [r7, #28]
 80020a8:	2200      	movs	r2, #0
 80020aa:	f883 202c 	strb.w	r2, [r3, #44]	; 0x2c
}
 80020ae:	bf00      	nop
 80020b0:	3730      	adds	r7, #48	; 0x30
 80020b2:	46bd      	mov	sp, r7
 80020b4:	bd80      	pop	{r7, pc}
 80020b6:	bf00      	nop
 80020b8:	00000000 	.word	0x00000000

080020bc <FusionAhrsGetQuaternion>:
/**
 * @brief Gets the quaternion describing the sensor relative to the Earth.
 * @param fusionAhrs AHRS algorithm structure.
 * @return Quaternion describing the sensor relative to the Earth.
 */
FusionQuaternion FusionAhrsGetQuaternion(const FusionAhrs * const fusionAhrs) {
 80020bc:	b490      	push	{r4, r7}
 80020be:	b096      	sub	sp, #88	; 0x58
 80020c0:	af00      	add	r7, sp, #0
 80020c2:	6178      	str	r0, [r7, #20]
 80020c4:	697b      	ldr	r3, [r7, #20]
 80020c6:	f107 0428 	add.w	r4, r7, #40	; 0x28
 80020ca:	330c      	adds	r3, #12
 80020cc:	cb0f      	ldmia	r3, {r0, r1, r2, r3}
 80020ce:	e884 000f 	stmia.w	r4, {r0, r1, r2, r3}
    conjugate.element.w = quaternion.element.w;
 80020d2:	6abb      	ldr	r3, [r7, #40]	; 0x28
 80020d4:	61bb      	str	r3, [r7, #24]
    conjugate.element.x = -1.0f * quaternion.element.x;
 80020d6:	edd7 7a0b 	vldr	s15, [r7, #44]	; 0x2c
 80020da:	eef1 7a67 	vneg.f32	s15, s15
 80020de:	edc7 7a07 	vstr	s15, [r7, #28]
    conjugate.element.y = -1.0f * quaternion.element.y;
 80020e2:	edd7 7a0c 	vldr	s15, [r7, #48]	; 0x30
 80020e6:	eef1 7a67 	vneg.f32	s15, s15
 80020ea:	edc7 7a08 	vstr	s15, [r7, #32]
    conjugate.element.z = -1.0f * quaternion.element.z;
 80020ee:	edd7 7a0d 	vldr	s15, [r7, #52]	; 0x34
 80020f2:	eef1 7a67 	vneg.f32	s15, s15
 80020f6:	edc7 7a09 	vstr	s15, [r7, #36]	; 0x24
    return conjugate;
 80020fa:	f107 0448 	add.w	r4, r7, #72	; 0x48
 80020fe:	f107 0318 	add.w	r3, r7, #24
 8002102:	cb0f      	ldmia	r3, {r0, r1, r2, r3}
 8002104:	e884 000f 	stmia.w	r4, {r0, r1, r2, r3}
 8002108:	f107 0438 	add.w	r4, r7, #56	; 0x38
 800210c:	f107 0348 	add.w	r3, r7, #72	; 0x48
 8002110:	cb0f      	ldmia	r3, {r0, r1, r2, r3}
 8002112:	e884 000f 	stmia.w	r4, {r0, r1, r2, r3}
    return FusionQuaternionConjugate(fusionAhrs->quaternion);
 8002116:	6bb8      	ldr	r0, [r7, #56]	; 0x38
 8002118:	6bf9      	ldr	r1, [r7, #60]	; 0x3c
 800211a:	6c3a      	ldr	r2, [r7, #64]	; 0x40
 800211c:	6c7b      	ldr	r3, [r7, #68]	; 0x44
 800211e:	ee06 0a10 	vmov	s12, r0
 8002122:	ee06 1a90 	vmov	s13, r1
 8002126:	ee07 2a10 	vmov	s14, r2
 800212a:	ee07 3a90 	vmov	s15, r3
}
 800212e:	eeb0 0a46 	vmov.f32	s0, s12
 8002132:	eef0 0a66 	vmov.f32	s1, s13
 8002136:	eeb0 1a47 	vmov.f32	s2, s14
 800213a:	eef0 1a67 	vmov.f32	s3, s15
 800213e:	3758      	adds	r7, #88	; 0x58
 8002140:	46bd      	mov	sp, r7
 8002142:	bc90      	pop	{r4, r7}
 8002144:	4770      	bx	lr

08002146 <FusionAhrsIsInitialising>:
/**
 * @brief Returns true while the AHRS algorithm is initialising.
 * @param fusionAhrs AHRS algorithm structure.
 * @return True while the AHRS algorithm is initialising.
 */
bool FusionAhrsIsInitialising(const FusionAhrs * const fusionAhrs) {
 8002146:	b480      	push	{r7}
 8002148:	b083      	sub	sp, #12
 800214a:	af00      	add	r7, sp, #0
 800214c:	6078      	str	r0, [r7, #4]
    return fusionAhrs->rampedGain > fusionAhrs->gain;
 800214e:	687b      	ldr	r3, [r7, #4]
 8002150:	ed93 7a0a 	vldr	s14, [r3, #40]	; 0x28
 8002154:	687b      	ldr	r3, [r7, #4]
 8002156:	edd3 7a00 	vldr	s15, [r3]
 800215a:	eeb4 7ae7 	vcmpe.f32	s14, s15
 800215e:	eef1 fa10 	vmrs	APSR_nzcv, fpscr
 8002162:	bfcc      	ite	gt
 8002164:	2301      	movgt	r3, #1
 8002166:	2300      	movle	r3, #0
 8002168:	b2db      	uxtb	r3, r3
}
 800216a:	4618      	mov	r0, r3
 800216c:	370c      	adds	r7, #12
 800216e:	46bd      	mov	sp, r7
 8002170:	f85d 7b04 	ldr.w	r7, [sp], #4
 8002174:	4770      	bx	lr
	...

08002178 <FusionAhrsSetYaw>:
 * AHRS algorithm.  This function can be used to reset drift in yaw when the
 * AHRS algorithm is being used without a magnetometer.
 * @param fusionAhrs AHRS algorithm structure.
 * @param yaw Yaw angle in degrees.
 */
void FusionAhrsSetYaw(FusionAhrs * const fusionAhrs, const float yaw) {
 8002178:	b590      	push	{r4, r7, lr}
 800217a:	b0af      	sub	sp, #188	; 0xbc
 800217c:	af00      	add	r7, sp, #0
 800217e:	6078      	str	r0, [r7, #4]
 8002180:	ed87 0a00 	vstr	s0, [r7]
 8002184:	687b      	ldr	r3, [r7, #4]
 8002186:	f107 0468 	add.w	r4, r7, #104	; 0x68
 800218a:	330c      	adds	r3, #12
 800218c:	cb0f      	ldmia	r3, {r0, r1, r2, r3}
 800218e:	e884 000f 	stmia.w	r4, {r0, r1, r2, r3}
    const float magnitudeReciprocal = 1.0f / sqrtf(Q.w * Q.w + Q.x * Q.x + Q.y * Q.y + Q.z * Q.z);
 8002192:	ed97 7a1a 	vldr	s14, [r7, #104]	; 0x68
 8002196:	edd7 7a1a 	vldr	s15, [r7, #104]	; 0x68
 800219a:	ee27 7a27 	vmul.f32	s14, s14, s15
 800219e:	edd7 6a1b 	vldr	s13, [r7, #108]	; 0x6c
 80021a2:	edd7 7a1b 	vldr	s15, [r7, #108]	; 0x6c
 80021a6:	ee66 7aa7 	vmul.f32	s15, s13, s15
 80021aa:	ee37 7a27 	vadd.f32	s14, s14, s15
 80021ae:	edd7 6a1c 	vldr	s13, [r7, #112]	; 0x70
 80021b2:	edd7 7a1c 	vldr	s15, [r7, #112]	; 0x70
 80021b6:	ee66 7aa7 	vmul.f32	s15, s13, s15
 80021ba:	ee37 7a27 	vadd.f32	s14, s14, s15
 80021be:	edd7 6a1d 	vldr	s13, [r7, #116]	; 0x74
 80021c2:	edd7 7a1d 	vldr	s15, [r7, #116]	; 0x74
 80021c6:	ee66 7aa7 	vmul.f32	s15, s13, s15
 80021ca:	ee77 7a27 	vadd.f32	s15, s14, s15
 80021ce:	eeb0 0a67 	vmov.f32	s0, s15
 80021d2:	f008 f86f 	bl	800a2b4 <sqrtf>
 80021d6:	eeb0 7a40 	vmov.f32	s14, s0
 80021da:	eef7 6a00 	vmov.f32	s13, #112	; 0x3f800000  1.0
 80021de:	eec6 7a87 	vdiv.f32	s15, s13, s14
 80021e2:	edc7 7a2a 	vstr	s15, [r7, #168]	; 0xa8
    normalisedQuaternion.element.w = Q.w * magnitudeReciprocal;
 80021e6:	ed97 7a1a 	vldr	s14, [r7, #104]	; 0x68
 80021ea:	edd7 7a2a 	vldr	s15, [r7, #168]	; 0xa8
 80021ee:	ee67 7a27 	vmul.f32	s15, s14, s15
 80021f2:	edc7 7a12 	vstr	s15, [r7, #72]	; 0x48
    normalisedQuaternion.element.x = Q.x * magnitudeReciprocal;
 80021f6:	ed97 7a1b 	vldr	s14, [r7, #108]	; 0x6c
 80021fa:	edd7 7a2a 	vldr	s15, [r7, #168]	; 0xa8
 80021fe:	ee67 7a27 	vmul.f32	s15, s14, s15
 8002202:	edc7 7a13 	vstr	s15, [r7, #76]	; 0x4c
    normalisedQuaternion.element.y = Q.y * magnitudeReciprocal;
 8002206:	ed97 7a1c 	vldr	s14, [r7, #112]	; 0x70
 800220a:	edd7 7a2a 	vldr	s15, [r7, #168]	; 0xa8
 800220e:	ee67 7a27 	vmul.f32	s15, s14, s15
 8002212:	edc7 7a14 	vstr	s15, [r7, #80]	; 0x50
    normalisedQuaternion.element.z = Q.z * magnitudeReciprocal;
 8002216:	ed97 7a1d 	vldr	s14, [r7, #116]	; 0x74
 800221a:	edd7 7a2a 	vldr	s15, [r7, #168]	; 0xa8
 800221e:	ee67 7a27 	vmul.f32	s15, s14, s15
 8002222:	edc7 7a15 	vstr	s15, [r7, #84]	; 0x54
    return normalisedQuaternion;
 8002226:	f107 0498 	add.w	r4, r7, #152	; 0x98
 800222a:	f107 0348 	add.w	r3, r7, #72	; 0x48
 800222e:	cb0f      	ldmia	r3, {r0, r1, r2, r3}
 8002230:	e884 000f 	stmia.w	r4, {r0, r1, r2, r3}
 8002234:	f107 0458 	add.w	r4, r7, #88	; 0x58
 8002238:	f107 0398 	add.w	r3, r7, #152	; 0x98
 800223c:	cb0f      	ldmia	r3, {r0, r1, r2, r3}
 800223e:	e884 000f 	stmia.w	r4, {r0, r1, r2, r3}
#define Q fusionAhrs->quaternion.element // define shorthand label for more readable code
    fusionAhrs->quaternion = FusionQuaternionNormalise(fusionAhrs->quaternion); // quaternion must be normalised accurately (approximation not sufficient)
 8002242:	687b      	ldr	r3, [r7, #4]
 8002244:	f103 040c 	add.w	r4, r3, #12
 8002248:	f107 0358 	add.w	r3, r7, #88	; 0x58
 800224c:	cb0f      	ldmia	r3, {r0, r1, r2, r3}
 800224e:	e884 000f 	stmia.w	r4, {r0, r1, r2, r3}
    const float inverseYaw = atan2f(Q.x * Q.y + Q.w * Q.z, Q.w * Q.w - 0.5f + Q.x * Q.x); // Euler angle of conjugate
 8002252:	687b      	ldr	r3, [r7, #4]
 8002254:	ed93 7a04 	vldr	s14, [r3, #16]
 8002258:	687b      	ldr	r3, [r7, #4]
 800225a:	edd3 7a05 	vldr	s15, [r3, #20]
 800225e:	ee27 7a27 	vmul.f32	s14, s14, s15
 8002262:	687b      	ldr	r3, [r7, #4]
 8002264:	edd3 6a03 	vldr	s13, [r3, #12]
 8002268:	687b      	ldr	r3, [r7, #4]
 800226a:	edd3 7a06 	vldr	s15, [r3, #24]
 800226e:	ee66 7aa7 	vmul.f32	s15, s13, s15
 8002272:	ee37 6a27 	vadd.f32	s12, s14, s15
 8002276:	687b      	ldr	r3, [r7, #4]
 8002278:	ed93 7a03 	vldr	s14, [r3, #12]
 800227c:	687b      	ldr	r3, [r7, #4]
 800227e:	edd3 7a03 	vldr	s15, [r3, #12]
 8002282:	ee67 7a27 	vmul.f32	s15, s14, s15
 8002286:	eeb6 7a00 	vmov.f32	s14, #96	; 0x3f000000  0.5
 800228a:	ee37 7ac7 	vsub.f32	s14, s15, s14
 800228e:	687b      	ldr	r3, [r7, #4]
 8002290:	edd3 6a04 	vldr	s13, [r3, #16]
 8002294:	687b      	ldr	r3, [r7, #4]
 8002296:	edd3 7a04 	vldr	s15, [r3, #16]
 800229a:	ee66 7aa7 	vmul.f32	s15, s13, s15
 800229e:	ee77 7a27 	vadd.f32	s15, s14, s15
 80022a2:	eef0 0a67 	vmov.f32	s1, s15
 80022a6:	eeb0 0a46 	vmov.f32	s0, s12
 80022aa:	f008 f801 	bl	800a2b0 <atan2f>
 80022ae:	ed87 0a2d 	vstr	s0, [r7, #180]	; 0xb4
 80022b2:	683b      	ldr	r3, [r7, #0]
 80022b4:	f8c7 30ac 	str.w	r3, [r7, #172]	; 0xac
    return degrees * ((float) M_PI / 180.0f);
 80022b8:	edd7 7a2b 	vldr	s15, [r7, #172]	; 0xac
 80022bc:	ed9f 7a67 	vldr	s14, [pc, #412]	; 800245c <FusionAhrsSetYaw+0x2e4>
 80022c0:	ee67 7a87 	vmul.f32	s15, s15, s14
    const float halfInverseYawMinusOffset = 0.5f * (inverseYaw - FusionDegreesToRadians(yaw));
 80022c4:	ed97 7a2d 	vldr	s14, [r7, #180]	; 0xb4
 80022c8:	ee77 7a67 	vsub.f32	s15, s14, s15
 80022cc:	eeb6 7a00 	vmov.f32	s14, #96	; 0x3f000000  0.5
 80022d0:	ee67 7a87 	vmul.f32	s15, s15, s14
 80022d4:	edc7 7a2c 	vstr	s15, [r7, #176]	; 0xb0
    const FusionQuaternion inverseYawQuaternion = {
        .element.w = cosf(halfInverseYawMinusOffset),
 80022d8:	ed97 0a2c 	vldr	s0, [r7, #176]	; 0xb0
 80022dc:	f007 ff34 	bl	800a148 <cosf>
 80022e0:	eef0 7a40 	vmov.f32	s15, s0
    const FusionQuaternion inverseYawQuaternion = {
 80022e4:	edc7 7a1e 	vstr	s15, [r7, #120]	; 0x78
 80022e8:	f04f 0300 	mov.w	r3, #0
 80022ec:	67fb      	str	r3, [r7, #124]	; 0x7c
 80022ee:	f04f 0300 	mov.w	r3, #0
 80022f2:	f8c7 3080 	str.w	r3, [r7, #128]	; 0x80
        .element.x = 0.0f,
        .element.y = 0.0f,
        .element.z = -1.0f * sinf(halfInverseYawMinusOffset),
 80022f6:	ed97 0a2c 	vldr	s0, [r7, #176]	; 0xb0
 80022fa:	f007 ff65 	bl	800a1c8 <sinf>
 80022fe:	eef0 7a40 	vmov.f32	s15, s0
 8002302:	eef1 7a67 	vneg.f32	s15, s15
    const FusionQuaternion inverseYawQuaternion = {
 8002306:	edc7 7a21 	vstr	s15, [r7, #132]	; 0x84
 800230a:	f107 0428 	add.w	r4, r7, #40	; 0x28
 800230e:	f107 0378 	add.w	r3, r7, #120	; 0x78
 8002312:	cb0f      	ldmia	r3, {r0, r1, r2, r3}
 8002314:	e884 000f 	stmia.w	r4, {r0, r1, r2, r3}
 8002318:	687b      	ldr	r3, [r7, #4]
 800231a:	f107 0438 	add.w	r4, r7, #56	; 0x38
 800231e:	330c      	adds	r3, #12
 8002320:	cb0f      	ldmia	r3, {r0, r1, r2, r3}
 8002322:	e884 000f 	stmia.w	r4, {r0, r1, r2, r3}
    result.element.w = A.w * B.w - A.x * B.x - A.y * B.y - A.z * B.z;
 8002326:	ed97 7a0a 	vldr	s14, [r7, #40]	; 0x28
 800232a:	edd7 7a0e 	vldr	s15, [r7, #56]	; 0x38
 800232e:	ee27 7a27 	vmul.f32	s14, s14, s15
 8002332:	edd7 6a0b 	vldr	s13, [r7, #44]	; 0x2c
 8002336:	edd7 7a0f 	vldr	s15, [r7, #60]	; 0x3c
 800233a:	ee66 7aa7 	vmul.f32	s15, s13, s15
 800233e:	ee37 7a67 	vsub.f32	s14, s14, s15
 8002342:	edd7 6a0c 	vldr	s13, [r7, #48]	; 0x30
 8002346:	edd7 7a10 	vldr	s15, [r7, #64]	; 0x40
 800234a:	ee66 7aa7 	vmul.f32	s15, s13, s15
 800234e:	ee37 7a67 	vsub.f32	s14, s14, s15
 8002352:	edd7 6a0d 	vldr	s13, [r7, #52]	; 0x34
 8002356:	edd7 7a11 	vldr	s15, [r7, #68]	; 0x44
 800235a:	ee66 7aa7 	vmul.f32	s15, s13, s15
 800235e:	ee77 7a67 	vsub.f32	s15, s14, s15
 8002362:	edc7 7a02 	vstr	s15, [r7, #8]
    result.element.x = A.w * B.x + A.x * B.w + A.y * B.z - A.z * B.y;
 8002366:	ed97 7a0a 	vldr	s14, [r7, #40]	; 0x28
 800236a:	edd7 7a0f 	vldr	s15, [r7, #60]	; 0x3c
 800236e:	ee27 7a27 	vmul.f32	s14, s14, s15
 8002372:	edd7 6a0b 	vldr	s13, [r7, #44]	; 0x2c
 8002376:	edd7 7a0e 	vldr	s15, [r7, #56]	; 0x38
 800237a:	ee66 7aa7 	vmul.f32	s15, s13, s15
 800237e:	ee37 7a27 	vadd.f32	s14, s14, s15
 8002382:	edd7 6a0c 	vldr	s13, [r7, #48]	; 0x30
 8002386:	edd7 7a11 	vldr	s15, [r7, #68]	; 0x44
 800238a:	ee66 7aa7 	vmul.f32	s15, s13, s15
 800238e:	ee37 7a27 	vadd.f32	s14, s14, s15
 8002392:	edd7 6a0d 	vldr	s13, [r7, #52]	; 0x34
 8002396:	edd7 7a10 	vldr	s15, [r7, #64]	; 0x40
 800239a:	ee66 7aa7 	vmul.f32	s15, s13, s15
 800239e:	ee77 7a67 	vsub.f32	s15, s14, s15
 80023a2:	edc7 7a03 	vstr	s15, [r7, #12]
    result.element.y = A.w * B.y - A.x * B.z + A.y * B.w + A.z * B.x;
 80023a6:	ed97 7a0a 	vldr	s14, [r7, #40]	; 0x28
 80023aa:	edd7 7a10 	vldr	s15, [r7, #64]	; 0x40
 80023ae:	ee27 7a27 	vmul.f32	s14, s14, s15
 80023b2:	edd7 6a0b 	vldr	s13, [r7, #44]	; 0x2c
 80023b6:	edd7 7a11 	vldr	s15, [r7, #68]	; 0x44
 80023ba:	ee66 7aa7 	vmul.f32	s15, s13, s15
 80023be:	ee37 7a67 	vsub.f32	s14, s14, s15
 80023c2:	edd7 6a0c 	vldr	s13, [r7, #48]	; 0x30
 80023c6:	edd7 7a0e 	vldr	s15, [r7, #56]	; 0x38
 80023ca:	ee66 7aa7 	vmul.f32	s15, s13, s15
 80023ce:	ee37 7a27 	vadd.f32	s14, s14, s15
 80023d2:	edd7 6a0d 	vldr	s13, [r7, #52]	; 0x34
 80023d6:	edd7 7a0f 	vldr	s15, [r7, #60]	; 0x3c
 80023da:	ee66 7aa7 	vmul.f32	s15, s13, s15
 80023de:	ee77 7a27 	vadd.f32	s15, s14, s15
 80023e2:	edc7 7a04 	vstr	s15, [r7, #16]
    result.element.z = A.w * B.z + A.x * B.y - A.y * B.x + A.z * B.w;
 80023e6:	ed97 7a0a 	vldr	s14, [r7, #40]	; 0x28
 80023ea:	edd7 7a11 	vldr	s15, [r7, #68]	; 0x44
 80023ee:	ee27 7a27 	vmul.f32	s14, s14, s15
 80023f2:	edd7 6a0b 	vldr	s13, [r7, #44]	; 0x2c
 80023f6:	edd7 7a10 	vldr	s15, [r7, #64]	; 0x40
 80023fa:	ee66 7aa7 	vmul.f32	s15, s13, s15
 80023fe:	ee37 7a27 	vadd.f32	s14, s14, s15
 8002402:	edd7 6a0c 	vldr	s13, [r7, #48]	; 0x30
 8002406:	edd7 7a0f 	vldr	s15, [r7, #60]	; 0x3c
 800240a:	ee66 7aa7 	vmul.f32	s15, s13, s15
 800240e:	ee37 7a67 	vsub.f32	s14, s14, s15
 8002412:	edd7 6a0d 	vldr	s13, [r7, #52]	; 0x34
 8002416:	edd7 7a0e 	vldr	s15, [r7, #56]	; 0x38
 800241a:	ee66 7aa7 	vmul.f32	s15, s13, s15
 800241e:	ee77 7a27 	vadd.f32	s15, s14, s15
 8002422:	edc7 7a05 	vstr	s15, [r7, #20]
    return result;
 8002426:	f107 0488 	add.w	r4, r7, #136	; 0x88
 800242a:	f107 0308 	add.w	r3, r7, #8
 800242e:	cb0f      	ldmia	r3, {r0, r1, r2, r3}
 8002430:	e884 000f 	stmia.w	r4, {r0, r1, r2, r3}
 8002434:	f107 0418 	add.w	r4, r7, #24
 8002438:	f107 0388 	add.w	r3, r7, #136	; 0x88
 800243c:	cb0f      	ldmia	r3, {r0, r1, r2, r3}
 800243e:	e884 000f 	stmia.w	r4, {r0, r1, r2, r3}
    };
    fusionAhrs->quaternion = FusionQuaternionMultiply(inverseYawQuaternion, fusionAhrs->quaternion);
 8002442:	687b      	ldr	r3, [r7, #4]
 8002444:	f103 040c 	add.w	r4, r3, #12
 8002448:	f107 0318 	add.w	r3, r7, #24
 800244c:	cb0f      	ldmia	r3, {r0, r1, r2, r3}
 800244e:	e884 000f 	stmia.w	r4, {r0, r1, r2, r3}
#undef Q // undefine shorthand label
}
 8002452:	bf00      	nop
 8002454:	37bc      	adds	r7, #188	; 0xbc
 8002456:	46bd      	mov	sp, r7
 8002458:	bd90      	pop	{r4, r7, pc}
 800245a:	bf00      	nop
 800245c:	3c8efa35 	.word	0x3c8efa35

08002460 <FusionBiasInitialise>:
 * @param threshold Gyroscope threshold (in degrees per second) below which the
 * gyroscope is detected stationary.
 * @param samplePeriod Nominal sample period (in seconds) corresponding the rate
 * at which the application will update the algorithm.
 */
void FusionBiasInitialise(FusionBias * const fusionBias, const float threshold, const float samplePeriod) {
 8002460:	b580      	push	{r7, lr}
 8002462:	b088      	sub	sp, #32
 8002464:	af00      	add	r7, sp, #0
 8002466:	60f8      	str	r0, [r7, #12]
 8002468:	ed87 0a02 	vstr	s0, [r7, #8]
 800246c:	edc7 0a01 	vstr	s1, [r7, #4]
    fusionBias->threshold = threshold;
 8002470:	68fb      	ldr	r3, [r7, #12]
 8002472:	68ba      	ldr	r2, [r7, #8]
 8002474:	601a      	str	r2, [r3, #0]
    fusionBias->samplePeriod = samplePeriod;
 8002476:	68fb      	ldr	r3, [r7, #12]
 8002478:	687a      	ldr	r2, [r7, #4]
 800247a:	605a      	str	r2, [r3, #4]
    fusionBias->filterCoefficient = (2.0f * M_PI * CORNER_FREQUENCY) * fusionBias->samplePeriod;
 800247c:	68fb      	ldr	r3, [r7, #12]
 800247e:	685b      	ldr	r3, [r3, #4]
 8002480:	4618      	mov	r0, r3
 8002482:	f7fe f805 	bl	8000490 <__aeabi_f2d>
 8002486:	a312      	add	r3, pc, #72	; (adr r3, 80024d0 <FusionBiasInitialise+0x70>)
 8002488:	e9d3 2300 	ldrd	r2, r3, [r3]
 800248c:	f7fe f858 	bl	8000540 <__aeabi_dmul>
 8002490:	4602      	mov	r2, r0
 8002492:	460b      	mov	r3, r1
 8002494:	4610      	mov	r0, r2
 8002496:	4619      	mov	r1, r3
 8002498:	f7fe fb14 	bl	8000ac4 <__aeabi_d2f>
 800249c:	4602      	mov	r2, r0
 800249e:	68fb      	ldr	r3, [r7, #12]
 80024a0:	609a      	str	r2, [r3, #8]
    fusionBias->stationaryTimer = 0.0f;
 80024a2:	68fb      	ldr	r3, [r7, #12]
 80024a4:	f04f 0200 	mov.w	r2, #0
 80024a8:	60da      	str	r2, [r3, #12]
    fusionBias->gyroscopeBias = FUSION_VECTOR3_ZERO;
 80024aa:	68fb      	ldr	r3, [r7, #12]
 80024ac:	f04f 0200 	mov.w	r2, #0
 80024b0:	611a      	str	r2, [r3, #16]
 80024b2:	68fb      	ldr	r3, [r7, #12]
 80024b4:	f04f 0200 	mov.w	r2, #0
 80024b8:	615a      	str	r2, [r3, #20]
 80024ba:	68fb      	ldr	r3, [r7, #12]
 80024bc:	f04f 0200 	mov.w	r2, #0
 80024c0:	619a      	str	r2, [r3, #24]
}
 80024c2:	bf00      	nop
 80024c4:	3720      	adds	r7, #32
 80024c6:	46bd      	mov	sp, r7
 80024c8:	bd80      	pop	{r7, pc}
 80024ca:	bf00      	nop
 80024cc:	f3af 8000 	nop.w
 80024d0:	8c0eff43 	.word	0x8c0eff43
 80024d4:	3fc015bf 	.word	0x3fc015bf

080024d8 <FusionBiasUpdate>:
 * corrected gyroscope measurement.
 * @param fusionBias FusionBias structure.
 * @param gyroscope Gyroscope measurement in degrees per second.
 * @return Corrected gyroscope measurement in degrees per second.
 */
FusionVector3 FusionBiasUpdate(FusionBias * const fusionBias, FusionVector3 gyroscope) {
 80024d8:	b490      	push	{r4, r7}
 80024da:	b0b4      	sub	sp, #208	; 0xd0
 80024dc:	af00      	add	r7, sp, #0
 80024de:	61f8      	str	r0, [r7, #28]
 80024e0:	eef0 6a40 	vmov.f32	s13, s0
 80024e4:	eeb0 7a60 	vmov.f32	s14, s1
 80024e8:	eef0 7a41 	vmov.f32	s15, s2
 80024ec:	edc7 6a04 	vstr	s13, [r7, #16]
 80024f0:	ed87 7a05 	vstr	s14, [r7, #20]
 80024f4:	edc7 7a06 	vstr	s15, [r7, #24]
 80024f8:	f107 0330 	add.w	r3, r7, #48	; 0x30
 80024fc:	f107 0210 	add.w	r2, r7, #16
 8002500:	ca07      	ldmia	r2, {r0, r1, r2}
 8002502:	e883 0007 	stmia.w	r3, {r0, r1, r2}
 8002506:	69fa      	ldr	r2, [r7, #28]
 8002508:	f107 033c 	add.w	r3, r7, #60	; 0x3c
 800250c:	3210      	adds	r2, #16
 800250e:	ca07      	ldmia	r2, {r0, r1, r2}
 8002510:	e883 0007 	stmia.w	r3, {r0, r1, r2}
    result.axis.x = vectorA.axis.x - vectorB.axis.x;
 8002514:	ed97 7a0c 	vldr	s14, [r7, #48]	; 0x30
 8002518:	edd7 7a0f 	vldr	s15, [r7, #60]	; 0x3c
 800251c:	ee77 7a67 	vsub.f32	s15, s14, s15
 8002520:	edc7 7a09 	vstr	s15, [r7, #36]	; 0x24
    result.axis.y = vectorA.axis.y - vectorB.axis.y;
 8002524:	ed97 7a0d 	vldr	s14, [r7, #52]	; 0x34
 8002528:	edd7 7a10 	vldr	s15, [r7, #64]	; 0x40
 800252c:	ee77 7a67 	vsub.f32	s15, s14, s15
 8002530:	edc7 7a0a 	vstr	s15, [r7, #40]	; 0x28
    result.axis.z = vectorA.axis.z - vectorB.axis.z;
 8002534:	ed97 7a0e 	vldr	s14, [r7, #56]	; 0x38
 8002538:	edd7 7a11 	vldr	s15, [r7, #68]	; 0x44
 800253c:	ee77 7a67 	vsub.f32	s15, s14, s15
 8002540:	edc7 7a0b 	vstr	s15, [r7, #44]	; 0x2c
    return result;
 8002544:	f107 03a8 	add.w	r3, r7, #168	; 0xa8
 8002548:	f107 0224 	add.w	r2, r7, #36	; 0x24
 800254c:	ca07      	ldmia	r2, {r0, r1, r2}
 800254e:	e883 0007 	stmia.w	r3, {r0, r1, r2}
 8002552:	f107 0310 	add.w	r3, r7, #16
 8002556:	f107 02a8 	add.w	r2, r7, #168	; 0xa8
 800255a:	ca07      	ldmia	r2, {r0, r1, r2}
 800255c:	e883 0007 	stmia.w	r3, {r0, r1, r2}

    // Subtract bias from gyroscope measurement
    gyroscope = FusionVectorSubtract(gyroscope, fusionBias->gyroscopeBias);

    // Reset stationary timer if gyroscope not stationary
    if ((fabs(gyroscope.axis.x) > fusionBias->threshold) || (fabs(gyroscope.axis.y) > fusionBias->threshold) || (fabs(gyroscope.axis.z) > fusionBias->threshold)) {
 8002560:	edd7 7a04 	vldr	s15, [r7, #16]
 8002564:	eeb0 7ae7 	vabs.f32	s14, s15
 8002568:	69fb      	ldr	r3, [r7, #28]
 800256a:	edd3 7a00 	vldr	s15, [r3]
 800256e:	eeb4 7ae7 	vcmpe.f32	s14, s15
 8002572:	eef1 fa10 	vmrs	APSR_nzcv, fpscr
 8002576:	dc17      	bgt.n	80025a8 <FusionBiasUpdate+0xd0>
 8002578:	edd7 7a05 	vldr	s15, [r7, #20]
 800257c:	eeb0 7ae7 	vabs.f32	s14, s15
 8002580:	69fb      	ldr	r3, [r7, #28]
 8002582:	edd3 7a00 	vldr	s15, [r3]
 8002586:	eeb4 7ae7 	vcmpe.f32	s14, s15
 800258a:	eef1 fa10 	vmrs	APSR_nzcv, fpscr
 800258e:	dc0b      	bgt.n	80025a8 <FusionBiasUpdate+0xd0>
 8002590:	edd7 7a06 	vldr	s15, [r7, #24]
 8002594:	eeb0 7ae7 	vabs.f32	s14, s15
 8002598:	69fb      	ldr	r3, [r7, #28]
 800259a:	edd3 7a00 	vldr	s15, [r3]
 800259e:	eeb4 7ae7 	vcmpe.f32	s14, s15
 80025a2:	eef1 fa10 	vmrs	APSR_nzcv, fpscr
 80025a6:	dd0b      	ble.n	80025c0 <FusionBiasUpdate+0xe8>
        fusionBias->stationaryTimer = 0.0f;
 80025a8:	69fb      	ldr	r3, [r7, #28]
 80025aa:	f04f 0200 	mov.w	r2, #0
 80025ae:	60da      	str	r2, [r3, #12]
        return gyroscope;
 80025b0:	f107 0390 	add.w	r3, r7, #144	; 0x90
 80025b4:	f107 0210 	add.w	r2, r7, #16
 80025b8:	ca07      	ldmia	r2, {r0, r1, r2}
 80025ba:	e883 0007 	stmia.w	r3, {r0, r1, r2}
 80025be:	e08f      	b.n	80026e0 <FusionBiasUpdate+0x208>
    }

    // Increment stationary timer while gyroscope stationary
    if (fusionBias->stationaryTimer < STATIONARY_PERIOD) {
 80025c0:	69fb      	ldr	r3, [r7, #28]
 80025c2:	edd3 7a03 	vldr	s15, [r3, #12]
 80025c6:	eeb1 7a04 	vmov.f32	s14, #20	; 0x40a00000  5.0
 80025ca:	eef4 7ac7 	vcmpe.f32	s15, s14
 80025ce:	eef1 fa10 	vmrs	APSR_nzcv, fpscr
 80025d2:	d512      	bpl.n	80025fa <FusionBiasUpdate+0x122>
        fusionBias->stationaryTimer += fusionBias->samplePeriod;
 80025d4:	69fb      	ldr	r3, [r7, #28]
 80025d6:	ed93 7a03 	vldr	s14, [r3, #12]
 80025da:	69fb      	ldr	r3, [r7, #28]
 80025dc:	edd3 7a01 	vldr	s15, [r3, #4]
 80025e0:	ee77 7a27 	vadd.f32	s15, s14, s15
 80025e4:	69fb      	ldr	r3, [r7, #28]
 80025e6:	edc3 7a03 	vstr	s15, [r3, #12]
        return gyroscope;
 80025ea:	f107 0390 	add.w	r3, r7, #144	; 0x90
 80025ee:	f107 0210 	add.w	r2, r7, #16
 80025f2:	ca07      	ldmia	r2, {r0, r1, r2}
 80025f4:	e883 0007 	stmia.w	r3, {r0, r1, r2}
 80025f8:	e072      	b.n	80026e0 <FusionBiasUpdate+0x208>
    }

    // Adjust bias if stationary timer has elapsed
    fusionBias->gyroscopeBias = FusionVectorAdd(fusionBias->gyroscopeBias, FusionVectorMultiplyScalar(gyroscope, fusionBias->filterCoefficient));
 80025fa:	69fb      	ldr	r3, [r7, #28]
 80025fc:	689c      	ldr	r4, [r3, #8]
 80025fe:	f107 0384 	add.w	r3, r7, #132	; 0x84
 8002602:	f107 0210 	add.w	r2, r7, #16
 8002606:	ca07      	ldmia	r2, {r0, r1, r2}
 8002608:	e883 0007 	stmia.w	r3, {r0, r1, r2}
 800260c:	f8c7 40cc 	str.w	r4, [r7, #204]	; 0xcc
    result.axis.x = vector.axis.x * scalar;
 8002610:	ed97 7a21 	vldr	s14, [r7, #132]	; 0x84
 8002614:	edd7 7a33 	vldr	s15, [r7, #204]	; 0xcc
 8002618:	ee67 7a27 	vmul.f32	s15, s14, s15
 800261c:	edc7 7a1e 	vstr	s15, [r7, #120]	; 0x78
    result.axis.y = vector.axis.y * scalar;
 8002620:	ed97 7a22 	vldr	s14, [r7, #136]	; 0x88
 8002624:	edd7 7a33 	vldr	s15, [r7, #204]	; 0xcc
 8002628:	ee67 7a27 	vmul.f32	s15, s14, s15
 800262c:	edc7 7a1f 	vstr	s15, [r7, #124]	; 0x7c
    result.axis.z = vector.axis.z * scalar;
 8002630:	ed97 7a23 	vldr	s14, [r7, #140]	; 0x8c
 8002634:	edd7 7a33 	vldr	s15, [r7, #204]	; 0xcc
 8002638:	ee67 7a27 	vmul.f32	s15, s14, s15
 800263c:	edc7 7a20 	vstr	s15, [r7, #128]	; 0x80
    return result;
 8002640:	f107 03c0 	add.w	r3, r7, #192	; 0xc0
 8002644:	f107 0278 	add.w	r2, r7, #120	; 0x78
 8002648:	ca07      	ldmia	r2, {r0, r1, r2}
 800264a:	e883 0007 	stmia.w	r3, {r0, r1, r2}
 800264e:	f107 039c 	add.w	r3, r7, #156	; 0x9c
 8002652:	f107 02c0 	add.w	r2, r7, #192	; 0xc0
 8002656:	ca07      	ldmia	r2, {r0, r1, r2}
 8002658:	e883 0007 	stmia.w	r3, {r0, r1, r2}
 800265c:	69fa      	ldr	r2, [r7, #28]
 800265e:	f107 0360 	add.w	r3, r7, #96	; 0x60
 8002662:	3210      	adds	r2, #16
 8002664:	ca07      	ldmia	r2, {r0, r1, r2}
 8002666:	e883 0007 	stmia.w	r3, {r0, r1, r2}
 800266a:	f107 036c 	add.w	r3, r7, #108	; 0x6c
 800266e:	f107 029c 	add.w	r2, r7, #156	; 0x9c
 8002672:	ca07      	ldmia	r2, {r0, r1, r2}
 8002674:	e883 0007 	stmia.w	r3, {r0, r1, r2}
    result.axis.x = vectorA.axis.x + vectorB.axis.x;
 8002678:	ed97 7a18 	vldr	s14, [r7, #96]	; 0x60
 800267c:	edd7 7a1b 	vldr	s15, [r7, #108]	; 0x6c
 8002680:	ee77 7a27 	vadd.f32	s15, s14, s15
 8002684:	edc7 7a12 	vstr	s15, [r7, #72]	; 0x48
    result.axis.y = vectorA.axis.y + vectorB.axis.y;
 8002688:	ed97 7a19 	vldr	s14, [r7, #100]	; 0x64
 800268c:	edd7 7a1c 	vldr	s15, [r7, #112]	; 0x70
 8002690:	ee77 7a27 	vadd.f32	s15, s14, s15
 8002694:	edc7 7a13 	vstr	s15, [r7, #76]	; 0x4c
    result.axis.z = vectorA.axis.z + vectorB.axis.z;
 8002698:	ed97 7a1a 	vldr	s14, [r7, #104]	; 0x68
 800269c:	edd7 7a1d 	vldr	s15, [r7, #116]	; 0x74
 80026a0:	ee77 7a27 	vadd.f32	s15, s14, s15
 80026a4:	edc7 7a14 	vstr	s15, [r7, #80]	; 0x50
    return result;
 80026a8:	f107 03b4 	add.w	r3, r7, #180	; 0xb4
 80026ac:	f107 0248 	add.w	r2, r7, #72	; 0x48
 80026b0:	ca07      	ldmia	r2, {r0, r1, r2}
 80026b2:	e883 0007 	stmia.w	r3, {r0, r1, r2}
 80026b6:	f107 0354 	add.w	r3, r7, #84	; 0x54
 80026ba:	f107 02b4 	add.w	r2, r7, #180	; 0xb4
 80026be:	ca07      	ldmia	r2, {r0, r1, r2}
 80026c0:	e883 0007 	stmia.w	r3, {r0, r1, r2}
 80026c4:	69fb      	ldr	r3, [r7, #28]
 80026c6:	3310      	adds	r3, #16
 80026c8:	f107 0254 	add.w	r2, r7, #84	; 0x54
 80026cc:	ca07      	ldmia	r2, {r0, r1, r2}
 80026ce:	e883 0007 	stmia.w	r3, {r0, r1, r2}
    return gyroscope;
 80026d2:	f107 0390 	add.w	r3, r7, #144	; 0x90
 80026d6:	f107 0210 	add.w	r2, r7, #16
 80026da:	ca07      	ldmia	r2, {r0, r1, r2}
 80026dc:	e883 0007 	stmia.w	r3, {r0, r1, r2}
 80026e0:	f8d7 1090 	ldr.w	r1, [r7, #144]	; 0x90
 80026e4:	f8d7 2094 	ldr.w	r2, [r7, #148]	; 0x94
 80026e8:	f8d7 3098 	ldr.w	r3, [r7, #152]	; 0x98
 80026ec:	ee06 1a90 	vmov	s13, r1
 80026f0:	ee07 2a10 	vmov	s14, r2
 80026f4:	ee07 3a90 	vmov	s15, r3
}
 80026f8:	eeb0 0a66 	vmov.f32	s0, s13
 80026fc:	eef0 0a47 	vmov.f32	s1, s14
 8002700:	eeb0 1a67 	vmov.f32	s2, s15
 8002704:	37d0      	adds	r7, #208	; 0xd0
 8002706:	46bd      	mov	sp, r7
 8002708:	bc90      	pop	{r4, r7}
 800270a:	4770      	bx	lr

0800270c <cs_high>:
static uint8_t* read_multiple_ak09916_reg(uint8_t reg, uint8_t len);


/* Main Functions */
void icm20948_init()
{
 800270c:	b580      	push	{r7, lr}
 800270e:	af00      	add	r7, sp, #0
	while(!icm20948_who_am_i());
 8002710:	2201      	movs	r2, #1
 8002712:	2104      	movs	r1, #4
 8002714:	4802      	ldr	r0, [pc, #8]	; (8002720 <cs_high+0x14>)
 8002716:	f004 fbf9 	bl	8006f0c <HAL_GPIO_WritePin>

 800271a:	bf00      	nop
 800271c:	bd80      	pop	{r7, pc}
 800271e:	bf00      	nop
 8002720:	40021000 	.word	0x40021000

08002724 <cs_low>:
	icm20948_device_reset();
	icm20948_wakeup();

 8002724:	b580      	push	{r7, lr}
 8002726:	af00      	add	r7, sp, #0
	icm20948_clock_source(1);
 8002728:	2200      	movs	r2, #0
 800272a:	2104      	movs	r1, #4
 800272c:	4802      	ldr	r0, [pc, #8]	; (8002738 <cs_low+0x14>)
 800272e:	f004 fbed 	bl	8006f0c <HAL_GPIO_WritePin>
	icm20948_odr_align_enable();
 8002732:	bf00      	nop
 8002734:	bd80      	pop	{r7, pc}
 8002736:	bf00      	nop
 8002738:	40021000 	.word	0x40021000

0800273c <select_user_bank>:
	
	icm20948_spi_slave_enable();
	
 800273c:	b580      	push	{r7, lr}
 800273e:	b084      	sub	sp, #16
 8002740:	af00      	add	r7, sp, #0
 8002742:	4603      	mov	r3, r0
 8002744:	71fb      	strb	r3, [r7, #7]
	icm20948_gyro_low_pass_filter(0);
	icm20948_accel_low_pass_filter(0);
 8002746:	237f      	movs	r3, #127	; 0x7f
 8002748:	733b      	strb	r3, [r7, #12]

 800274a:	79fb      	ldrb	r3, [r7, #7]
 800274c:	737b      	strb	r3, [r7, #13]
	icm20948_gyro_sample_rate_divider(0);
	icm20948_accel_sample_rate_divider(0);
 800274e:	f7ff ffe9 	bl	8002724 <cs_low>

 8002752:	f107 010c 	add.w	r1, r7, #12
 8002756:	230a      	movs	r3, #10
 8002758:	2202      	movs	r2, #2
 800275a:	4804      	ldr	r0, [pc, #16]	; (800276c <select_user_bank+0x30>)
 800275c:	f005 f907 	bl	800796e <HAL_SPI_Transmit>
	//icm20948_gyro_calibration();
 8002760:	f7ff ffd4 	bl	800270c <cs_high>
	//icm20948_accel_calibration();
 8002764:	bf00      	nop
 8002766:	3710      	adds	r7, #16
 8002768:	46bd      	mov	sp, r7
 800276a:	bd80      	pop	{r7, pc}
 800276c:	2000031c 	.word	0x2000031c

08002770 <read_single_icm20948_reg>:

	icm20948_gyro_full_scale_select(_2000dps);
	icm20948_accel_full_scale_select(_16g);
 8002770:	b580      	push	{r7, lr}
 8002772:	b084      	sub	sp, #16
 8002774:	af00      	add	r7, sp, #0
 8002776:	4603      	mov	r3, r0
 8002778:	460a      	mov	r2, r1
 800277a:	71fb      	strb	r3, [r7, #7]
 800277c:	4613      	mov	r3, r2
 800277e:	71bb      	strb	r3, [r7, #6]
}
 8002780:	79bb      	ldrb	r3, [r7, #6]
 8002782:	f063 037f 	orn	r3, r3, #127	; 0x7f
 8002786:	b2db      	uxtb	r3, r3
 8002788:	73fb      	strb	r3, [r7, #15]

void ak09916_init()
 800278a:	79fb      	ldrb	r3, [r7, #7]
 800278c:	4618      	mov	r0, r3
 800278e:	f7ff ffd5 	bl	800273c <select_user_bank>
{
	icm20948_i2c_master_reset();
 8002792:	f7ff ffc7 	bl	8002724 <cs_low>
	icm20948_i2c_master_enable();
 8002796:	f107 010f 	add.w	r1, r7, #15
 800279a:	f44f 737a 	mov.w	r3, #1000	; 0x3e8
 800279e:	2201      	movs	r2, #1
 80027a0:	4808      	ldr	r0, [pc, #32]	; (80027c4 <read_single_icm20948_reg+0x54>)
 80027a2:	f005 f8e4 	bl	800796e <HAL_SPI_Transmit>
	icm20948_i2c_master_clk_frq(7);
 80027a6:	f107 010e 	add.w	r1, r7, #14
 80027aa:	f44f 737a 	mov.w	r3, #1000	; 0x3e8
 80027ae:	2201      	movs	r2, #1
 80027b0:	4804      	ldr	r0, [pc, #16]	; (80027c4 <read_single_icm20948_reg+0x54>)
 80027b2:	f005 fa18 	bl	8007be6 <HAL_SPI_Receive>

 80027b6:	f7ff ffa9 	bl	800270c <cs_high>
	while(!ak09916_who_am_i());

 80027ba:	7bbb      	ldrb	r3, [r7, #14]
	ak09916_soft_reset();
 80027bc:	4618      	mov	r0, r3
 80027be:	3710      	adds	r7, #16
 80027c0:	46bd      	mov	sp, r7
 80027c2:	bd80      	pop	{r7, pc}
 80027c4:	2000031c 	.word	0x2000031c

080027c8 <write_single_icm20948_reg>:
	ak09916_operation_mode_setting(continuous_measurement_100hz);
}

 80027c8:	b580      	push	{r7, lr}
 80027ca:	b084      	sub	sp, #16
 80027cc:	af00      	add	r7, sp, #0
 80027ce:	4603      	mov	r3, r0
 80027d0:	71fb      	strb	r3, [r7, #7]
 80027d2:	460b      	mov	r3, r1
 80027d4:	71bb      	strb	r3, [r7, #6]
 80027d6:	4613      	mov	r3, r2
 80027d8:	717b      	strb	r3, [r7, #5]
void icm20948_gyro_read(axises* data)
{
 80027da:	79bb      	ldrb	r3, [r7, #6]
 80027dc:	733b      	strb	r3, [r7, #12]
	uint8_t* temp = read_multiple_icm20948_reg(ub_0, B0_GYRO_XOUT_H, 6);
 80027de:	797b      	ldrb	r3, [r7, #5]
 80027e0:	737b      	strb	r3, [r7, #13]

	data->x = (int16_t)(temp[0] << 8 | temp[1]);
 80027e2:	79fb      	ldrb	r3, [r7, #7]
 80027e4:	4618      	mov	r0, r3
 80027e6:	f7ff ffa9 	bl	800273c <select_user_bank>
	data->y = (int16_t)(temp[2] << 8 | temp[3]);
	data->z = (int16_t)(temp[4] << 8 | temp[5]);
 80027ea:	f7ff ff9b 	bl	8002724 <cs_low>
}
 80027ee:	f107 010c 	add.w	r1, r7, #12
 80027f2:	f44f 737a 	mov.w	r3, #1000	; 0x3e8
 80027f6:	2202      	movs	r2, #2
 80027f8:	4804      	ldr	r0, [pc, #16]	; (800280c <write_single_icm20948_reg+0x44>)
 80027fa:	f005 f8b8 	bl	800796e <HAL_SPI_Transmit>

 80027fe:	f7ff ff85 	bl	800270c <cs_high>
void icm20948_accel_read(axises* data)
 8002802:	bf00      	nop
 8002804:	3710      	adds	r7, #16
 8002806:	46bd      	mov	sp, r7
 8002808:	bd80      	pop	{r7, pc}
 800280a:	bf00      	nop
 800280c:	2000031c 	.word	0x2000031c

08002810 <read_multiple_icm20948_reg>:
{
	uint8_t* temp = read_multiple_icm20948_reg(ub_0, B0_ACCEL_XOUT_H, 6);

 8002810:	b580      	push	{r7, lr}
 8002812:	b084      	sub	sp, #16
 8002814:	af00      	add	r7, sp, #0
 8002816:	4603      	mov	r3, r0
 8002818:	71fb      	strb	r3, [r7, #7]
 800281a:	460b      	mov	r3, r1
 800281c:	71bb      	strb	r3, [r7, #6]
 800281e:	4613      	mov	r3, r2
 8002820:	717b      	strb	r3, [r7, #5]
	data->x = (int16_t)(temp[0] << 8 | (temp[1]));
 8002822:	79bb      	ldrb	r3, [r7, #6]
 8002824:	f063 037f 	orn	r3, r3, #127	; 0x7f
 8002828:	b2db      	uxtb	r3, r3
 800282a:	73fb      	strb	r3, [r7, #15]
	data->y = (int16_t)(temp[2] << 8 | (temp[3]));
	data->z = (int16_t)(temp[4] << 8 | (temp[5]));
 800282c:	79fb      	ldrb	r3, [r7, #7]
 800282e:	4618      	mov	r0, r3
 8002830:	f7ff ff84 	bl	800273c <select_user_bank>

	// Add scale factor because calibraiton function offset gravity acceleration.
 8002834:	f7ff ff76 	bl	8002724 <cs_low>
}
 8002838:	f107 010f 	add.w	r1, r7, #15
 800283c:	f44f 737a 	mov.w	r3, #1000	; 0x3e8
 8002840:	2201      	movs	r2, #1
 8002842:	4809      	ldr	r0, [pc, #36]	; (8002868 <read_multiple_icm20948_reg+0x58>)
 8002844:	f005 f893 	bl	800796e <HAL_SPI_Transmit>

 8002848:	797b      	ldrb	r3, [r7, #5]
 800284a:	b29a      	uxth	r2, r3
 800284c:	f44f 737a 	mov.w	r3, #1000	; 0x3e8
 8002850:	4906      	ldr	r1, [pc, #24]	; (800286c <read_multiple_icm20948_reg+0x5c>)
 8002852:	4805      	ldr	r0, [pc, #20]	; (8002868 <read_multiple_icm20948_reg+0x58>)
 8002854:	f005 f9c7 	bl	8007be6 <HAL_SPI_Receive>
bool ak09916_mag_read(axises* data)
 8002858:	f7ff ff58 	bl	800270c <cs_high>
{
	uint8_t* temp;
 800285c:	4b03      	ldr	r3, [pc, #12]	; (800286c <read_multiple_icm20948_reg+0x5c>)
	uint8_t drdy, hofl;	// data ready, overflow
 800285e:	4618      	mov	r0, r3
 8002860:	3710      	adds	r7, #16
 8002862:	46bd      	mov	sp, r7
 8002864:	bd80      	pop	{r7, pc}
 8002866:	bf00      	nop
 8002868:	2000031c 	.word	0x2000031c
 800286c:	200000c4 	.word	0x200000c4

08002870 <write_multiple_icm20948_reg>:

	drdy = read_single_ak09916_reg(MAG_ST1) & 0x01;
	if(!drdy)	return false;
 8002870:	b580      	push	{r7, lr}
 8002872:	b084      	sub	sp, #16
 8002874:	af00      	add	r7, sp, #0
 8002876:	603a      	str	r2, [r7, #0]
 8002878:	461a      	mov	r2, r3
 800287a:	4603      	mov	r3, r0
 800287c:	71fb      	strb	r3, [r7, #7]
 800287e:	460b      	mov	r3, r1
 8002880:	71bb      	strb	r3, [r7, #6]
 8002882:	4613      	mov	r3, r2
 8002884:	717b      	strb	r3, [r7, #5]

 8002886:	79bb      	ldrb	r3, [r7, #6]
 8002888:	73fb      	strb	r3, [r7, #15]
	temp = read_multiple_ak09916_reg(MAG_HXL, 6);
 800288a:	79fb      	ldrb	r3, [r7, #7]
 800288c:	4618      	mov	r0, r3
 800288e:	f7ff ff55 	bl	800273c <select_user_bank>

	hofl = read_single_ak09916_reg(MAG_ST2) & 0x08;
 8002892:	f7ff ff47 	bl	8002724 <cs_low>
	if(hofl)	return false;
 8002896:	f107 010f 	add.w	r1, r7, #15
 800289a:	f44f 737a 	mov.w	r3, #1000	; 0x3e8
 800289e:	2201      	movs	r2, #1
 80028a0:	4808      	ldr	r0, [pc, #32]	; (80028c4 <write_multiple_icm20948_reg+0x54>)
 80028a2:	f005 f864 	bl	800796e <HAL_SPI_Transmit>

 80028a6:	797b      	ldrb	r3, [r7, #5]
 80028a8:	b29a      	uxth	r2, r3
 80028aa:	f44f 737a 	mov.w	r3, #1000	; 0x3e8
 80028ae:	6839      	ldr	r1, [r7, #0]
 80028b0:	4804      	ldr	r0, [pc, #16]	; (80028c4 <write_multiple_icm20948_reg+0x54>)
 80028b2:	f005 f85c 	bl	800796e <HAL_SPI_Transmit>
	data->x = (int16_t)(temp[1] << 8 | temp[0]);
 80028b6:	f7ff ff29 	bl	800270c <cs_high>
	data->y = (int16_t)(temp[3] << 8 | temp[2]);
 80028ba:	bf00      	nop
 80028bc:	3710      	adds	r7, #16
 80028be:	46bd      	mov	sp, r7
 80028c0:	bd80      	pop	{r7, pc}
 80028c2:	bf00      	nop
 80028c4:	2000031c 	.word	0x2000031c

080028c8 <write_single_ak09916_reg>:
	icm20948_gyro_read(data);

	data->x /= gyro_scale_factor;
	data->y /= gyro_scale_factor;
	data->z /= gyro_scale_factor;
}
 80028c8:	b580      	push	{r7, lr}
 80028ca:	b082      	sub	sp, #8
 80028cc:	af00      	add	r7, sp, #0
 80028ce:	4603      	mov	r3, r0
 80028d0:	460a      	mov	r2, r1
 80028d2:	71fb      	strb	r3, [r7, #7]
 80028d4:	4613      	mov	r3, r2
 80028d6:	71bb      	strb	r3, [r7, #6]

 80028d8:	220c      	movs	r2, #12
 80028da:	2103      	movs	r1, #3
 80028dc:	2030      	movs	r0, #48	; 0x30
 80028de:	f7ff ff73 	bl	80027c8 <write_single_icm20948_reg>
void icm20948_accel_read_g(axises* data)
 80028e2:	79fb      	ldrb	r3, [r7, #7]
 80028e4:	461a      	mov	r2, r3
 80028e6:	2104      	movs	r1, #4
 80028e8:	2030      	movs	r0, #48	; 0x30
 80028ea:	f7ff ff6d 	bl	80027c8 <write_single_icm20948_reg>
{
 80028ee:	79bb      	ldrb	r3, [r7, #6]
 80028f0:	461a      	mov	r2, r3
 80028f2:	2106      	movs	r1, #6
 80028f4:	2030      	movs	r0, #48	; 0x30
 80028f6:	f7ff ff67 	bl	80027c8 <write_single_icm20948_reg>
	icm20948_accel_read(data);
 80028fa:	2281      	movs	r2, #129	; 0x81
 80028fc:	2105      	movs	r1, #5
 80028fe:	2030      	movs	r0, #48	; 0x30
 8002900:	f7ff ff62 	bl	80027c8 <write_single_icm20948_reg>

 8002904:	bf00      	nop
 8002906:	3708      	adds	r7, #8
 8002908:	46bd      	mov	sp, r7
 800290a:	bd80      	pop	{r7, pc}

0800290c <icm20948_init>:
	if(!new_data)	return false;

	data->x = (float)(temp.x * 0.15);
	data->y = (float)(temp.y * 0.15);
	data->z = (float)(temp.z * 0.15);

 800290c:	b580      	push	{r7, lr}
 800290e:	af00      	add	r7, sp, #0
	return true;
 8002910:	f000 f90e 	bl	8002b30 <icm20948_device_reset>
}	
 8002914:	f000 f918 	bl	8002b48 <icm20948_wakeup>


 8002918:	2001      	movs	r0, #1
 800291a:	f000 f990 	bl	8002c3e <icm20948_clock_source>
/* Sub Functions */
 800291e:	f000 f9a7 	bl	8002c70 <icm20948_odr_align_enable>
bool icm20948_who_am_i()
{
 8002922:	f000 f92b 	bl	8002b7c <icm20948_spi_slave_enable>
	uint8_t icm20948_id = read_single_icm20948_reg(ub_0, B0_WHO_AM_I);

 8002926:	2000      	movs	r0, #0
 8002928:	f000 f9ab 	bl	8002c82 <icm20948_gyro_low_pass_filter>
	if(icm20948_id == ICM20948_ID)
 800292c:	2000      	movs	r0, #0
 800292e:	f000 f9c5 	bl	8002cbc <icm20948_accel_low_pass_filter>
		return true;
	else
 8002932:	2000      	movs	r0, #0
 8002934:	f000 f9df 	bl	8002cf6 <icm20948_gyro_sample_rate_divider>
		return false;
 8002938:	2000      	movs	r0, #0
 800293a:	f000 f9eb 	bl	8002d14 <icm20948_accel_sample_rate_divider>
}

 800293e:	f000 fa07 	bl	8002d50 <icm20948_gyro_calibration>
bool ak09916_who_am_i()
 8002942:	f000 faa1 	bl	8002e88 <icm20948_accel_calibration>
{
	uint8_t ak09916_id = read_single_ak09916_reg(MAG_WIA2);
 8002946:	2003      	movs	r0, #3
 8002948:	f000 fbac 	bl	80030a4 <icm20948_gyro_full_scale_select>

 800294c:	2003      	movs	r0, #3
 800294e:	f000 fbf3 	bl	8003138 <icm20948_accel_full_scale_select>
	if(ak09916_id == AK09916_ID)
 8002952:	bf00      	nop
 8002954:	bd80      	pop	{r7, pc}

08002956 <icm20948_gyro_read>:
		return true;
	else
		return false;
 8002956:	b580      	push	{r7, lr}
 8002958:	b084      	sub	sp, #16
 800295a:	af00      	add	r7, sp, #0
 800295c:	6078      	str	r0, [r7, #4]
}
 800295e:	2206      	movs	r2, #6
 8002960:	2133      	movs	r1, #51	; 0x33
 8002962:	2000      	movs	r0, #0
 8002964:	f7ff ff54 	bl	8002810 <read_multiple_icm20948_reg>
 8002968:	60f8      	str	r0, [r7, #12]

void icm20948_device_reset()
 800296a:	68fb      	ldr	r3, [r7, #12]
 800296c:	781b      	ldrb	r3, [r3, #0]
 800296e:	021b      	lsls	r3, r3, #8
 8002970:	b21a      	sxth	r2, r3
 8002972:	68fb      	ldr	r3, [r7, #12]
 8002974:	3301      	adds	r3, #1
 8002976:	781b      	ldrb	r3, [r3, #0]
 8002978:	b21b      	sxth	r3, r3
 800297a:	4313      	orrs	r3, r2
 800297c:	b21b      	sxth	r3, r3
 800297e:	ee07 3a90 	vmov	s15, r3
 8002982:	eef8 7ae7 	vcvt.f32.s32	s15, s15
 8002986:	687b      	ldr	r3, [r7, #4]
 8002988:	edc3 7a00 	vstr	s15, [r3]
{
 800298c:	68fb      	ldr	r3, [r7, #12]
 800298e:	3302      	adds	r3, #2
 8002990:	781b      	ldrb	r3, [r3, #0]
 8002992:	021b      	lsls	r3, r3, #8
 8002994:	b21a      	sxth	r2, r3
 8002996:	68fb      	ldr	r3, [r7, #12]
 8002998:	3303      	adds	r3, #3
 800299a:	781b      	ldrb	r3, [r3, #0]
 800299c:	b21b      	sxth	r3, r3
 800299e:	4313      	orrs	r3, r2
 80029a0:	b21b      	sxth	r3, r3
 80029a2:	ee07 3a90 	vmov	s15, r3
 80029a6:	eef8 7ae7 	vcvt.f32.s32	s15, s15
 80029aa:	687b      	ldr	r3, [r7, #4]
 80029ac:	edc3 7a01 	vstr	s15, [r3, #4]
	write_single_icm20948_reg(ub_0, B0_PWR_MGMT_1, 0x80 | 0x41);
 80029b0:	68fb      	ldr	r3, [r7, #12]
 80029b2:	3304      	adds	r3, #4
 80029b4:	781b      	ldrb	r3, [r3, #0]
 80029b6:	021b      	lsls	r3, r3, #8
 80029b8:	b21a      	sxth	r2, r3
 80029ba:	68fb      	ldr	r3, [r7, #12]
 80029bc:	3305      	adds	r3, #5
 80029be:	781b      	ldrb	r3, [r3, #0]
 80029c0:	b21b      	sxth	r3, r3
 80029c2:	4313      	orrs	r3, r2
 80029c4:	b21b      	sxth	r3, r3
 80029c6:	ee07 3a90 	vmov	s15, r3
 80029ca:	eef8 7ae7 	vcvt.f32.s32	s15, s15
 80029ce:	687b      	ldr	r3, [r7, #4]
 80029d0:	edc3 7a02 	vstr	s15, [r3, #8]
	HAL_Delay(100);
 80029d4:	bf00      	nop
 80029d6:	3710      	adds	r7, #16
 80029d8:	46bd      	mov	sp, r7
 80029da:	bd80      	pop	{r7, pc}

080029dc <icm20948_accel_read>:
}

void ak09916_soft_reset()
 80029dc:	b580      	push	{r7, lr}
 80029de:	b084      	sub	sp, #16
 80029e0:	af00      	add	r7, sp, #0
 80029e2:	6078      	str	r0, [r7, #4]
{
 80029e4:	2206      	movs	r2, #6
 80029e6:	212d      	movs	r1, #45	; 0x2d
 80029e8:	2000      	movs	r0, #0
 80029ea:	f7ff ff11 	bl	8002810 <read_multiple_icm20948_reg>
 80029ee:	60f8      	str	r0, [r7, #12]
	write_single_ak09916_reg(MAG_CNTL3, 0x01);
	HAL_Delay(100);
 80029f0:	68fb      	ldr	r3, [r7, #12]
 80029f2:	781b      	ldrb	r3, [r3, #0]
 80029f4:	021b      	lsls	r3, r3, #8
 80029f6:	b21a      	sxth	r2, r3
 80029f8:	68fb      	ldr	r3, [r7, #12]
 80029fa:	3301      	adds	r3, #1
 80029fc:	781b      	ldrb	r3, [r3, #0]
 80029fe:	b21b      	sxth	r3, r3
 8002a00:	4313      	orrs	r3, r2
 8002a02:	b21b      	sxth	r3, r3
 8002a04:	ee07 3a90 	vmov	s15, r3
 8002a08:	eef8 7ae7 	vcvt.f32.s32	s15, s15
 8002a0c:	687b      	ldr	r3, [r7, #4]
 8002a0e:	edc3 7a00 	vstr	s15, [r3]
}
 8002a12:	68fb      	ldr	r3, [r7, #12]
 8002a14:	3302      	adds	r3, #2
 8002a16:	781b      	ldrb	r3, [r3, #0]
 8002a18:	021b      	lsls	r3, r3, #8
 8002a1a:	b21a      	sxth	r2, r3
 8002a1c:	68fb      	ldr	r3, [r7, #12]
 8002a1e:	3303      	adds	r3, #3
 8002a20:	781b      	ldrb	r3, [r3, #0]
 8002a22:	b21b      	sxth	r3, r3
 8002a24:	4313      	orrs	r3, r2
 8002a26:	b21b      	sxth	r3, r3
 8002a28:	ee07 3a90 	vmov	s15, r3
 8002a2c:	eef8 7ae7 	vcvt.f32.s32	s15, s15
 8002a30:	687b      	ldr	r3, [r7, #4]
 8002a32:	edc3 7a01 	vstr	s15, [r3, #4]

 8002a36:	68fb      	ldr	r3, [r7, #12]
 8002a38:	3304      	adds	r3, #4
 8002a3a:	781b      	ldrb	r3, [r3, #0]
 8002a3c:	021b      	lsls	r3, r3, #8
 8002a3e:	b21a      	sxth	r2, r3
 8002a40:	68fb      	ldr	r3, [r7, #12]
 8002a42:	3305      	adds	r3, #5
 8002a44:	781b      	ldrb	r3, [r3, #0]
 8002a46:	b21b      	sxth	r3, r3
 8002a48:	4313      	orrs	r3, r2
 8002a4a:	b21b      	sxth	r3, r3
 8002a4c:	ee07 3a90 	vmov	s15, r3
 8002a50:	eef8 7ae7 	vcvt.f32.s32	s15, s15
 8002a54:	687b      	ldr	r3, [r7, #4]
 8002a56:	edc3 7a02 	vstr	s15, [r3, #8]
void icm20948_wakeup()
 8002a5a:	bf00      	nop
 8002a5c:	3710      	adds	r7, #16
 8002a5e:	46bd      	mov	sp, r7
 8002a60:	bd80      	pop	{r7, pc}
	...

08002a64 <icm20948_gyro_read_dps>:
{
	uint8_t new_val = read_single_icm20948_reg(ub_0, B0_PWR_MGMT_1);
	new_val &= 0xBF;
 8002a64:	b580      	push	{r7, lr}
 8002a66:	b082      	sub	sp, #8
 8002a68:	af00      	add	r7, sp, #0
 8002a6a:	6078      	str	r0, [r7, #4]

 8002a6c:	6878      	ldr	r0, [r7, #4]
 8002a6e:	f7ff ff72 	bl	8002956 <icm20948_gyro_read>
	write_single_icm20948_reg(ub_0, B0_PWR_MGMT_1, new_val);
	HAL_Delay(100);
 8002a72:	687b      	ldr	r3, [r7, #4]
 8002a74:	edd3 6a00 	vldr	s13, [r3]
 8002a78:	4b10      	ldr	r3, [pc, #64]	; (8002abc <icm20948_gyro_read_dps+0x58>)
 8002a7a:	ed93 7a00 	vldr	s14, [r3]
 8002a7e:	eec6 7a87 	vdiv.f32	s15, s13, s14
 8002a82:	687b      	ldr	r3, [r7, #4]
 8002a84:	edc3 7a00 	vstr	s15, [r3]
}
 8002a88:	687b      	ldr	r3, [r7, #4]
 8002a8a:	edd3 6a01 	vldr	s13, [r3, #4]
 8002a8e:	4b0b      	ldr	r3, [pc, #44]	; (8002abc <icm20948_gyro_read_dps+0x58>)
 8002a90:	ed93 7a00 	vldr	s14, [r3]
 8002a94:	eec6 7a87 	vdiv.f32	s15, s13, s14
 8002a98:	687b      	ldr	r3, [r7, #4]
 8002a9a:	edc3 7a01 	vstr	s15, [r3, #4]

 8002a9e:	687b      	ldr	r3, [r7, #4]
 8002aa0:	edd3 6a02 	vldr	s13, [r3, #8]
 8002aa4:	4b05      	ldr	r3, [pc, #20]	; (8002abc <icm20948_gyro_read_dps+0x58>)
 8002aa6:	ed93 7a00 	vldr	s14, [r3]
 8002aaa:	eec6 7a87 	vdiv.f32	s15, s13, s14
 8002aae:	687b      	ldr	r3, [r7, #4]
 8002ab0:	edc3 7a02 	vstr	s15, [r3, #8]
void icm20948_sleep()
 8002ab4:	bf00      	nop
 8002ab6:	3708      	adds	r7, #8
 8002ab8:	46bd      	mov	sp, r7
 8002aba:	bd80      	pop	{r7, pc}
 8002abc:	200000bc 	.word	0x200000bc

08002ac0 <icm20948_accel_read_g>:
{
	uint8_t new_val = read_single_icm20948_reg(ub_0, B0_PWR_MGMT_1);
	new_val |= 0x40;
 8002ac0:	b580      	push	{r7, lr}
 8002ac2:	b082      	sub	sp, #8
 8002ac4:	af00      	add	r7, sp, #0
 8002ac6:	6078      	str	r0, [r7, #4]

 8002ac8:	6878      	ldr	r0, [r7, #4]
 8002aca:	f7ff ff87 	bl	80029dc <icm20948_accel_read>
	write_single_icm20948_reg(ub_0, B0_PWR_MGMT_1, new_val);
	HAL_Delay(100);
 8002ace:	687b      	ldr	r3, [r7, #4]
 8002ad0:	edd3 6a00 	vldr	s13, [r3]
 8002ad4:	4b15      	ldr	r3, [pc, #84]	; (8002b2c <icm20948_accel_read_g+0x6c>)
 8002ad6:	ed93 7a00 	vldr	s14, [r3]
 8002ada:	eec6 7a87 	vdiv.f32	s15, s13, s14
 8002ade:	687b      	ldr	r3, [r7, #4]
 8002ae0:	edc3 7a00 	vstr	s15, [r3]
}
 8002ae4:	687b      	ldr	r3, [r7, #4]
 8002ae6:	edd3 6a01 	vldr	s13, [r3, #4]
 8002aea:	4b10      	ldr	r3, [pc, #64]	; (8002b2c <icm20948_accel_read_g+0x6c>)
 8002aec:	ed93 7a00 	vldr	s14, [r3]
 8002af0:	eec6 7a87 	vdiv.f32	s15, s13, s14
 8002af4:	687b      	ldr	r3, [r7, #4]
 8002af6:	edc3 7a01 	vstr	s15, [r3, #4]

 8002afa:	687b      	ldr	r3, [r7, #4]
 8002afc:	edd3 6a02 	vldr	s13, [r3, #8]
 8002b00:	4b0a      	ldr	r3, [pc, #40]	; (8002b2c <icm20948_accel_read_g+0x6c>)
 8002b02:	ed93 7a00 	vldr	s14, [r3]
 8002b06:	eec6 7a87 	vdiv.f32	s15, s13, s14
 8002b0a:	687b      	ldr	r3, [r7, #4]
 8002b0c:	edc3 7a02 	vstr	s15, [r3, #8]
void icm20948_spi_slave_enable()
{
 8002b10:	687b      	ldr	r3, [r7, #4]
 8002b12:	edd3 7a02 	vldr	s15, [r3, #8]
 8002b16:	eeb7 7a00 	vmov.f32	s14, #112	; 0x3f800000  1.0
 8002b1a:	ee77 7a87 	vadd.f32	s15, s15, s14
 8002b1e:	687b      	ldr	r3, [r7, #4]
 8002b20:	edc3 7a02 	vstr	s15, [r3, #8]
	uint8_t new_val = read_single_icm20948_reg(ub_0, B0_USER_CTRL);
 8002b24:	bf00      	nop
 8002b26:	3708      	adds	r7, #8
 8002b28:	46bd      	mov	sp, r7
 8002b2a:	bd80      	pop	{r7, pc}
 8002b2c:	200000c0 	.word	0x200000c0

08002b30 <icm20948_device_reset>:

	write_single_icm20948_reg(ub_0, B0_USER_CTRL, new_val);
}

void icm20948_i2c_master_enable()
{
 8002b30:	b580      	push	{r7, lr}
 8002b32:	af00      	add	r7, sp, #0
	uint8_t new_val = read_single_icm20948_reg(ub_0, B0_USER_CTRL);
 8002b34:	22c1      	movs	r2, #193	; 0xc1
 8002b36:	2106      	movs	r1, #6
 8002b38:	2000      	movs	r0, #0
 8002b3a:	f7ff fe45 	bl	80027c8 <write_single_icm20948_reg>
	new_val |= 0x20;
 8002b3e:	2064      	movs	r0, #100	; 0x64
 8002b40:	f003 f8ae 	bl	8005ca0 <HAL_Delay>

 8002b44:	bf00      	nop
 8002b46:	bd80      	pop	{r7, pc}

08002b48 <icm20948_wakeup>:
	write_single_icm20948_reg(ub_0, B0_USER_CTRL, new_val);
	HAL_Delay(100);
}
 8002b48:	b580      	push	{r7, lr}
 8002b4a:	b082      	sub	sp, #8
 8002b4c:	af00      	add	r7, sp, #0

 8002b4e:	2106      	movs	r1, #6
 8002b50:	2000      	movs	r0, #0
 8002b52:	f7ff fe0d 	bl	8002770 <read_single_icm20948_reg>
 8002b56:	4603      	mov	r3, r0
 8002b58:	71fb      	strb	r3, [r7, #7]
void icm20948_i2c_master_clk_frq(uint8_t config)
 8002b5a:	79fb      	ldrb	r3, [r7, #7]
 8002b5c:	f023 0340 	bic.w	r3, r3, #64	; 0x40
 8002b60:	71fb      	strb	r3, [r7, #7]
{
	uint8_t new_val = read_single_icm20948_reg(ub_3, B3_I2C_MST_CTRL);
 8002b62:	79fb      	ldrb	r3, [r7, #7]
 8002b64:	461a      	mov	r2, r3
 8002b66:	2106      	movs	r1, #6
 8002b68:	2000      	movs	r0, #0
 8002b6a:	f7ff fe2d 	bl	80027c8 <write_single_icm20948_reg>
	new_val |= config;
 8002b6e:	2064      	movs	r0, #100	; 0x64
 8002b70:	f003 f896 	bl	8005ca0 <HAL_Delay>

 8002b74:	bf00      	nop
 8002b76:	3708      	adds	r7, #8
 8002b78:	46bd      	mov	sp, r7
 8002b7a:	bd80      	pop	{r7, pc}

08002b7c <icm20948_spi_slave_enable>:
	new_val |= source;

	write_single_icm20948_reg(ub_0, B0_PWR_MGMT_1, new_val);
}

void icm20948_odr_align_enable()
 8002b7c:	b580      	push	{r7, lr}
 8002b7e:	b082      	sub	sp, #8
 8002b80:	af00      	add	r7, sp, #0
{
 8002b82:	2103      	movs	r1, #3
 8002b84:	2000      	movs	r0, #0
 8002b86:	f7ff fdf3 	bl	8002770 <read_single_icm20948_reg>
 8002b8a:	4603      	mov	r3, r0
 8002b8c:	71fb      	strb	r3, [r7, #7]
	write_single_icm20948_reg(ub_2, B2_ODR_ALIGN_EN, 0x01);
 8002b8e:	79fb      	ldrb	r3, [r7, #7]
 8002b90:	f043 0310 	orr.w	r3, r3, #16
 8002b94:	71fb      	strb	r3, [r7, #7]
}

 8002b96:	79fb      	ldrb	r3, [r7, #7]
 8002b98:	461a      	mov	r2, r3
 8002b9a:	2103      	movs	r1, #3
 8002b9c:	2000      	movs	r0, #0
 8002b9e:	f7ff fe13 	bl	80027c8 <write_single_icm20948_reg>
void icm20948_gyro_low_pass_filter(uint8_t config)
 8002ba2:	bf00      	nop
 8002ba4:	3708      	adds	r7, #8
 8002ba6:	46bd      	mov	sp, r7
 8002ba8:	bd80      	pop	{r7, pc}

08002baa <icm20948_i2c_master_reset>:
{
	uint8_t new_val = read_single_icm20948_reg(ub_2, B2_GYRO_CONFIG_1);
	new_val |= config << 3;
 8002baa:	b580      	push	{r7, lr}
 8002bac:	b082      	sub	sp, #8
 8002bae:	af00      	add	r7, sp, #0

 8002bb0:	2103      	movs	r1, #3
 8002bb2:	2000      	movs	r0, #0
 8002bb4:	f7ff fddc 	bl	8002770 <read_single_icm20948_reg>
 8002bb8:	4603      	mov	r3, r0
 8002bba:	71fb      	strb	r3, [r7, #7]
	write_single_icm20948_reg(ub_2, B2_GYRO_CONFIG_1, new_val);
 8002bbc:	79fb      	ldrb	r3, [r7, #7]
 8002bbe:	f043 0302 	orr.w	r3, r3, #2
 8002bc2:	71fb      	strb	r3, [r7, #7]
}

 8002bc4:	79fb      	ldrb	r3, [r7, #7]
 8002bc6:	461a      	mov	r2, r3
 8002bc8:	2103      	movs	r1, #3
 8002bca:	2000      	movs	r0, #0
 8002bcc:	f7ff fdfc 	bl	80027c8 <write_single_icm20948_reg>
void icm20948_accel_low_pass_filter(uint8_t config)
 8002bd0:	bf00      	nop
 8002bd2:	3708      	adds	r7, #8
 8002bd4:	46bd      	mov	sp, r7
 8002bd6:	bd80      	pop	{r7, pc}

08002bd8 <icm20948_i2c_master_enable>:
{
	uint8_t new_val = read_single_icm20948_reg(ub_2, B2_ACCEL_CONFIG);
	new_val |= config << 3;
 8002bd8:	b580      	push	{r7, lr}
 8002bda:	b082      	sub	sp, #8
 8002bdc:	af00      	add	r7, sp, #0

 8002bde:	2103      	movs	r1, #3
 8002be0:	2000      	movs	r0, #0
 8002be2:	f7ff fdc5 	bl	8002770 <read_single_icm20948_reg>
 8002be6:	4603      	mov	r3, r0
 8002be8:	71fb      	strb	r3, [r7, #7]
	write_single_icm20948_reg(ub_2, B2_GYRO_CONFIG_1, new_val);
 8002bea:	79fb      	ldrb	r3, [r7, #7]
 8002bec:	f043 0320 	orr.w	r3, r3, #32
 8002bf0:	71fb      	strb	r3, [r7, #7]
}

 8002bf2:	79fb      	ldrb	r3, [r7, #7]
 8002bf4:	461a      	mov	r2, r3
 8002bf6:	2103      	movs	r1, #3
 8002bf8:	2000      	movs	r0, #0
 8002bfa:	f7ff fde5 	bl	80027c8 <write_single_icm20948_reg>
void icm20948_gyro_sample_rate_divider(uint8_t divider)
 8002bfe:	2064      	movs	r0, #100	; 0x64
 8002c00:	f003 f84e 	bl	8005ca0 <HAL_Delay>
{
 8002c04:	bf00      	nop
 8002c06:	3708      	adds	r7, #8
 8002c08:	46bd      	mov	sp, r7
 8002c0a:	bd80      	pop	{r7, pc}

08002c0c <icm20948_i2c_master_clk_frq>:
	write_single_icm20948_reg(ub_2, B2_GYRO_SMPLRT_DIV, divider);
}

 8002c0c:	b580      	push	{r7, lr}
 8002c0e:	b084      	sub	sp, #16
 8002c10:	af00      	add	r7, sp, #0
 8002c12:	4603      	mov	r3, r0
 8002c14:	71fb      	strb	r3, [r7, #7]
void icm20948_accel_sample_rate_divider(uint16_t divider)
 8002c16:	2101      	movs	r1, #1
 8002c18:	2030      	movs	r0, #48	; 0x30
 8002c1a:	f7ff fda9 	bl	8002770 <read_single_icm20948_reg>
 8002c1e:	4603      	mov	r3, r0
 8002c20:	73fb      	strb	r3, [r7, #15]
{
 8002c22:	7bfa      	ldrb	r2, [r7, #15]
 8002c24:	79fb      	ldrb	r3, [r7, #7]
 8002c26:	4313      	orrs	r3, r2
 8002c28:	73fb      	strb	r3, [r7, #15]
	uint8_t divider_1 = (uint8_t)(divider >> 8);
	uint8_t divider_2 = (uint8_t)(0x0F & divider);
 8002c2a:	7bfb      	ldrb	r3, [r7, #15]
 8002c2c:	461a      	mov	r2, r3
 8002c2e:	2101      	movs	r1, #1
 8002c30:	2030      	movs	r0, #48	; 0x30
 8002c32:	f7ff fdc9 	bl	80027c8 <write_single_icm20948_reg>

 8002c36:	bf00      	nop
 8002c38:	3710      	adds	r7, #16
 8002c3a:	46bd      	mov	sp, r7
 8002c3c:	bd80      	pop	{r7, pc}

08002c3e <icm20948_clock_source>:
	write_single_icm20948_reg(ub_2, B2_ACCEL_SMPLRT_DIV_1, divider_1);
	write_single_icm20948_reg(ub_2, B2_ACCEL_SMPLRT_DIV_2, divider_2);
}
 8002c3e:	b580      	push	{r7, lr}
 8002c40:	b084      	sub	sp, #16
 8002c42:	af00      	add	r7, sp, #0
 8002c44:	4603      	mov	r3, r0
 8002c46:	71fb      	strb	r3, [r7, #7]

 8002c48:	2106      	movs	r1, #6
 8002c4a:	2000      	movs	r0, #0
 8002c4c:	f7ff fd90 	bl	8002770 <read_single_icm20948_reg>
 8002c50:	4603      	mov	r3, r0
 8002c52:	73fb      	strb	r3, [r7, #15]
void ak09916_operation_mode_setting(operation_mode mode)
 8002c54:	7bfa      	ldrb	r2, [r7, #15]
 8002c56:	79fb      	ldrb	r3, [r7, #7]
 8002c58:	4313      	orrs	r3, r2
 8002c5a:	73fb      	strb	r3, [r7, #15]
{
	write_single_ak09916_reg(MAG_CNTL2, mode);
 8002c5c:	7bfb      	ldrb	r3, [r7, #15]
 8002c5e:	461a      	mov	r2, r3
 8002c60:	2106      	movs	r1, #6
 8002c62:	2000      	movs	r0, #0
 8002c64:	f7ff fdb0 	bl	80027c8 <write_single_icm20948_reg>
	HAL_Delay(100);
 8002c68:	bf00      	nop
 8002c6a:	3710      	adds	r7, #16
 8002c6c:	46bd      	mov	sp, r7
 8002c6e:	bd80      	pop	{r7, pc}

08002c70 <icm20948_odr_align_enable>:
}

void icm20948_gyro_calibration()
 8002c70:	b580      	push	{r7, lr}
 8002c72:	af00      	add	r7, sp, #0
{
 8002c74:	2201      	movs	r2, #1
 8002c76:	2109      	movs	r1, #9
 8002c78:	2020      	movs	r0, #32
 8002c7a:	f7ff fda5 	bl	80027c8 <write_single_icm20948_reg>
	axises temp;
 8002c7e:	bf00      	nop
 8002c80:	bd80      	pop	{r7, pc}

08002c82 <icm20948_gyro_low_pass_filter>:
	int32_t gyro_bias[3] = {0};
	uint8_t gyro_offset[6] = {0};

 8002c82:	b580      	push	{r7, lr}
 8002c84:	b084      	sub	sp, #16
 8002c86:	af00      	add	r7, sp, #0
 8002c88:	4603      	mov	r3, r0
 8002c8a:	71fb      	strb	r3, [r7, #7]
	for(int i = 0; i < 100; i++)
 8002c8c:	2101      	movs	r1, #1
 8002c8e:	2020      	movs	r0, #32
 8002c90:	f7ff fd6e 	bl	8002770 <read_single_icm20948_reg>
 8002c94:	4603      	mov	r3, r0
 8002c96:	73fb      	strb	r3, [r7, #15]
	{
 8002c98:	79fb      	ldrb	r3, [r7, #7]
 8002c9a:	00db      	lsls	r3, r3, #3
 8002c9c:	b25a      	sxtb	r2, r3
 8002c9e:	f997 300f 	ldrsb.w	r3, [r7, #15]
 8002ca2:	4313      	orrs	r3, r2
 8002ca4:	b25b      	sxtb	r3, r3
 8002ca6:	73fb      	strb	r3, [r7, #15]
		icm20948_gyro_read(&temp);
		gyro_bias[0] += temp.x;
 8002ca8:	7bfb      	ldrb	r3, [r7, #15]
 8002caa:	461a      	mov	r2, r3
 8002cac:	2101      	movs	r1, #1
 8002cae:	2020      	movs	r0, #32
 8002cb0:	f7ff fd8a 	bl	80027c8 <write_single_icm20948_reg>
		gyro_bias[1] += temp.y;
 8002cb4:	bf00      	nop
 8002cb6:	3710      	adds	r7, #16
 8002cb8:	46bd      	mov	sp, r7
 8002cba:	bd80      	pop	{r7, pc}

08002cbc <icm20948_accel_low_pass_filter>:
		gyro_bias[2] += temp.z;
	}

 8002cbc:	b580      	push	{r7, lr}
 8002cbe:	b084      	sub	sp, #16
 8002cc0:	af00      	add	r7, sp, #0
 8002cc2:	4603      	mov	r3, r0
 8002cc4:	71fb      	strb	r3, [r7, #7]
	gyro_bias[0] /= 100;
 8002cc6:	2114      	movs	r1, #20
 8002cc8:	2020      	movs	r0, #32
 8002cca:	f7ff fd51 	bl	8002770 <read_single_icm20948_reg>
 8002cce:	4603      	mov	r3, r0
 8002cd0:	73fb      	strb	r3, [r7, #15]
	gyro_bias[1] /= 100;
 8002cd2:	79fb      	ldrb	r3, [r7, #7]
 8002cd4:	00db      	lsls	r3, r3, #3
 8002cd6:	b25a      	sxtb	r2, r3
 8002cd8:	f997 300f 	ldrsb.w	r3, [r7, #15]
 8002cdc:	4313      	orrs	r3, r2
 8002cde:	b25b      	sxtb	r3, r3
 8002ce0:	73fb      	strb	r3, [r7, #15]
	gyro_bias[2] /= 100;

 8002ce2:	7bfb      	ldrb	r3, [r7, #15]
 8002ce4:	461a      	mov	r2, r3
 8002ce6:	2101      	movs	r1, #1
 8002ce8:	2020      	movs	r0, #32
 8002cea:	f7ff fd6d 	bl	80027c8 <write_single_icm20948_reg>
	// Construct the gyro biases for push to the hardware gyro bias registers,
 8002cee:	bf00      	nop
 8002cf0:	3710      	adds	r7, #16
 8002cf2:	46bd      	mov	sp, r7
 8002cf4:	bd80      	pop	{r7, pc}

08002cf6 <icm20948_gyro_sample_rate_divider>:
	// which are reset to zero upon device startup.
	// Divide by 4 to get 32.9 LSB per deg/s to conform to expected bias input format.
	// Biases are additive, so change sign on calculated average gyro biases
 8002cf6:	b580      	push	{r7, lr}
 8002cf8:	b082      	sub	sp, #8
 8002cfa:	af00      	add	r7, sp, #0
 8002cfc:	4603      	mov	r3, r0
 8002cfe:	71fb      	strb	r3, [r7, #7]
	gyro_offset[0] = (-gyro_bias[0] / 4  >> 8) & 0xFF; 
 8002d00:	79fb      	ldrb	r3, [r7, #7]
 8002d02:	461a      	mov	r2, r3
 8002d04:	2100      	movs	r1, #0
 8002d06:	2020      	movs	r0, #32
 8002d08:	f7ff fd5e 	bl	80027c8 <write_single_icm20948_reg>
	gyro_offset[1] = (-gyro_bias[0] / 4)       & 0xFF; 
 8002d0c:	bf00      	nop
 8002d0e:	3708      	adds	r7, #8
 8002d10:	46bd      	mov	sp, r7
 8002d12:	bd80      	pop	{r7, pc}

08002d14 <icm20948_accel_sample_rate_divider>:
	gyro_offset[2] = (-gyro_bias[1] / 4  >> 8) & 0xFF;
	gyro_offset[3] = (-gyro_bias[1] / 4)       & 0xFF;
	gyro_offset[4] = (-gyro_bias[2] / 4  >> 8) & 0xFF;
 8002d14:	b580      	push	{r7, lr}
 8002d16:	b084      	sub	sp, #16
 8002d18:	af00      	add	r7, sp, #0
 8002d1a:	4603      	mov	r3, r0
 8002d1c:	80fb      	strh	r3, [r7, #6]
	gyro_offset[5] = (-gyro_bias[2] / 4)       & 0xFF;
 8002d1e:	88fb      	ldrh	r3, [r7, #6]
 8002d20:	0a1b      	lsrs	r3, r3, #8
 8002d22:	b29b      	uxth	r3, r3
 8002d24:	73fb      	strb	r3, [r7, #15]
	
 8002d26:	88fb      	ldrh	r3, [r7, #6]
 8002d28:	b2db      	uxtb	r3, r3
 8002d2a:	f003 030f 	and.w	r3, r3, #15
 8002d2e:	73bb      	strb	r3, [r7, #14]
	write_multiple_icm20948_reg(ub_2, B2_XG_OFFS_USRH, gyro_offset, 6);
}
 8002d30:	7bfb      	ldrb	r3, [r7, #15]
 8002d32:	461a      	mov	r2, r3
 8002d34:	2110      	movs	r1, #16
 8002d36:	2020      	movs	r0, #32
 8002d38:	f7ff fd46 	bl	80027c8 <write_single_icm20948_reg>

 8002d3c:	7bbb      	ldrb	r3, [r7, #14]
 8002d3e:	461a      	mov	r2, r3
 8002d40:	2111      	movs	r1, #17
 8002d42:	2020      	movs	r0, #32
 8002d44:	f7ff fd40 	bl	80027c8 <write_single_icm20948_reg>
void icm20948_accel_calibration()
 8002d48:	bf00      	nop
 8002d4a:	3710      	adds	r7, #16
 8002d4c:	46bd      	mov	sp, r7
 8002d4e:	bd80      	pop	{r7, pc}

08002d50 <icm20948_gyro_calibration>:
{
	axises temp;
	uint8_t* temp2;
 8002d50:	b580      	push	{r7, lr}
 8002d52:	b08a      	sub	sp, #40	; 0x28
 8002d54:	af00      	add	r7, sp, #0
	uint8_t* temp3;
	uint8_t* temp4;
 8002d56:	f107 030c 	add.w	r3, r7, #12
 8002d5a:	2200      	movs	r2, #0
 8002d5c:	601a      	str	r2, [r3, #0]
 8002d5e:	605a      	str	r2, [r3, #4]
 8002d60:	609a      	str	r2, [r3, #8]
	
 8002d62:	2300      	movs	r3, #0
 8002d64:	607b      	str	r3, [r7, #4]
 8002d66:	2300      	movs	r3, #0
 8002d68:	813b      	strh	r3, [r7, #8]
	int32_t accel_bias[3] = {0};
	int32_t accel_bias_reg[3] = {0};
 8002d6a:	2300      	movs	r3, #0
 8002d6c:	627b      	str	r3, [r7, #36]	; 0x24
 8002d6e:	e031      	b.n	8002dd4 <icm20948_gyro_calibration+0x84>
	uint8_t accel_offset[6] = {0};

 8002d70:	f107 0318 	add.w	r3, r7, #24
 8002d74:	4618      	mov	r0, r3
 8002d76:	f7ff fdee 	bl	8002956 <icm20948_gyro_read>
	for(int i = 0; i < 100; i++)
 8002d7a:	68fb      	ldr	r3, [r7, #12]
 8002d7c:	ee07 3a90 	vmov	s15, r3
 8002d80:	eeb8 7ae7 	vcvt.f32.s32	s14, s15
 8002d84:	edd7 7a06 	vldr	s15, [r7, #24]
 8002d88:	ee77 7a27 	vadd.f32	s15, s14, s15
 8002d8c:	eefd 7ae7 	vcvt.s32.f32	s15, s15
 8002d90:	ee17 3a90 	vmov	r3, s15
 8002d94:	60fb      	str	r3, [r7, #12]
	{
 8002d96:	693b      	ldr	r3, [r7, #16]
 8002d98:	ee07 3a90 	vmov	s15, r3
 8002d9c:	eeb8 7ae7 	vcvt.f32.s32	s14, s15
 8002da0:	edd7 7a07 	vldr	s15, [r7, #28]
 8002da4:	ee77 7a27 	vadd.f32	s15, s14, s15
 8002da8:	eefd 7ae7 	vcvt.s32.f32	s15, s15
 8002dac:	ee17 3a90 	vmov	r3, s15
 8002db0:	613b      	str	r3, [r7, #16]
		icm20948_accel_read(&temp);
 8002db2:	697b      	ldr	r3, [r7, #20]
 8002db4:	ee07 3a90 	vmov	s15, r3
 8002db8:	eeb8 7ae7 	vcvt.f32.s32	s14, s15
 8002dbc:	edd7 7a08 	vldr	s15, [r7, #32]
 8002dc0:	ee77 7a27 	vadd.f32	s15, s14, s15
 8002dc4:	eefd 7ae7 	vcvt.s32.f32	s15, s15
 8002dc8:	ee17 3a90 	vmov	r3, s15
 8002dcc:	617b      	str	r3, [r7, #20]
	int32_t accel_bias_reg[3] = {0};
 8002dce:	6a7b      	ldr	r3, [r7, #36]	; 0x24
 8002dd0:	3301      	adds	r3, #1
 8002dd2:	627b      	str	r3, [r7, #36]	; 0x24
 8002dd4:	6a7b      	ldr	r3, [r7, #36]	; 0x24
 8002dd6:	2b63      	cmp	r3, #99	; 0x63
 8002dd8:	ddca      	ble.n	8002d70 <icm20948_gyro_calibration+0x20>
		accel_bias[0] += temp.x;
		accel_bias[1] += temp.y;
		accel_bias[2] += temp.z;
 8002dda:	68fb      	ldr	r3, [r7, #12]
 8002ddc:	4a29      	ldr	r2, [pc, #164]	; (8002e84 <icm20948_gyro_calibration+0x134>)
 8002dde:	fb82 1203 	smull	r1, r2, r2, r3
 8002de2:	1152      	asrs	r2, r2, #5
 8002de4:	17db      	asrs	r3, r3, #31
 8002de6:	1ad3      	subs	r3, r2, r3
 8002de8:	60fb      	str	r3, [r7, #12]
	}
 8002dea:	693b      	ldr	r3, [r7, #16]
 8002dec:	4a25      	ldr	r2, [pc, #148]	; (8002e84 <icm20948_gyro_calibration+0x134>)
 8002dee:	fb82 1203 	smull	r1, r2, r2, r3
 8002df2:	1152      	asrs	r2, r2, #5
 8002df4:	17db      	asrs	r3, r3, #31
 8002df6:	1ad3      	subs	r3, r2, r3
 8002df8:	613b      	str	r3, [r7, #16]

 8002dfa:	697b      	ldr	r3, [r7, #20]
 8002dfc:	4a21      	ldr	r2, [pc, #132]	; (8002e84 <icm20948_gyro_calibration+0x134>)
 8002dfe:	fb82 1203 	smull	r1, r2, r2, r3
 8002e02:	1152      	asrs	r2, r2, #5
 8002e04:	17db      	asrs	r3, r3, #31
 8002e06:	1ad3      	subs	r3, r2, r3
 8002e08:	617b      	str	r3, [r7, #20]
	accel_bias[0] /= 100;
	accel_bias[1] /= 100;
	accel_bias[2] /= 100;

	uint8_t mask_bit[3] = {0, 0, 0};

 8002e0a:	68fb      	ldr	r3, [r7, #12]
 8002e0c:	425b      	negs	r3, r3
 8002e0e:	2b00      	cmp	r3, #0
 8002e10:	da00      	bge.n	8002e14 <icm20948_gyro_calibration+0xc4>
 8002e12:	3303      	adds	r3, #3
 8002e14:	109b      	asrs	r3, r3, #2
 8002e16:	121b      	asrs	r3, r3, #8
 8002e18:	b2db      	uxtb	r3, r3
 8002e1a:	713b      	strb	r3, [r7, #4]
	temp2 = read_multiple_icm20948_reg(ub_1, B1_XA_OFFS_H, 2);
 8002e1c:	68fb      	ldr	r3, [r7, #12]
 8002e1e:	425b      	negs	r3, r3
 8002e20:	2b00      	cmp	r3, #0
 8002e22:	da00      	bge.n	8002e26 <icm20948_gyro_calibration+0xd6>
 8002e24:	3303      	adds	r3, #3
 8002e26:	109b      	asrs	r3, r3, #2
 8002e28:	b2db      	uxtb	r3, r3
 8002e2a:	717b      	strb	r3, [r7, #5]
	accel_bias_reg[0] = (int32_t)(temp2[0] << 8 | temp2[1]);
 8002e2c:	693b      	ldr	r3, [r7, #16]
 8002e2e:	425b      	negs	r3, r3
 8002e30:	2b00      	cmp	r3, #0
 8002e32:	da00      	bge.n	8002e36 <icm20948_gyro_calibration+0xe6>
 8002e34:	3303      	adds	r3, #3
 8002e36:	109b      	asrs	r3, r3, #2
 8002e38:	121b      	asrs	r3, r3, #8
 8002e3a:	b2db      	uxtb	r3, r3
 8002e3c:	71bb      	strb	r3, [r7, #6]
	mask_bit[0] = temp2[1] & 0x01;
 8002e3e:	693b      	ldr	r3, [r7, #16]
 8002e40:	425b      	negs	r3, r3
 8002e42:	2b00      	cmp	r3, #0
 8002e44:	da00      	bge.n	8002e48 <icm20948_gyro_calibration+0xf8>
 8002e46:	3303      	adds	r3, #3
 8002e48:	109b      	asrs	r3, r3, #2
 8002e4a:	b2db      	uxtb	r3, r3
 8002e4c:	71fb      	strb	r3, [r7, #7]

 8002e4e:	697b      	ldr	r3, [r7, #20]
 8002e50:	425b      	negs	r3, r3
 8002e52:	2b00      	cmp	r3, #0
 8002e54:	da00      	bge.n	8002e58 <icm20948_gyro_calibration+0x108>
 8002e56:	3303      	adds	r3, #3
 8002e58:	109b      	asrs	r3, r3, #2
 8002e5a:	121b      	asrs	r3, r3, #8
 8002e5c:	b2db      	uxtb	r3, r3
 8002e5e:	723b      	strb	r3, [r7, #8]
	temp3 = read_multiple_icm20948_reg(ub_1, B1_YA_OFFS_H, 2);
 8002e60:	697b      	ldr	r3, [r7, #20]
 8002e62:	425b      	negs	r3, r3
 8002e64:	2b00      	cmp	r3, #0
 8002e66:	da00      	bge.n	8002e6a <icm20948_gyro_calibration+0x11a>
 8002e68:	3303      	adds	r3, #3
 8002e6a:	109b      	asrs	r3, r3, #2
 8002e6c:	b2db      	uxtb	r3, r3
 8002e6e:	727b      	strb	r3, [r7, #9]
	accel_bias_reg[1] = (int32_t)(temp3[0] << 8 | temp3[1]);
	mask_bit[1] = temp3[1] & 0x01;
 8002e70:	1d3a      	adds	r2, r7, #4
 8002e72:	2306      	movs	r3, #6
 8002e74:	2103      	movs	r1, #3
 8002e76:	2020      	movs	r0, #32
 8002e78:	f7ff fcfa 	bl	8002870 <write_multiple_icm20948_reg>

 8002e7c:	bf00      	nop
 8002e7e:	3728      	adds	r7, #40	; 0x28
 8002e80:	46bd      	mov	sp, r7
 8002e82:	bd80      	pop	{r7, pc}
 8002e84:	51eb851f 	.word	0x51eb851f

08002e88 <icm20948_accel_calibration>:
	temp4 = read_multiple_icm20948_reg(ub_1, B1_ZA_OFFS_H, 2);
	accel_bias_reg[2] = (int32_t)(temp4[0] << 8 | temp4[1]);
	mask_bit[2] = temp4[1] & 0x01;
 8002e88:	b580      	push	{r7, lr}
 8002e8a:	b090      	sub	sp, #64	; 0x40
 8002e8c:	af00      	add	r7, sp, #0

	accel_bias_reg[0] -= (accel_bias[0] / 8);
	accel_bias_reg[1] -= (accel_bias[1] / 8);
	accel_bias_reg[2] -= (accel_bias[2] / 8);

	accel_offset[0] = (accel_bias_reg[0] >> 8) & 0xFF;
 8002e8e:	f107 0318 	add.w	r3, r7, #24
 8002e92:	2200      	movs	r2, #0
 8002e94:	601a      	str	r2, [r3, #0]
 8002e96:	605a      	str	r2, [r3, #4]
 8002e98:	609a      	str	r2, [r3, #8]
  	accel_offset[1] = (accel_bias_reg[0])      & 0xFE;
 8002e9a:	f107 030c 	add.w	r3, r7, #12
 8002e9e:	2200      	movs	r2, #0
 8002ea0:	601a      	str	r2, [r3, #0]
 8002ea2:	605a      	str	r2, [r3, #4]
 8002ea4:	609a      	str	r2, [r3, #8]
	accel_offset[1] = accel_offset[1] | mask_bit[0];
 8002ea6:	2300      	movs	r3, #0
 8002ea8:	607b      	str	r3, [r7, #4]
 8002eaa:	2300      	movs	r3, #0
 8002eac:	813b      	strh	r3, [r7, #8]

	accel_offset[2] = (accel_bias_reg[1] >> 8) & 0xFF;
 8002eae:	2300      	movs	r3, #0
 8002eb0:	63fb      	str	r3, [r7, #60]	; 0x3c
 8002eb2:	e031      	b.n	8002f18 <icm20948_accel_calibration+0x90>
  	accel_offset[3] = (accel_bias_reg[1])      & 0xFE;
	accel_offset[3] = accel_offset[3] | mask_bit[1];
 8002eb4:	f107 0324 	add.w	r3, r7, #36	; 0x24
 8002eb8:	4618      	mov	r0, r3
 8002eba:	f7ff fd8f 	bl	80029dc <icm20948_accel_read>

 8002ebe:	69bb      	ldr	r3, [r7, #24]
 8002ec0:	ee07 3a90 	vmov	s15, r3
 8002ec4:	eeb8 7ae7 	vcvt.f32.s32	s14, s15
 8002ec8:	edd7 7a09 	vldr	s15, [r7, #36]	; 0x24
 8002ecc:	ee77 7a27 	vadd.f32	s15, s14, s15
 8002ed0:	eefd 7ae7 	vcvt.s32.f32	s15, s15
 8002ed4:	ee17 3a90 	vmov	r3, s15
 8002ed8:	61bb      	str	r3, [r7, #24]
	accel_offset[4] = (accel_bias_reg[2] >> 8) & 0xFF;
 8002eda:	69fb      	ldr	r3, [r7, #28]
 8002edc:	ee07 3a90 	vmov	s15, r3
 8002ee0:	eeb8 7ae7 	vcvt.f32.s32	s14, s15
 8002ee4:	edd7 7a0a 	vldr	s15, [r7, #40]	; 0x28
 8002ee8:	ee77 7a27 	vadd.f32	s15, s14, s15
 8002eec:	eefd 7ae7 	vcvt.s32.f32	s15, s15
 8002ef0:	ee17 3a90 	vmov	r3, s15
 8002ef4:	61fb      	str	r3, [r7, #28]
	accel_offset[5] = (accel_bias_reg[2])      & 0xFE;
 8002ef6:	6a3b      	ldr	r3, [r7, #32]
 8002ef8:	ee07 3a90 	vmov	s15, r3
 8002efc:	eeb8 7ae7 	vcvt.f32.s32	s14, s15
 8002f00:	edd7 7a0b 	vldr	s15, [r7, #44]	; 0x2c
 8002f04:	ee77 7a27 	vadd.f32	s15, s14, s15
 8002f08:	eefd 7ae7 	vcvt.s32.f32	s15, s15
 8002f0c:	ee17 3a90 	vmov	r3, s15
 8002f10:	623b      	str	r3, [r7, #32]
	accel_offset[2] = (accel_bias_reg[1] >> 8) & 0xFF;
 8002f12:	6bfb      	ldr	r3, [r7, #60]	; 0x3c
 8002f14:	3301      	adds	r3, #1
 8002f16:	63fb      	str	r3, [r7, #60]	; 0x3c
 8002f18:	6bfb      	ldr	r3, [r7, #60]	; 0x3c
 8002f1a:	2b63      	cmp	r3, #99	; 0x63
 8002f1c:	ddca      	ble.n	8002eb4 <icm20948_accel_calibration+0x2c>
	accel_offset[5] = accel_offset[5] | mask_bit[2];
	
	write_multiple_icm20948_reg(ub_1, B1_XA_OFFS_H, &accel_offset[0], 2);
 8002f1e:	69bb      	ldr	r3, [r7, #24]
 8002f20:	4a5e      	ldr	r2, [pc, #376]	; (800309c <icm20948_accel_calibration+0x214>)
 8002f22:	fb82 1203 	smull	r1, r2, r2, r3
 8002f26:	1152      	asrs	r2, r2, #5
 8002f28:	17db      	asrs	r3, r3, #31
 8002f2a:	1ad3      	subs	r3, r2, r3
 8002f2c:	61bb      	str	r3, [r7, #24]
	write_multiple_icm20948_reg(ub_1, B1_YA_OFFS_H, &accel_offset[2], 2);
 8002f2e:	69fb      	ldr	r3, [r7, #28]
 8002f30:	4a5a      	ldr	r2, [pc, #360]	; (800309c <icm20948_accel_calibration+0x214>)
 8002f32:	fb82 1203 	smull	r1, r2, r2, r3
 8002f36:	1152      	asrs	r2, r2, #5
 8002f38:	17db      	asrs	r3, r3, #31
 8002f3a:	1ad3      	subs	r3, r2, r3
 8002f3c:	61fb      	str	r3, [r7, #28]
	write_multiple_icm20948_reg(ub_1, B1_ZA_OFFS_H, &accel_offset[4], 2);
 8002f3e:	6a3b      	ldr	r3, [r7, #32]
 8002f40:	4a56      	ldr	r2, [pc, #344]	; (800309c <icm20948_accel_calibration+0x214>)
 8002f42:	fb82 1203 	smull	r1, r2, r2, r3
 8002f46:	1152      	asrs	r2, r2, #5
 8002f48:	17db      	asrs	r3, r3, #31
 8002f4a:	1ad3      	subs	r3, r2, r3
 8002f4c:	623b      	str	r3, [r7, #32]
}

 8002f4e:	4a54      	ldr	r2, [pc, #336]	; (80030a0 <icm20948_accel_calibration+0x218>)
 8002f50:	463b      	mov	r3, r7
 8002f52:	6812      	ldr	r2, [r2, #0]
 8002f54:	4611      	mov	r1, r2
 8002f56:	8019      	strh	r1, [r3, #0]
 8002f58:	3302      	adds	r3, #2
 8002f5a:	0c12      	lsrs	r2, r2, #16
 8002f5c:	701a      	strb	r2, [r3, #0]
void icm20948_gyro_full_scale_select(gyro_full_scale full_scale)
{
 8002f5e:	2202      	movs	r2, #2
 8002f60:	2114      	movs	r1, #20
 8002f62:	2010      	movs	r0, #16
 8002f64:	f7ff fc54 	bl	8002810 <read_multiple_icm20948_reg>
 8002f68:	63b8      	str	r0, [r7, #56]	; 0x38
	uint8_t new_val = read_single_icm20948_reg(ub_2, B2_GYRO_CONFIG_1);
 8002f6a:	6bbb      	ldr	r3, [r7, #56]	; 0x38
 8002f6c:	781b      	ldrb	r3, [r3, #0]
 8002f6e:	021b      	lsls	r3, r3, #8
 8002f70:	6bba      	ldr	r2, [r7, #56]	; 0x38
 8002f72:	3201      	adds	r2, #1
 8002f74:	7812      	ldrb	r2, [r2, #0]
 8002f76:	4313      	orrs	r3, r2
 8002f78:	60fb      	str	r3, [r7, #12]
	
 8002f7a:	6bbb      	ldr	r3, [r7, #56]	; 0x38
 8002f7c:	3301      	adds	r3, #1
 8002f7e:	781b      	ldrb	r3, [r3, #0]
 8002f80:	f003 0301 	and.w	r3, r3, #1
 8002f84:	b2db      	uxtb	r3, r3
 8002f86:	703b      	strb	r3, [r7, #0]
	switch(full_scale)
	{
 8002f88:	2202      	movs	r2, #2
 8002f8a:	2117      	movs	r1, #23
 8002f8c:	2010      	movs	r0, #16
 8002f8e:	f7ff fc3f 	bl	8002810 <read_multiple_icm20948_reg>
 8002f92:	6378      	str	r0, [r7, #52]	; 0x34
		case _250dps :
 8002f94:	6b7b      	ldr	r3, [r7, #52]	; 0x34
 8002f96:	781b      	ldrb	r3, [r3, #0]
 8002f98:	021b      	lsls	r3, r3, #8
 8002f9a:	6b7a      	ldr	r2, [r7, #52]	; 0x34
 8002f9c:	3201      	adds	r2, #1
 8002f9e:	7812      	ldrb	r2, [r2, #0]
 8002fa0:	4313      	orrs	r3, r2
 8002fa2:	613b      	str	r3, [r7, #16]
			new_val |= 0x00;
 8002fa4:	6b7b      	ldr	r3, [r7, #52]	; 0x34
 8002fa6:	3301      	adds	r3, #1
 8002fa8:	781b      	ldrb	r3, [r3, #0]
 8002faa:	f003 0301 	and.w	r3, r3, #1
 8002fae:	b2db      	uxtb	r3, r3
 8002fb0:	707b      	strb	r3, [r7, #1]
			gyro_scale_factor = 131.0;
			break;
 8002fb2:	2202      	movs	r2, #2
 8002fb4:	211a      	movs	r1, #26
 8002fb6:	2010      	movs	r0, #16
 8002fb8:	f7ff fc2a 	bl	8002810 <read_multiple_icm20948_reg>
 8002fbc:	6338      	str	r0, [r7, #48]	; 0x30
		case _500dps :
 8002fbe:	6b3b      	ldr	r3, [r7, #48]	; 0x30
 8002fc0:	781b      	ldrb	r3, [r3, #0]
 8002fc2:	021b      	lsls	r3, r3, #8
 8002fc4:	6b3a      	ldr	r2, [r7, #48]	; 0x30
 8002fc6:	3201      	adds	r2, #1
 8002fc8:	7812      	ldrb	r2, [r2, #0]
 8002fca:	4313      	orrs	r3, r2
 8002fcc:	617b      	str	r3, [r7, #20]
			new_val |= 0x02;
 8002fce:	6b3b      	ldr	r3, [r7, #48]	; 0x30
 8002fd0:	3301      	adds	r3, #1
 8002fd2:	781b      	ldrb	r3, [r3, #0]
 8002fd4:	f003 0301 	and.w	r3, r3, #1
 8002fd8:	b2db      	uxtb	r3, r3
 8002fda:	70bb      	strb	r3, [r7, #2]
			gyro_scale_factor = 65.5;
			break;
 8002fdc:	68fa      	ldr	r2, [r7, #12]
 8002fde:	69bb      	ldr	r3, [r7, #24]
 8002fe0:	2b00      	cmp	r3, #0
 8002fe2:	da00      	bge.n	8002fe6 <icm20948_accel_calibration+0x15e>
 8002fe4:	3307      	adds	r3, #7
 8002fe6:	10db      	asrs	r3, r3, #3
 8002fe8:	425b      	negs	r3, r3
 8002fea:	4413      	add	r3, r2
 8002fec:	60fb      	str	r3, [r7, #12]
		case _1000dps :
 8002fee:	693a      	ldr	r2, [r7, #16]
 8002ff0:	69fb      	ldr	r3, [r7, #28]
 8002ff2:	2b00      	cmp	r3, #0
 8002ff4:	da00      	bge.n	8002ff8 <icm20948_accel_calibration+0x170>
 8002ff6:	3307      	adds	r3, #7
 8002ff8:	10db      	asrs	r3, r3, #3
 8002ffa:	425b      	negs	r3, r3
 8002ffc:	4413      	add	r3, r2
 8002ffe:	613b      	str	r3, [r7, #16]
			new_val |= 0x04;
 8003000:	697a      	ldr	r2, [r7, #20]
 8003002:	6a3b      	ldr	r3, [r7, #32]
 8003004:	2b00      	cmp	r3, #0
 8003006:	da00      	bge.n	800300a <icm20948_accel_calibration+0x182>
 8003008:	3307      	adds	r3, #7
 800300a:	10db      	asrs	r3, r3, #3
 800300c:	425b      	negs	r3, r3
 800300e:	4413      	add	r3, r2
 8003010:	617b      	str	r3, [r7, #20]
			gyro_scale_factor = 32.8;
			break;
 8003012:	68fb      	ldr	r3, [r7, #12]
 8003014:	121b      	asrs	r3, r3, #8
 8003016:	b2db      	uxtb	r3, r3
 8003018:	713b      	strb	r3, [r7, #4]
		case _2000dps :
 800301a:	68fb      	ldr	r3, [r7, #12]
 800301c:	b2db      	uxtb	r3, r3
 800301e:	f023 0301 	bic.w	r3, r3, #1
 8003022:	b2db      	uxtb	r3, r3
 8003024:	717b      	strb	r3, [r7, #5]
			new_val |= 0x06;
 8003026:	797a      	ldrb	r2, [r7, #5]
 8003028:	783b      	ldrb	r3, [r7, #0]
 800302a:	4313      	orrs	r3, r2
 800302c:	b2db      	uxtb	r3, r3
 800302e:	717b      	strb	r3, [r7, #5]
			gyro_scale_factor = 16.4;
			break;
 8003030:	693b      	ldr	r3, [r7, #16]
 8003032:	121b      	asrs	r3, r3, #8
 8003034:	b2db      	uxtb	r3, r3
 8003036:	71bb      	strb	r3, [r7, #6]
	}
 8003038:	693b      	ldr	r3, [r7, #16]
 800303a:	b2db      	uxtb	r3, r3
 800303c:	f023 0301 	bic.w	r3, r3, #1
 8003040:	b2db      	uxtb	r3, r3
 8003042:	71fb      	strb	r3, [r7, #7]

 8003044:	79fa      	ldrb	r2, [r7, #7]
 8003046:	787b      	ldrb	r3, [r7, #1]
 8003048:	4313      	orrs	r3, r2
 800304a:	b2db      	uxtb	r3, r3
 800304c:	71fb      	strb	r3, [r7, #7]
	write_single_icm20948_reg(ub_2, B2_GYRO_CONFIG_1, new_val);
}
 800304e:	697b      	ldr	r3, [r7, #20]
 8003050:	121b      	asrs	r3, r3, #8
 8003052:	b2db      	uxtb	r3, r3
 8003054:	723b      	strb	r3, [r7, #8]

 8003056:	697b      	ldr	r3, [r7, #20]
 8003058:	b2db      	uxtb	r3, r3
 800305a:	f023 0301 	bic.w	r3, r3, #1
 800305e:	b2db      	uxtb	r3, r3
 8003060:	727b      	strb	r3, [r7, #9]
void icm20948_accel_full_scale_select(accel_full_scale full_scale)
 8003062:	7a7a      	ldrb	r2, [r7, #9]
 8003064:	78bb      	ldrb	r3, [r7, #2]
 8003066:	4313      	orrs	r3, r2
 8003068:	b2db      	uxtb	r3, r3
 800306a:	727b      	strb	r3, [r7, #9]
{
	uint8_t new_val = read_single_icm20948_reg(ub_2, B2_ACCEL_CONFIG);
 800306c:	1d3a      	adds	r2, r7, #4
 800306e:	2302      	movs	r3, #2
 8003070:	2114      	movs	r1, #20
 8003072:	2010      	movs	r0, #16
 8003074:	f7ff fbfc 	bl	8002870 <write_multiple_icm20948_reg>
	
 8003078:	1d3b      	adds	r3, r7, #4
 800307a:	1c9a      	adds	r2, r3, #2
 800307c:	2302      	movs	r3, #2
 800307e:	2117      	movs	r1, #23
 8003080:	2010      	movs	r0, #16
 8003082:	f7ff fbf5 	bl	8002870 <write_multiple_icm20948_reg>
	switch(full_scale)
 8003086:	1d3b      	adds	r3, r7, #4
 8003088:	1d1a      	adds	r2, r3, #4
 800308a:	2302      	movs	r3, #2
 800308c:	211a      	movs	r1, #26
 800308e:	2010      	movs	r0, #16
 8003090:	f7ff fbee 	bl	8002870 <write_multiple_icm20948_reg>
	{
 8003094:	bf00      	nop
 8003096:	3740      	adds	r7, #64	; 0x40
 8003098:	46bd      	mov	sp, r7
 800309a:	bd80      	pop	{r7, pc}
 800309c:	51eb851f 	.word	0x51eb851f
 80030a0:	0800b298 	.word	0x0800b298

080030a4 <icm20948_gyro_full_scale_select>:
		case _2g :
			new_val |= 0x00;
			accel_scale_factor = 16384;
 80030a4:	b580      	push	{r7, lr}
 80030a6:	b084      	sub	sp, #16
 80030a8:	af00      	add	r7, sp, #0
 80030aa:	4603      	mov	r3, r0
 80030ac:	71fb      	strb	r3, [r7, #7]
			break;
 80030ae:	2101      	movs	r1, #1
 80030b0:	2020      	movs	r0, #32
 80030b2:	f7ff fb5d 	bl	8002770 <read_single_icm20948_reg>
 80030b6:	4603      	mov	r3, r0
 80030b8:	73fb      	strb	r3, [r7, #15]
		case _4g :
			new_val |= 0x02;
 80030ba:	79fb      	ldrb	r3, [r7, #7]
 80030bc:	2b03      	cmp	r3, #3
 80030be:	d827      	bhi.n	8003110 <icm20948_gyro_full_scale_select+0x6c>
 80030c0:	a201      	add	r2, pc, #4	; (adr r2, 80030c8 <icm20948_gyro_full_scale_select+0x24>)
 80030c2:	f852 f023 	ldr.w	pc, [r2, r3, lsl #2]
 80030c6:	bf00      	nop
 80030c8:	080030d9 	.word	0x080030d9
 80030cc:	080030e1 	.word	0x080030e1
 80030d0:	080030f1 	.word	0x080030f1
 80030d4:	08003101 	.word	0x08003101
			accel_scale_factor = 8192;
			break;
		case _8g :
			new_val |= 0x04;
 80030d8:	4b12      	ldr	r3, [pc, #72]	; (8003124 <icm20948_gyro_full_scale_select+0x80>)
 80030da:	4a13      	ldr	r2, [pc, #76]	; (8003128 <icm20948_gyro_full_scale_select+0x84>)
 80030dc:	601a      	str	r2, [r3, #0]
			accel_scale_factor = 4096;
 80030de:	e017      	b.n	8003110 <icm20948_gyro_full_scale_select+0x6c>
			break;
		case _16g :
 80030e0:	7bfb      	ldrb	r3, [r7, #15]
 80030e2:	f043 0302 	orr.w	r3, r3, #2
 80030e6:	73fb      	strb	r3, [r7, #15]
			new_val |= 0x06;
 80030e8:	4b0e      	ldr	r3, [pc, #56]	; (8003124 <icm20948_gyro_full_scale_select+0x80>)
 80030ea:	4a10      	ldr	r2, [pc, #64]	; (800312c <icm20948_gyro_full_scale_select+0x88>)
 80030ec:	601a      	str	r2, [r3, #0]
			accel_scale_factor = 2048;
 80030ee:	e00f      	b.n	8003110 <icm20948_gyro_full_scale_select+0x6c>
			break;
	}
 80030f0:	7bfb      	ldrb	r3, [r7, #15]
 80030f2:	f043 0304 	orr.w	r3, r3, #4
 80030f6:	73fb      	strb	r3, [r7, #15]

 80030f8:	4b0a      	ldr	r3, [pc, #40]	; (8003124 <icm20948_gyro_full_scale_select+0x80>)
 80030fa:	4a0d      	ldr	r2, [pc, #52]	; (8003130 <icm20948_gyro_full_scale_select+0x8c>)
 80030fc:	601a      	str	r2, [r3, #0]
	write_single_icm20948_reg(ub_2, B2_ACCEL_CONFIG, new_val);
 80030fe:	e007      	b.n	8003110 <icm20948_gyro_full_scale_select+0x6c>
}

 8003100:	7bfb      	ldrb	r3, [r7, #15]
 8003102:	f043 0306 	orr.w	r3, r3, #6
 8003106:	73fb      	strb	r3, [r7, #15]

 8003108:	4b06      	ldr	r3, [pc, #24]	; (8003124 <icm20948_gyro_full_scale_select+0x80>)
 800310a:	4a0a      	ldr	r2, [pc, #40]	; (8003134 <icm20948_gyro_full_scale_select+0x90>)
 800310c:	601a      	str	r2, [r3, #0]
/* Static Functions */
 800310e:	bf00      	nop
static void cs_high()
{
	HAL_GPIO_WritePin(ICM20948_SPI_CS_PIN_PORT, ICM20948_SPI_CS_PIN_NUMBER, SET);	
 8003110:	7bfb      	ldrb	r3, [r7, #15]
 8003112:	461a      	mov	r2, r3
 8003114:	2101      	movs	r1, #1
 8003116:	2020      	movs	r0, #32
 8003118:	f7ff fb56 	bl	80027c8 <write_single_icm20948_reg>
}
 800311c:	bf00      	nop
 800311e:	3710      	adds	r7, #16
 8003120:	46bd      	mov	sp, r7
 8003122:	bd80      	pop	{r7, pc}
 8003124:	200000bc 	.word	0x200000bc
 8003128:	43030000 	.word	0x43030000
 800312c:	42830000 	.word	0x42830000
 8003130:	42033333 	.word	0x42033333
 8003134:	41833333 	.word	0x41833333

08003138 <icm20948_accel_full_scale_select>:

static void cs_low()
{
 8003138:	b580      	push	{r7, lr}
 800313a:	b084      	sub	sp, #16
 800313c:	af00      	add	r7, sp, #0
 800313e:	4603      	mov	r3, r0
 8003140:	71fb      	strb	r3, [r7, #7]
	HAL_GPIO_WritePin(ICM20948_SPI_CS_PIN_PORT, ICM20948_SPI_CS_PIN_NUMBER, RESET);
 8003142:	2114      	movs	r1, #20
 8003144:	2020      	movs	r0, #32
 8003146:	f7ff fb13 	bl	8002770 <read_single_icm20948_reg>
 800314a:	4603      	mov	r3, r0
 800314c:	73fb      	strb	r3, [r7, #15]
}

 800314e:	79fb      	ldrb	r3, [r7, #7]
 8003150:	2b03      	cmp	r3, #3
 8003152:	d82b      	bhi.n	80031ac <icm20948_accel_full_scale_select+0x74>
 8003154:	a201      	add	r2, pc, #4	; (adr r2, 800315c <icm20948_accel_full_scale_select+0x24>)
 8003156:	f852 f023 	ldr.w	pc, [r2, r3, lsl #2]
 800315a:	bf00      	nop
 800315c:	0800316d 	.word	0x0800316d
 8003160:	08003177 	.word	0x08003177
 8003164:	08003189 	.word	0x08003189
 8003168:	0800319b 	.word	0x0800319b
static void select_user_bank(userbank ub)
{
	uint8_t write_reg[2];
	write_reg[0] = WRITE | REG_BANK_SEL;
 800316c:	4b14      	ldr	r3, [pc, #80]	; (80031c0 <icm20948_accel_full_scale_select+0x88>)
 800316e:	f04f 428d 	mov.w	r2, #1182793728	; 0x46800000
 8003172:	601a      	str	r2, [r3, #0]
	write_reg[1] = ub;
 8003174:	e01a      	b.n	80031ac <icm20948_accel_full_scale_select+0x74>

	cs_low();
 8003176:	7bfb      	ldrb	r3, [r7, #15]
 8003178:	f043 0302 	orr.w	r3, r3, #2
 800317c:	73fb      	strb	r3, [r7, #15]
	HAL_SPI_Transmit(ICM20948_SPI, write_reg, 2, 10);
 800317e:	4b10      	ldr	r3, [pc, #64]	; (80031c0 <icm20948_accel_full_scale_select+0x88>)
 8003180:	f04f 428c 	mov.w	r2, #1174405120	; 0x46000000
 8003184:	601a      	str	r2, [r3, #0]
	cs_high();
 8003186:	e011      	b.n	80031ac <icm20948_accel_full_scale_select+0x74>
}

 8003188:	7bfb      	ldrb	r3, [r7, #15]
 800318a:	f043 0304 	orr.w	r3, r3, #4
 800318e:	73fb      	strb	r3, [r7, #15]
static uint8_t read_single_icm20948_reg(userbank ub, uint8_t reg)
 8003190:	4b0b      	ldr	r3, [pc, #44]	; (80031c0 <icm20948_accel_full_scale_select+0x88>)
 8003192:	f04f 428b 	mov.w	r2, #1166016512	; 0x45800000
 8003196:	601a      	str	r2, [r3, #0]
{
 8003198:	e008      	b.n	80031ac <icm20948_accel_full_scale_select+0x74>
	uint8_t read_reg = READ | reg;
	uint8_t reg_val;
 800319a:	7bfb      	ldrb	r3, [r7, #15]
 800319c:	f043 0306 	orr.w	r3, r3, #6
 80031a0:	73fb      	strb	r3, [r7, #15]
	select_user_bank(ub);
 80031a2:	4b07      	ldr	r3, [pc, #28]	; (80031c0 <icm20948_accel_full_scale_select+0x88>)
 80031a4:	f04f 428a 	mov.w	r2, #1157627904	; 0x45000000
 80031a8:	601a      	str	r2, [r3, #0]

 80031aa:	bf00      	nop
	cs_low();
	HAL_SPI_Transmit(ICM20948_SPI, &read_reg, 1, 1000);
	HAL_SPI_Receive(ICM20948_SPI, &reg_val, 1, 1000);
 80031ac:	7bfb      	ldrb	r3, [r7, #15]
 80031ae:	461a      	mov	r2, r3
 80031b0:	2114      	movs	r1, #20
 80031b2:	2020      	movs	r0, #32
 80031b4:	f7ff fb08 	bl	80027c8 <write_single_icm20948_reg>
	cs_high();
 80031b8:	bf00      	nop
 80031ba:	3710      	adds	r7, #16
 80031bc:	46bd      	mov	sp, r7
 80031be:	bd80      	pop	{r7, pc}
 80031c0:	200000c0 	.word	0x200000c0

080031c4 <ak09916_init>:

	return reg_val;
}

static void write_single_icm20948_reg(userbank ub, uint8_t reg, uint8_t val)
 80031c4:	b580      	push	{r7, lr}
 80031c6:	af00      	add	r7, sp, #0
{
 80031c8:	f7ff fcef 	bl	8002baa <icm20948_i2c_master_reset>
	uint8_t write_reg[2];
 80031cc:	f7ff fd04 	bl	8002bd8 <icm20948_i2c_master_enable>
	write_reg[0] = WRITE | reg;
 80031d0:	2007      	movs	r0, #7
 80031d2:	f7ff fd1b 	bl	8002c0c <icm20948_i2c_master_clk_frq>
	write_reg[1] = val;

 80031d6:	f000 f805 	bl	80031e4 <ak09916_soft_reset>
	select_user_bank(ub);
 80031da:	2008      	movs	r0, #8
 80031dc:	f000 f80d 	bl	80031fa <ak09916_operation_mode_setting>

 80031e0:	bf00      	nop
 80031e2:	bd80      	pop	{r7, pc}

080031e4 <ak09916_soft_reset>:
	write_single_icm20948_reg(ub_3, B3_I2C_SLV0_ADDR, WRITE | MAG_SLAVE_ADDR);
	write_single_icm20948_reg(ub_3, B3_I2C_SLV0_REG, reg);
	write_single_icm20948_reg(ub_3, B3_I2C_SLV0_DO, val);
	write_single_icm20948_reg(ub_3, B3_I2C_SLV0_CTRL, 0x81);
}

 80031e4:	b580      	push	{r7, lr}
 80031e6:	af00      	add	r7, sp, #0
static uint8_t* read_multiple_ak09916_reg(uint8_t reg, uint8_t len)
 80031e8:	2101      	movs	r1, #1
 80031ea:	2032      	movs	r0, #50	; 0x32
 80031ec:	f7ff fb6c 	bl	80028c8 <write_single_ak09916_reg>
{	
 80031f0:	2064      	movs	r0, #100	; 0x64
 80031f2:	f002 fd55 	bl	8005ca0 <HAL_Delay>
	write_single_icm20948_reg(ub_3, B3_I2C_SLV0_ADDR, READ | MAG_SLAVE_ADDR);
 80031f6:	bf00      	nop
 80031f8:	bd80      	pop	{r7, pc}

080031fa <ak09916_operation_mode_setting>:
	write_single_icm20948_reg(ub_3, B3_I2C_SLV0_REG, reg);
	write_single_icm20948_reg(ub_3, B3_I2C_SLV0_CTRL, 0x80 | len);

 80031fa:	b580      	push	{r7, lr}
 80031fc:	b082      	sub	sp, #8
 80031fe:	af00      	add	r7, sp, #0
 8003200:	4603      	mov	r3, r0
 8003202:	71fb      	strb	r3, [r7, #7]
	HAL_Delay(1);
 8003204:	79fb      	ldrb	r3, [r7, #7]
 8003206:	4619      	mov	r1, r3
 8003208:	2031      	movs	r0, #49	; 0x31
 800320a:	f7ff fb5d 	bl	80028c8 <write_single_ak09916_reg>
	return read_multiple_icm20948_reg(ub_0, B0_EXT_SLV_SENS_DATA_00, len);
 800320e:	2064      	movs	r0, #100	; 0x64
 8003210:	f002 fd46 	bl	8005ca0 <HAL_Delay>
}
 8003214:	bf00      	nop
 8003216:	3708      	adds	r7, #8
 8003218:	46bd      	mov	sp, r7
 800321a:	bd80      	pop	{r7, pc}

0800321c <MX_ADC1_Init>:

ADC_HandleTypeDef hadc1;

/* ADC1 init function */
void MX_ADC1_Init(void)
{
 800321c:	b580      	push	{r7, lr}
 800321e:	b084      	sub	sp, #16
 8003220:	af00      	add	r7, sp, #0

  /* USER CODE BEGIN ADC1_Init 0 */

  /* USER CODE END ADC1_Init 0 */

  ADC_ChannelConfTypeDef sConfig = {0};
 8003222:	463b      	mov	r3, r7
 8003224:	2200      	movs	r2, #0
 8003226:	601a      	str	r2, [r3, #0]
 8003228:	605a      	str	r2, [r3, #4]
 800322a:	609a      	str	r2, [r3, #8]
 800322c:	60da      	str	r2, [r3, #12]
  /* USER CODE BEGIN ADC1_Init 1 */

  /* USER CODE END ADC1_Init 1 */
  /** Configure the global features of the ADC (Clock, Resolution, Data Alignment and number of conversion)
  */
  hadc1.Instance = ADC1;
 800322e:	4b21      	ldr	r3, [pc, #132]	; (80032b4 <MX_ADC1_Init+0x98>)
 8003230:	4a21      	ldr	r2, [pc, #132]	; (80032b8 <MX_ADC1_Init+0x9c>)
 8003232:	601a      	str	r2, [r3, #0]
  hadc1.Init.ClockPrescaler = ADC_CLOCK_SYNC_PCLK_DIV4;
 8003234:	4b1f      	ldr	r3, [pc, #124]	; (80032b4 <MX_ADC1_Init+0x98>)
 8003236:	f44f 3280 	mov.w	r2, #65536	; 0x10000
 800323a:	605a      	str	r2, [r3, #4]
  hadc1.Init.Resolution = ADC_RESOLUTION_12B;
 800323c:	4b1d      	ldr	r3, [pc, #116]	; (80032b4 <MX_ADC1_Init+0x98>)
 800323e:	2200      	movs	r2, #0
 8003240:	609a      	str	r2, [r3, #8]
  hadc1.Init.ScanConvMode = DISABLE;
 8003242:	4b1c      	ldr	r3, [pc, #112]	; (80032b4 <MX_ADC1_Init+0x98>)
 8003244:	2200      	movs	r2, #0
 8003246:	611a      	str	r2, [r3, #16]
  hadc1.Init.ContinuousConvMode = DISABLE;
 8003248:	4b1a      	ldr	r3, [pc, #104]	; (80032b4 <MX_ADC1_Init+0x98>)
 800324a:	2200      	movs	r2, #0
 800324c:	761a      	strb	r2, [r3, #24]
  hadc1.Init.DiscontinuousConvMode = DISABLE;
 800324e:	4b19      	ldr	r3, [pc, #100]	; (80032b4 <MX_ADC1_Init+0x98>)
 8003250:	2200      	movs	r2, #0
 8003252:	f883 2020 	strb.w	r2, [r3, #32]
  hadc1.Init.ExternalTrigConvEdge = ADC_EXTERNALTRIGCONVEDGE_NONE;
 8003256:	4b17      	ldr	r3, [pc, #92]	; (80032b4 <MX_ADC1_Init+0x98>)
 8003258:	2200      	movs	r2, #0
 800325a:	62da      	str	r2, [r3, #44]	; 0x2c
  hadc1.Init.ExternalTrigConv = ADC_SOFTWARE_START;
 800325c:	4b15      	ldr	r3, [pc, #84]	; (80032b4 <MX_ADC1_Init+0x98>)
 800325e:	4a17      	ldr	r2, [pc, #92]	; (80032bc <MX_ADC1_Init+0xa0>)
 8003260:	629a      	str	r2, [r3, #40]	; 0x28
  hadc1.Init.DataAlign = ADC_DATAALIGN_RIGHT;
 8003262:	4b14      	ldr	r3, [pc, #80]	; (80032b4 <MX_ADC1_Init+0x98>)
 8003264:	2200      	movs	r2, #0
 8003266:	60da      	str	r2, [r3, #12]
  hadc1.Init.NbrOfConversion = 1;
 8003268:	4b12      	ldr	r3, [pc, #72]	; (80032b4 <MX_ADC1_Init+0x98>)
 800326a:	2201      	movs	r2, #1
 800326c:	61da      	str	r2, [r3, #28]
  hadc1.Init.DMAContinuousRequests = DISABLE;
 800326e:	4b11      	ldr	r3, [pc, #68]	; (80032b4 <MX_ADC1_Init+0x98>)
 8003270:	2200      	movs	r2, #0
 8003272:	f883 2030 	strb.w	r2, [r3, #48]	; 0x30
  hadc1.Init.EOCSelection = ADC_EOC_SINGLE_CONV;
 8003276:	4b0f      	ldr	r3, [pc, #60]	; (80032b4 <MX_ADC1_Init+0x98>)
 8003278:	2201      	movs	r2, #1
 800327a:	615a      	str	r2, [r3, #20]
  if (HAL_ADC_Init(&hadc1) != HAL_OK)
 800327c:	480d      	ldr	r0, [pc, #52]	; (80032b4 <MX_ADC1_Init+0x98>)
 800327e:	f002 fd33 	bl	8005ce8 <HAL_ADC_Init>
 8003282:	4603      	mov	r3, r0
 8003284:	2b00      	cmp	r3, #0
 8003286:	d001      	beq.n	800328c <MX_ADC1_Init+0x70>
  {
    Error_Handler();
 8003288:	f001 ff68 	bl	800515c <Error_Handler>
  }
  /** Configure for the selected ADC regular channel its corresponding rank in the sequencer and its sample time.
  */
  sConfig.Channel = ADC_CHANNEL_2;
 800328c:	2302      	movs	r3, #2
 800328e:	603b      	str	r3, [r7, #0]
  sConfig.Rank = 1;
 8003290:	2301      	movs	r3, #1
 8003292:	607b      	str	r3, [r7, #4]
  sConfig.SamplingTime = ADC_SAMPLETIME_3CYCLES;
 8003294:	2300      	movs	r3, #0
 8003296:	60bb      	str	r3, [r7, #8]
  if (HAL_ADC_ConfigChannel(&hadc1, &sConfig) != HAL_OK)
 8003298:	463b      	mov	r3, r7
 800329a:	4619      	mov	r1, r3
 800329c:	4805      	ldr	r0, [pc, #20]	; (80032b4 <MX_ADC1_Init+0x98>)
 800329e:	f002 fd67 	bl	8005d70 <HAL_ADC_ConfigChannel>
 80032a2:	4603      	mov	r3, r0
 80032a4:	2b00      	cmp	r3, #0
 80032a6:	d001      	beq.n	80032ac <MX_ADC1_Init+0x90>
  {
    Error_Handler();
 80032a8:	f001 ff58 	bl	800515c <Error_Handler>
  }
  /* USER CODE BEGIN ADC1_Init 2 */

  /* USER CODE END ADC1_Init 2 */

}
 80032ac:	bf00      	nop
 80032ae:	3710      	adds	r7, #16
 80032b0:	46bd      	mov	sp, r7
 80032b2:	bd80      	pop	{r7, pc}
 80032b4:	2000010c 	.word	0x2000010c
 80032b8:	40012000 	.word	0x40012000
 80032bc:	0f000001 	.word	0x0f000001

080032c0 <HAL_ADC_MspInit>:

void HAL_ADC_MspInit(ADC_HandleTypeDef* adcHandle)
{
 80032c0:	b580      	push	{r7, lr}
 80032c2:	b08c      	sub	sp, #48	; 0x30
 80032c4:	af00      	add	r7, sp, #0
 80032c6:	6078      	str	r0, [r7, #4]

  GPIO_InitTypeDef GPIO_InitStruct = {0};
 80032c8:	f107 031c 	add.w	r3, r7, #28
 80032cc:	2200      	movs	r2, #0
 80032ce:	601a      	str	r2, [r3, #0]
 80032d0:	605a      	str	r2, [r3, #4]
 80032d2:	609a      	str	r2, [r3, #8]
 80032d4:	60da      	str	r2, [r3, #12]
 80032d6:	611a      	str	r2, [r3, #16]
  if(adcHandle->Instance==ADC1)
 80032d8:	687b      	ldr	r3, [r7, #4]
 80032da:	681b      	ldr	r3, [r3, #0]
 80032dc:	4a31      	ldr	r2, [pc, #196]	; (80033a4 <HAL_ADC_MspInit+0xe4>)
 80032de:	4293      	cmp	r3, r2
 80032e0:	d15b      	bne.n	800339a <HAL_ADC_MspInit+0xda>
  {
  /* USER CODE BEGIN ADC1_MspInit 0 */

  /* USER CODE END ADC1_MspInit 0 */
    /* ADC1 clock enable */
    __HAL_RCC_ADC1_CLK_ENABLE();
 80032e2:	2300      	movs	r3, #0
 80032e4:	61bb      	str	r3, [r7, #24]
 80032e6:	4b30      	ldr	r3, [pc, #192]	; (80033a8 <HAL_ADC_MspInit+0xe8>)
 80032e8:	6c5b      	ldr	r3, [r3, #68]	; 0x44
 80032ea:	4a2f      	ldr	r2, [pc, #188]	; (80033a8 <HAL_ADC_MspInit+0xe8>)
 80032ec:	f443 7380 	orr.w	r3, r3, #256	; 0x100
 80032f0:	6453      	str	r3, [r2, #68]	; 0x44
 80032f2:	4b2d      	ldr	r3, [pc, #180]	; (80033a8 <HAL_ADC_MspInit+0xe8>)
 80032f4:	6c5b      	ldr	r3, [r3, #68]	; 0x44
 80032f6:	f403 7380 	and.w	r3, r3, #256	; 0x100
 80032fa:	61bb      	str	r3, [r7, #24]
 80032fc:	69bb      	ldr	r3, [r7, #24]

    __HAL_RCC_GPIOC_CLK_ENABLE();
 80032fe:	2300      	movs	r3, #0
 8003300:	617b      	str	r3, [r7, #20]
 8003302:	4b29      	ldr	r3, [pc, #164]	; (80033a8 <HAL_ADC_MspInit+0xe8>)
 8003304:	6b1b      	ldr	r3, [r3, #48]	; 0x30
 8003306:	4a28      	ldr	r2, [pc, #160]	; (80033a8 <HAL_ADC_MspInit+0xe8>)
 8003308:	f043 0304 	orr.w	r3, r3, #4
 800330c:	6313      	str	r3, [r2, #48]	; 0x30
 800330e:	4b26      	ldr	r3, [pc, #152]	; (80033a8 <HAL_ADC_MspInit+0xe8>)
 8003310:	6b1b      	ldr	r3, [r3, #48]	; 0x30
 8003312:	f003 0304 	and.w	r3, r3, #4
 8003316:	617b      	str	r3, [r7, #20]
 8003318:	697b      	ldr	r3, [r7, #20]
    __HAL_RCC_GPIOA_CLK_ENABLE();
 800331a:	2300      	movs	r3, #0
 800331c:	613b      	str	r3, [r7, #16]
 800331e:	4b22      	ldr	r3, [pc, #136]	; (80033a8 <HAL_ADC_MspInit+0xe8>)
 8003320:	6b1b      	ldr	r3, [r3, #48]	; 0x30
 8003322:	4a21      	ldr	r2, [pc, #132]	; (80033a8 <HAL_ADC_MspInit+0xe8>)
 8003324:	f043 0301 	orr.w	r3, r3, #1
 8003328:	6313      	str	r3, [r2, #48]	; 0x30
 800332a:	4b1f      	ldr	r3, [pc, #124]	; (80033a8 <HAL_ADC_MspInit+0xe8>)
 800332c:	6b1b      	ldr	r3, [r3, #48]	; 0x30
 800332e:	f003 0301 	and.w	r3, r3, #1
 8003332:	613b      	str	r3, [r7, #16]
 8003334:	693b      	ldr	r3, [r7, #16]
    __HAL_RCC_GPIOB_CLK_ENABLE();
 8003336:	2300      	movs	r3, #0
 8003338:	60fb      	str	r3, [r7, #12]
 800333a:	4b1b      	ldr	r3, [pc, #108]	; (80033a8 <HAL_ADC_MspInit+0xe8>)
 800333c:	6b1b      	ldr	r3, [r3, #48]	; 0x30
 800333e:	4a1a      	ldr	r2, [pc, #104]	; (80033a8 <HAL_ADC_MspInit+0xe8>)
 8003340:	f043 0302 	orr.w	r3, r3, #2
 8003344:	6313      	str	r3, [r2, #48]	; 0x30
 8003346:	4b18      	ldr	r3, [pc, #96]	; (80033a8 <HAL_ADC_MspInit+0xe8>)
 8003348:	6b1b      	ldr	r3, [r3, #48]	; 0x30
 800334a:	f003 0302 	and.w	r3, r3, #2
 800334e:	60fb      	str	r3, [r7, #12]
 8003350:	68fb      	ldr	r3, [r7, #12]
    PA5     ------> ADC1_IN5
    PA6     ------> ADC1_IN6
    PB0     ------> ADC1_IN8
    PB1     ------> ADC1_IN9
    */
    GPIO_InitStruct.Pin = ADC_AMP_36V_Pin|ADC_VOLT_BAT_Pin|ADC_VOLT_PWR_ST_Pin;
 8003352:	230d      	movs	r3, #13
 8003354:	61fb      	str	r3, [r7, #28]
    GPIO_InitStruct.Mode = GPIO_MODE_ANALOG;
 8003356:	2303      	movs	r3, #3
 8003358:	623b      	str	r3, [r7, #32]
    GPIO_InitStruct.Pull = GPIO_NOPULL;
 800335a:	2300      	movs	r3, #0
 800335c:	627b      	str	r3, [r7, #36]	; 0x24
    HAL_GPIO_Init(GPIOC, &GPIO_InitStruct);
 800335e:	f107 031c 	add.w	r3, r7, #28
 8003362:	4619      	mov	r1, r3
 8003364:	4811      	ldr	r0, [pc, #68]	; (80033ac <HAL_ADC_MspInit+0xec>)
 8003366:	f003 fc35 	bl	8006bd4 <HAL_GPIO_Init>

    GPIO_InitStruct.Pin = ADC_IK_CENTER_Pin|ADC_IK_BACK_LEFT_Pin|ADC_IK_BACK_RIGHT_Pin|ADC_IK_FRONT_LEFT_Pin
 800336a:	237c      	movs	r3, #124	; 0x7c
 800336c:	61fb      	str	r3, [r7, #28]
                          |ADC_IK_FRONT_RIGHT_Pin;
    GPIO_InitStruct.Mode = GPIO_MODE_ANALOG;
 800336e:	2303      	movs	r3, #3
 8003370:	623b      	str	r3, [r7, #32]
    GPIO_InitStruct.Pull = GPIO_NOPULL;
 8003372:	2300      	movs	r3, #0
 8003374:	627b      	str	r3, [r7, #36]	; 0x24
    HAL_GPIO_Init(GPIOA, &GPIO_InitStruct);
 8003376:	f107 031c 	add.w	r3, r7, #28
 800337a:	4619      	mov	r1, r3
 800337c:	480c      	ldr	r0, [pc, #48]	; (80033b0 <HAL_ADC_MspInit+0xf0>)
 800337e:	f003 fc29 	bl	8006bd4 <HAL_GPIO_Init>

    GPIO_InitStruct.Pin = ADC_AMP_5V_Pin|ADC_AMP_12V_Pin;
 8003382:	2303      	movs	r3, #3
 8003384:	61fb      	str	r3, [r7, #28]
    GPIO_InitStruct.Mode = GPIO_MODE_ANALOG;
 8003386:	2303      	movs	r3, #3
 8003388:	623b      	str	r3, [r7, #32]
    GPIO_InitStruct.Pull = GPIO_NOPULL;
 800338a:	2300      	movs	r3, #0
 800338c:	627b      	str	r3, [r7, #36]	; 0x24
    HAL_GPIO_Init(GPIOB, &GPIO_InitStruct);
 800338e:	f107 031c 	add.w	r3, r7, #28
 8003392:	4619      	mov	r1, r3
 8003394:	4807      	ldr	r0, [pc, #28]	; (80033b4 <HAL_ADC_MspInit+0xf4>)
 8003396:	f003 fc1d 	bl	8006bd4 <HAL_GPIO_Init>

  /* USER CODE BEGIN ADC1_MspInit 1 */

  /* USER CODE END ADC1_MspInit 1 */
  }
}
 800339a:	bf00      	nop
 800339c:	3730      	adds	r7, #48	; 0x30
 800339e:	46bd      	mov	sp, r7
 80033a0:	bd80      	pop	{r7, pc}
 80033a2:	bf00      	nop
 80033a4:	40012000 	.word	0x40012000
 80033a8:	40023800 	.word	0x40023800
 80033ac:	40020800 	.word	0x40020800
 80033b0:	40020000 	.word	0x40020000
 80033b4:	40020400 	.word	0x40020400

080033b8 <MX_DMA_Init>:

/**
  * Enable DMA controller clock
  */
void MX_DMA_Init(void)
{
 80033b8:	b580      	push	{r7, lr}
 80033ba:	b082      	sub	sp, #8
 80033bc:	af00      	add	r7, sp, #0

  /* DMA controller clock enable */
  __HAL_RCC_DMA1_CLK_ENABLE();
 80033be:	2300      	movs	r3, #0
 80033c0:	607b      	str	r3, [r7, #4]
 80033c2:	4b18      	ldr	r3, [pc, #96]	; (8003424 <MX_DMA_Init+0x6c>)
 80033c4:	6b1b      	ldr	r3, [r3, #48]	; 0x30
 80033c6:	4a17      	ldr	r2, [pc, #92]	; (8003424 <MX_DMA_Init+0x6c>)
 80033c8:	f443 1300 	orr.w	r3, r3, #2097152	; 0x200000
 80033cc:	6313      	str	r3, [r2, #48]	; 0x30
 80033ce:	4b15      	ldr	r3, [pc, #84]	; (8003424 <MX_DMA_Init+0x6c>)
 80033d0:	6b1b      	ldr	r3, [r3, #48]	; 0x30
 80033d2:	f403 1300 	and.w	r3, r3, #2097152	; 0x200000
 80033d6:	607b      	str	r3, [r7, #4]
 80033d8:	687b      	ldr	r3, [r7, #4]

  /* DMA interrupt init */
  /* DMA1_Stream2_IRQn interrupt configuration */
  HAL_NVIC_SetPriority(DMA1_Stream2_IRQn, 0, 0);
 80033da:	2200      	movs	r2, #0
 80033dc:	2100      	movs	r1, #0
 80033de:	200d      	movs	r0, #13
 80033e0:	f002 ffbf 	bl	8006362 <HAL_NVIC_SetPriority>
  HAL_NVIC_EnableIRQ(DMA1_Stream2_IRQn);
 80033e4:	200d      	movs	r0, #13
 80033e6:	f002 ffd8 	bl	800639a <HAL_NVIC_EnableIRQ>
  /* DMA1_Stream4_IRQn interrupt configuration */
  HAL_NVIC_SetPriority(DMA1_Stream4_IRQn, 0, 0);
 80033ea:	2200      	movs	r2, #0
 80033ec:	2100      	movs	r1, #0
 80033ee:	200f      	movs	r0, #15
 80033f0:	f002 ffb7 	bl	8006362 <HAL_NVIC_SetPriority>
  HAL_NVIC_EnableIRQ(DMA1_Stream4_IRQn);
 80033f4:	200f      	movs	r0, #15
 80033f6:	f002 ffd0 	bl	800639a <HAL_NVIC_EnableIRQ>
  /* DMA1_Stream5_IRQn interrupt configuration */
  HAL_NVIC_SetPriority(DMA1_Stream5_IRQn, 0, 0);
 80033fa:	2200      	movs	r2, #0
 80033fc:	2100      	movs	r1, #0
 80033fe:	2010      	movs	r0, #16
 8003400:	f002 ffaf 	bl	8006362 <HAL_NVIC_SetPriority>
  HAL_NVIC_EnableIRQ(DMA1_Stream5_IRQn);
 8003404:	2010      	movs	r0, #16
 8003406:	f002 ffc8 	bl	800639a <HAL_NVIC_EnableIRQ>
  /* DMA1_Stream6_IRQn interrupt configuration */
  HAL_NVIC_SetPriority(DMA1_Stream6_IRQn, 0, 0);
 800340a:	2200      	movs	r2, #0
 800340c:	2100      	movs	r1, #0
 800340e:	2011      	movs	r0, #17
 8003410:	f002 ffa7 	bl	8006362 <HAL_NVIC_SetPriority>
  HAL_NVIC_EnableIRQ(DMA1_Stream6_IRQn);
 8003414:	2011      	movs	r0, #17
 8003416:	f002 ffc0 	bl	800639a <HAL_NVIC_EnableIRQ>

}
 800341a:	bf00      	nop
 800341c:	3708      	adds	r7, #8
 800341e:	46bd      	mov	sp, r7
 8003420:	bd80      	pop	{r7, pc}
 8003422:	bf00      	nop
 8003424:	40023800 	.word	0x40023800

08003428 <MX_GPIO_Init>:
        * Output
        * EVENT_OUT
        * EXTI
*/
void MX_GPIO_Init(void)
{
 8003428:	b580      	push	{r7, lr}
 800342a:	b08c      	sub	sp, #48	; 0x30
 800342c:	af00      	add	r7, sp, #0

  GPIO_InitTypeDef GPIO_InitStruct = {0};
 800342e:	f107 031c 	add.w	r3, r7, #28
 8003432:	2200      	movs	r2, #0
 8003434:	601a      	str	r2, [r3, #0]
 8003436:	605a      	str	r2, [r3, #4]
 8003438:	609a      	str	r2, [r3, #8]
 800343a:	60da      	str	r2, [r3, #12]
 800343c:	611a      	str	r2, [r3, #16]

  /* GPIO Ports Clock Enable */
  __HAL_RCC_GPIOE_CLK_ENABLE();
 800343e:	2300      	movs	r3, #0
 8003440:	61bb      	str	r3, [r7, #24]
 8003442:	4b48      	ldr	r3, [pc, #288]	; (8003564 <MX_GPIO_Init+0x13c>)
 8003444:	6b1b      	ldr	r3, [r3, #48]	; 0x30
 8003446:	4a47      	ldr	r2, [pc, #284]	; (8003564 <MX_GPIO_Init+0x13c>)
 8003448:	f043 0310 	orr.w	r3, r3, #16
 800344c:	6313      	str	r3, [r2, #48]	; 0x30
 800344e:	4b45      	ldr	r3, [pc, #276]	; (8003564 <MX_GPIO_Init+0x13c>)
 8003450:	6b1b      	ldr	r3, [r3, #48]	; 0x30
 8003452:	f003 0310 	and.w	r3, r3, #16
 8003456:	61bb      	str	r3, [r7, #24]
 8003458:	69bb      	ldr	r3, [r7, #24]
  __HAL_RCC_GPIOC_CLK_ENABLE();
 800345a:	2300      	movs	r3, #0
 800345c:	617b      	str	r3, [r7, #20]
 800345e:	4b41      	ldr	r3, [pc, #260]	; (8003564 <MX_GPIO_Init+0x13c>)
 8003460:	6b1b      	ldr	r3, [r3, #48]	; 0x30
 8003462:	4a40      	ldr	r2, [pc, #256]	; (8003564 <MX_GPIO_Init+0x13c>)
 8003464:	f043 0304 	orr.w	r3, r3, #4
 8003468:	6313      	str	r3, [r2, #48]	; 0x30
 800346a:	4b3e      	ldr	r3, [pc, #248]	; (8003564 <MX_GPIO_Init+0x13c>)
 800346c:	6b1b      	ldr	r3, [r3, #48]	; 0x30
 800346e:	f003 0304 	and.w	r3, r3, #4
 8003472:	617b      	str	r3, [r7, #20]
 8003474:	697b      	ldr	r3, [r7, #20]
  __HAL_RCC_GPIOH_CLK_ENABLE();
 8003476:	2300      	movs	r3, #0
 8003478:	613b      	str	r3, [r7, #16]
 800347a:	4b3a      	ldr	r3, [pc, #232]	; (8003564 <MX_GPIO_Init+0x13c>)
 800347c:	6b1b      	ldr	r3, [r3, #48]	; 0x30
 800347e:	4a39      	ldr	r2, [pc, #228]	; (8003564 <MX_GPIO_Init+0x13c>)
 8003480:	f043 0380 	orr.w	r3, r3, #128	; 0x80
 8003484:	6313      	str	r3, [r2, #48]	; 0x30
 8003486:	4b37      	ldr	r3, [pc, #220]	; (8003564 <MX_GPIO_Init+0x13c>)
 8003488:	6b1b      	ldr	r3, [r3, #48]	; 0x30
 800348a:	f003 0380 	and.w	r3, r3, #128	; 0x80
 800348e:	613b      	str	r3, [r7, #16]
 8003490:	693b      	ldr	r3, [r7, #16]
  __HAL_RCC_GPIOA_CLK_ENABLE();
 8003492:	2300      	movs	r3, #0
 8003494:	60fb      	str	r3, [r7, #12]
 8003496:	4b33      	ldr	r3, [pc, #204]	; (8003564 <MX_GPIO_Init+0x13c>)
 8003498:	6b1b      	ldr	r3, [r3, #48]	; 0x30
 800349a:	4a32      	ldr	r2, [pc, #200]	; (8003564 <MX_GPIO_Init+0x13c>)
 800349c:	f043 0301 	orr.w	r3, r3, #1
 80034a0:	6313      	str	r3, [r2, #48]	; 0x30
 80034a2:	4b30      	ldr	r3, [pc, #192]	; (8003564 <MX_GPIO_Init+0x13c>)
 80034a4:	6b1b      	ldr	r3, [r3, #48]	; 0x30
 80034a6:	f003 0301 	and.w	r3, r3, #1
 80034aa:	60fb      	str	r3, [r7, #12]
 80034ac:	68fb      	ldr	r3, [r7, #12]
  __HAL_RCC_GPIOB_CLK_ENABLE();
 80034ae:	2300      	movs	r3, #0
 80034b0:	60bb      	str	r3, [r7, #8]
 80034b2:	4b2c      	ldr	r3, [pc, #176]	; (8003564 <MX_GPIO_Init+0x13c>)
 80034b4:	6b1b      	ldr	r3, [r3, #48]	; 0x30
 80034b6:	4a2b      	ldr	r2, [pc, #172]	; (8003564 <MX_GPIO_Init+0x13c>)
 80034b8:	f043 0302 	orr.w	r3, r3, #2
 80034bc:	6313      	str	r3, [r2, #48]	; 0x30
 80034be:	4b29      	ldr	r3, [pc, #164]	; (8003564 <MX_GPIO_Init+0x13c>)
 80034c0:	6b1b      	ldr	r3, [r3, #48]	; 0x30
 80034c2:	f003 0302 	and.w	r3, r3, #2
 80034c6:	60bb      	str	r3, [r7, #8]
 80034c8:	68bb      	ldr	r3, [r7, #8]
  __HAL_RCC_GPIOD_CLK_ENABLE();
 80034ca:	2300      	movs	r3, #0
 80034cc:	607b      	str	r3, [r7, #4]
 80034ce:	4b25      	ldr	r3, [pc, #148]	; (8003564 <MX_GPIO_Init+0x13c>)
 80034d0:	6b1b      	ldr	r3, [r3, #48]	; 0x30
 80034d2:	4a24      	ldr	r2, [pc, #144]	; (8003564 <MX_GPIO_Init+0x13c>)
 80034d4:	f043 0308 	orr.w	r3, r3, #8
 80034d8:	6313      	str	r3, [r2, #48]	; 0x30
 80034da:	4b22      	ldr	r3, [pc, #136]	; (8003564 <MX_GPIO_Init+0x13c>)
 80034dc:	6b1b      	ldr	r3, [r3, #48]	; 0x30
 80034de:	f003 0308 	and.w	r3, r3, #8
 80034e2:	607b      	str	r3, [r7, #4]
 80034e4:	687b      	ldr	r3, [r7, #4]

  /*Configure GPIO pin Output Level */
  HAL_GPIO_WritePin(ICM20948_CS_GPIO_Port, ICM20948_CS_Pin, GPIO_PIN_RESET);
 80034e6:	2200      	movs	r2, #0
 80034e8:	2104      	movs	r1, #4
 80034ea:	481f      	ldr	r0, [pc, #124]	; (8003568 <MX_GPIO_Init+0x140>)
 80034ec:	f003 fd0e 	bl	8006f0c <HAL_GPIO_WritePin>

  /*Configure GPIO pin Output Level */
  HAL_GPIO_WritePin(GPIOC, DRIVER_STEP_Pin|DRIVER_DIR_Pin, GPIO_PIN_RESET);
 80034f0:	2200      	movs	r2, #0
 80034f2:	2130      	movs	r1, #48	; 0x30
 80034f4:	481d      	ldr	r0, [pc, #116]	; (800356c <MX_GPIO_Init+0x144>)
 80034f6:	f003 fd09 	bl	8006f0c <HAL_GPIO_WritePin>

  /*Configure GPIO pin Output Level */
  HAL_GPIO_WritePin(GPIOD, LED_0_Pin|LED_1_Pin|LED_2_Pin|LED_3_Pin, GPIO_PIN_RESET);
 80034fa:	2200      	movs	r2, #0
 80034fc:	f44f 4170 	mov.w	r1, #61440	; 0xf000
 8003500:	481b      	ldr	r0, [pc, #108]	; (8003570 <MX_GPIO_Init+0x148>)
 8003502:	f003 fd03 	bl	8006f0c <HAL_GPIO_WritePin>

  /*Configure GPIO pin : PtPin */
  GPIO_InitStruct.Pin = ICM20948_CS_Pin;
 8003506:	2304      	movs	r3, #4
 8003508:	61fb      	str	r3, [r7, #28]
  GPIO_InitStruct.Mode = GPIO_MODE_OUTPUT_PP;
 800350a:	2301      	movs	r3, #1
 800350c:	623b      	str	r3, [r7, #32]
  GPIO_InitStruct.Pull = GPIO_NOPULL;
 800350e:	2300      	movs	r3, #0
 8003510:	627b      	str	r3, [r7, #36]	; 0x24
  GPIO_InitStruct.Speed = GPIO_SPEED_FREQ_LOW;
 8003512:	2300      	movs	r3, #0
 8003514:	62bb      	str	r3, [r7, #40]	; 0x28
  HAL_GPIO_Init(ICM20948_CS_GPIO_Port, &GPIO_InitStruct);
 8003516:	f107 031c 	add.w	r3, r7, #28
 800351a:	4619      	mov	r1, r3
 800351c:	4812      	ldr	r0, [pc, #72]	; (8003568 <MX_GPIO_Init+0x140>)
 800351e:	f003 fb59 	bl	8006bd4 <HAL_GPIO_Init>

  /*Configure GPIO pins : PCPin PCPin */
  GPIO_InitStruct.Pin = DRIVER_STEP_Pin|DRIVER_DIR_Pin;
 8003522:	2330      	movs	r3, #48	; 0x30
 8003524:	61fb      	str	r3, [r7, #28]
  GPIO_InitStruct.Mode = GPIO_MODE_OUTPUT_PP;
 8003526:	2301      	movs	r3, #1
 8003528:	623b      	str	r3, [r7, #32]
  GPIO_InitStruct.Pull = GPIO_NOPULL;
 800352a:	2300      	movs	r3, #0
 800352c:	627b      	str	r3, [r7, #36]	; 0x24
  GPIO_InitStruct.Speed = GPIO_SPEED_FREQ_LOW;
 800352e:	2300      	movs	r3, #0
 8003530:	62bb      	str	r3, [r7, #40]	; 0x28
  HAL_GPIO_Init(GPIOC, &GPIO_InitStruct);
 8003532:	f107 031c 	add.w	r3, r7, #28
 8003536:	4619      	mov	r1, r3
 8003538:	480c      	ldr	r0, [pc, #48]	; (800356c <MX_GPIO_Init+0x144>)
 800353a:	f003 fb4b 	bl	8006bd4 <HAL_GPIO_Init>

  /*Configure GPIO pins : PDPin PDPin PDPin PDPin */
  GPIO_InitStruct.Pin = LED_0_Pin|LED_1_Pin|LED_2_Pin|LED_3_Pin;
 800353e:	f44f 4370 	mov.w	r3, #61440	; 0xf000
 8003542:	61fb      	str	r3, [r7, #28]
  GPIO_InitStruct.Mode = GPIO_MODE_OUTPUT_PP;
 8003544:	2301      	movs	r3, #1
 8003546:	623b      	str	r3, [r7, #32]
  GPIO_InitStruct.Pull = GPIO_NOPULL;
 8003548:	2300      	movs	r3, #0
 800354a:	627b      	str	r3, [r7, #36]	; 0x24
  GPIO_InitStruct.Speed = GPIO_SPEED_FREQ_LOW;
 800354c:	2300      	movs	r3, #0
 800354e:	62bb      	str	r3, [r7, #40]	; 0x28
  HAL_GPIO_Init(GPIOD, &GPIO_InitStruct);
 8003550:	f107 031c 	add.w	r3, r7, #28
 8003554:	4619      	mov	r1, r3
 8003556:	4806      	ldr	r0, [pc, #24]	; (8003570 <MX_GPIO_Init+0x148>)
 8003558:	f003 fb3c 	bl	8006bd4 <HAL_GPIO_Init>

}
 800355c:	bf00      	nop
 800355e:	3730      	adds	r7, #48	; 0x30
 8003560:	46bd      	mov	sp, r7
 8003562:	bd80      	pop	{r7, pc}
 8003564:	40023800 	.word	0x40023800
 8003568:	40021000 	.word	0x40021000
 800356c:	40020800 	.word	0x40020800
 8003570:	40020c00 	.word	0x40020c00

08003574 <HAL_UART_RxCpltCallback>:
/* USER CODE END PFP */

/* Private user code ---------------------------------------------------------*/
/* USER CODE BEGIN 0 */
void HAL_UART_RxCpltCallback(UART_HandleTypeDef *UartHandle)
{
 8003574:	b580      	push	{r7, lr}
 8003576:	b084      	sub	sp, #16
 8003578:	af00      	add	r7, sp, #0
 800357a:	6078      	str	r0, [r7, #4]
	HAL_StatusTypeDef Res;

	if (UartHandle->Instance == UART4){ // Jetson commutation
 800357c:	687b      	ldr	r3, [r7, #4]
 800357e:	681b      	ldr	r3, [r3, #0]
 8003580:	4a71      	ldr	r2, [pc, #452]	; (8003748 <HAL_UART_RxCpltCallback+0x1d4>)
 8003582:	4293      	cmp	r3, r2
 8003584:	d16b      	bne.n	800365e <HAL_UART_RxCpltCallback+0xea>
		if (USART1ReceiveState == 0){
 8003586:	4b71      	ldr	r3, [pc, #452]	; (800374c <HAL_UART_RxCpltCallback+0x1d8>)
 8003588:	781b      	ldrb	r3, [r3, #0]
 800358a:	b2db      	uxtb	r3, r3
 800358c:	2b00      	cmp	r3, #0
 800358e:	d11f      	bne.n	80035d0 <HAL_UART_RxCpltCallback+0x5c>
			if ((SerialOnBoardRequest.CR != 13) || (SerialOnBoardRequest.LF != 10)){
 8003590:	4b6f      	ldr	r3, [pc, #444]	; (8003750 <HAL_UART_RxCpltCallback+0x1dc>)
 8003592:	7a1b      	ldrb	r3, [r3, #8]
 8003594:	2b0d      	cmp	r3, #13
 8003596:	d103      	bne.n	80035a0 <HAL_UART_RxCpltCallback+0x2c>
 8003598:	4b6d      	ldr	r3, [pc, #436]	; (8003750 <HAL_UART_RxCpltCallback+0x1dc>)
 800359a:	7a5b      	ldrb	r3, [r3, #9]
 800359c:	2b0a      	cmp	r3, #10
 800359e:	d00c      	beq.n	80035ba <HAL_UART_RxCpltCallback+0x46>
				Res = HAL_UART_Receive_DMA(&huart4, LostByte, 1);
 80035a0:	4b6c      	ldr	r3, [pc, #432]	; (8003754 <HAL_UART_RxCpltCallback+0x1e0>)
 80035a2:	681b      	ldr	r3, [r3, #0]
 80035a4:	2201      	movs	r2, #1
 80035a6:	4619      	mov	r1, r3
 80035a8:	486b      	ldr	r0, [pc, #428]	; (8003758 <HAL_UART_RxCpltCallback+0x1e4>)
 80035aa:	f005 fd63 	bl	8009074 <HAL_UART_Receive_DMA>
 80035ae:	4603      	mov	r3, r0
 80035b0:	73fb      	strb	r3, [r7, #15]
				USART1ReceiveState = 1;
 80035b2:	4b66      	ldr	r3, [pc, #408]	; (800374c <HAL_UART_RxCpltCallback+0x1d8>)
 80035b4:	2201      	movs	r2, #1
 80035b6:	701a      	strb	r2, [r3, #0]
 80035b8:	e042      	b.n	8003640 <HAL_UART_RxCpltCallback+0xcc>
			}
			else{
 				USART1ReceiveState = 10;
 80035ba:	4b64      	ldr	r3, [pc, #400]	; (800374c <HAL_UART_RxCpltCallback+0x1d8>)
 80035bc:	220a      	movs	r2, #10
 80035be:	701a      	strb	r2, [r3, #0]
				Res = HAL_UART_Receive_DMA(&huart4, (uint8_t*)SerialOnBoardRequest.Buffer, ON_BOARD_CONTROL_REQUEST_SIZE);
 80035c0:	220a      	movs	r2, #10
 80035c2:	4963      	ldr	r1, [pc, #396]	; (8003750 <HAL_UART_RxCpltCallback+0x1dc>)
 80035c4:	4864      	ldr	r0, [pc, #400]	; (8003758 <HAL_UART_RxCpltCallback+0x1e4>)
 80035c6:	f005 fd55 	bl	8009074 <HAL_UART_Receive_DMA>
 80035ca:	4603      	mov	r3, r0
 80035cc:	73fb      	strb	r3, [r7, #15]
 80035ce:	e037      	b.n	8003640 <HAL_UART_RxCpltCallback+0xcc>
			}
		}
		else{
			if(USART1ReceiveState == 1){
 80035d0:	4b5e      	ldr	r3, [pc, #376]	; (800374c <HAL_UART_RxCpltCallback+0x1d8>)
 80035d2:	781b      	ldrb	r3, [r3, #0]
 80035d4:	b2db      	uxtb	r3, r3
 80035d6:	2b01      	cmp	r3, #1
 80035d8:	d111      	bne.n	80035fe <HAL_UART_RxCpltCallback+0x8a>
				if (LostByte[0] == 13){
 80035da:	4b5e      	ldr	r3, [pc, #376]	; (8003754 <HAL_UART_RxCpltCallback+0x1e0>)
 80035dc:	681b      	ldr	r3, [r3, #0]
 80035de:	781b      	ldrb	r3, [r3, #0]
 80035e0:	2b0d      	cmp	r3, #13
 80035e2:	d102      	bne.n	80035ea <HAL_UART_RxCpltCallback+0x76>
					USART1ReceiveState = 2;
 80035e4:	4b59      	ldr	r3, [pc, #356]	; (800374c <HAL_UART_RxCpltCallback+0x1d8>)
 80035e6:	2202      	movs	r2, #2
 80035e8:	701a      	strb	r2, [r3, #0]
				}
				Res = HAL_UART_Receive_DMA(&huart4, (uint8_t*)LostByte, 1);
 80035ea:	4b5a      	ldr	r3, [pc, #360]	; (8003754 <HAL_UART_RxCpltCallback+0x1e0>)
 80035ec:	681b      	ldr	r3, [r3, #0]
 80035ee:	2201      	movs	r2, #1
 80035f0:	4619      	mov	r1, r3
 80035f2:	4859      	ldr	r0, [pc, #356]	; (8003758 <HAL_UART_RxCpltCallback+0x1e4>)
 80035f4:	f005 fd3e 	bl	8009074 <HAL_UART_Receive_DMA>
 80035f8:	4603      	mov	r3, r0
 80035fa:	73fb      	strb	r3, [r7, #15]
 80035fc:	e020      	b.n	8003640 <HAL_UART_RxCpltCallback+0xcc>
			}
			else{
				if (USART1ReceiveState == 2){
 80035fe:	4b53      	ldr	r3, [pc, #332]	; (800374c <HAL_UART_RxCpltCallback+0x1d8>)
 8003600:	781b      	ldrb	r3, [r3, #0]
 8003602:	b2db      	uxtb	r3, r3
 8003604:	2b02      	cmp	r3, #2
 8003606:	d11b      	bne.n	8003640 <HAL_UART_RxCpltCallback+0xcc>
					if (LostByte[0] == 10){
 8003608:	4b52      	ldr	r3, [pc, #328]	; (8003754 <HAL_UART_RxCpltCallback+0x1e0>)
 800360a:	681b      	ldr	r3, [r3, #0]
 800360c:	781b      	ldrb	r3, [r3, #0]
 800360e:	2b0a      	cmp	r3, #10
 8003610:	d10a      	bne.n	8003628 <HAL_UART_RxCpltCallback+0xb4>
						USART1ReceiveState = 0;
 8003612:	4b4e      	ldr	r3, [pc, #312]	; (800374c <HAL_UART_RxCpltCallback+0x1d8>)
 8003614:	2200      	movs	r2, #0
 8003616:	701a      	strb	r2, [r3, #0]
						Res = HAL_UART_Receive_DMA(&huart4, (uint8_t*)SerialOnBoardRequest.Buffer, ON_BOARD_CONTROL_REQUEST_SIZE);
 8003618:	220a      	movs	r2, #10
 800361a:	494d      	ldr	r1, [pc, #308]	; (8003750 <HAL_UART_RxCpltCallback+0x1dc>)
 800361c:	484e      	ldr	r0, [pc, #312]	; (8003758 <HAL_UART_RxCpltCallback+0x1e4>)
 800361e:	f005 fd29 	bl	8009074 <HAL_UART_Receive_DMA>
 8003622:	4603      	mov	r3, r0
 8003624:	73fb      	strb	r3, [r7, #15]
 8003626:	e00b      	b.n	8003640 <HAL_UART_RxCpltCallback+0xcc>
					}
					else{
						USART1ReceiveState = 1;
 8003628:	4b48      	ldr	r3, [pc, #288]	; (800374c <HAL_UART_RxCpltCallback+0x1d8>)
 800362a:	2201      	movs	r2, #1
 800362c:	701a      	strb	r2, [r3, #0]
						Res = HAL_UART_Receive_DMA(&huart4, (uint8_t*)LostByte, 1);
 800362e:	4b49      	ldr	r3, [pc, #292]	; (8003754 <HAL_UART_RxCpltCallback+0x1e0>)
 8003630:	681b      	ldr	r3, [r3, #0]
 8003632:	2201      	movs	r2, #1
 8003634:	4619      	mov	r1, r3
 8003636:	4848      	ldr	r0, [pc, #288]	; (8003758 <HAL_UART_RxCpltCallback+0x1e4>)
 8003638:	f005 fd1c 	bl	8009074 <HAL_UART_Receive_DMA>
 800363c:	4603      	mov	r3, r0
 800363e:	73fb      	strb	r3, [r7, #15]
					}
				}
			}
		}
		if (Res != HAL_OK)
 8003640:	7bfb      	ldrb	r3, [r7, #15]
 8003642:	2b00      	cmp	r3, #0
 8003644:	d00b      	beq.n	800365e <HAL_UART_RxCpltCallback+0xea>
		{
			MX_UART4_Init();
 8003646:	f002 f8df 	bl	8005808 <MX_UART4_Init>
			USART1ReceiveState = 0;
 800364a:	4b40      	ldr	r3, [pc, #256]	; (800374c <HAL_UART_RxCpltCallback+0x1d8>)
 800364c:	2200      	movs	r2, #0
 800364e:	701a      	strb	r2, [r3, #0]
			Res = HAL_UART_Receive_DMA(&huart4, (uint8_t*)SerialOnBoardRequest.Buffer, ON_BOARD_CONTROL_REQUEST_SIZE);
 8003650:	220a      	movs	r2, #10
 8003652:	493f      	ldr	r1, [pc, #252]	; (8003750 <HAL_UART_RxCpltCallback+0x1dc>)
 8003654:	4840      	ldr	r0, [pc, #256]	; (8003758 <HAL_UART_RxCpltCallback+0x1e4>)
 8003656:	f005 fd0d 	bl	8009074 <HAL_UART_Receive_DMA>
 800365a:	4603      	mov	r3, r0
 800365c:	73fb      	strb	r3, [r7, #15]
		}
	}

	if (UartHandle->Instance == USART2)
 800365e:	687b      	ldr	r3, [r7, #4]
 8003660:	681b      	ldr	r3, [r3, #0]
 8003662:	4a3e      	ldr	r2, [pc, #248]	; (800375c <HAL_UART_RxCpltCallback+0x1e8>)
 8003664:	4293      	cmp	r3, r2
 8003666:	d16b      	bne.n	8003740 <HAL_UART_RxCpltCallback+0x1cc>
	{
		if (USART2ReceiveState == 0)
 8003668:	4b3d      	ldr	r3, [pc, #244]	; (8003760 <HAL_UART_RxCpltCallback+0x1ec>)
 800366a:	781b      	ldrb	r3, [r3, #0]
 800366c:	b2db      	uxtb	r3, r3
 800366e:	2b00      	cmp	r3, #0
 8003670:	d11f      	bne.n	80036b2 <HAL_UART_RxCpltCallback+0x13e>
		{
			if ((SerialControlWheelsResponce.CR != 13) || (SerialControlWheelsResponce.LF != 10))
 8003672:	4b3c      	ldr	r3, [pc, #240]	; (8003764 <HAL_UART_RxCpltCallback+0x1f0>)
 8003674:	7b9b      	ldrb	r3, [r3, #14]
 8003676:	2b0d      	cmp	r3, #13
 8003678:	d103      	bne.n	8003682 <HAL_UART_RxCpltCallback+0x10e>
 800367a:	4b3a      	ldr	r3, [pc, #232]	; (8003764 <HAL_UART_RxCpltCallback+0x1f0>)
 800367c:	7bdb      	ldrb	r3, [r3, #15]
 800367e:	2b0a      	cmp	r3, #10
 8003680:	d00c      	beq.n	800369c <HAL_UART_RxCpltCallback+0x128>
			{
				Res = HAL_UART_Receive_DMA(&huart2, LostByte, 1);
 8003682:	4b34      	ldr	r3, [pc, #208]	; (8003754 <HAL_UART_RxCpltCallback+0x1e0>)
 8003684:	681b      	ldr	r3, [r3, #0]
 8003686:	2201      	movs	r2, #1
 8003688:	4619      	mov	r1, r3
 800368a:	4837      	ldr	r0, [pc, #220]	; (8003768 <HAL_UART_RxCpltCallback+0x1f4>)
 800368c:	f005 fcf2 	bl	8009074 <HAL_UART_Receive_DMA>
 8003690:	4603      	mov	r3, r0
 8003692:	73fb      	strb	r3, [r7, #15]
				USART2ReceiveState = 1;
 8003694:	4b32      	ldr	r3, [pc, #200]	; (8003760 <HAL_UART_RxCpltCallback+0x1ec>)
 8003696:	2201      	movs	r2, #1
 8003698:	701a      	strb	r2, [r3, #0]
 800369a:	e042      	b.n	8003722 <HAL_UART_RxCpltCallback+0x1ae>
			}
			else
			{
				USART2ReceiveState = 10;
 800369c:	4b30      	ldr	r3, [pc, #192]	; (8003760 <HAL_UART_RxCpltCallback+0x1ec>)
 800369e:	220a      	movs	r2, #10
 80036a0:	701a      	strb	r2, [r3, #0]
				Res = HAL_UART_Receive_DMA(&huart2, (uint8_t*)SerialControlWheelsResponce.Buffer, WHEELS_RESPONCE_SIZE);
 80036a2:	2210      	movs	r2, #16
 80036a4:	492f      	ldr	r1, [pc, #188]	; (8003764 <HAL_UART_RxCpltCallback+0x1f0>)
 80036a6:	4830      	ldr	r0, [pc, #192]	; (8003768 <HAL_UART_RxCpltCallback+0x1f4>)
 80036a8:	f005 fce4 	bl	8009074 <HAL_UART_Receive_DMA>
 80036ac:	4603      	mov	r3, r0
 80036ae:	73fb      	strb	r3, [r7, #15]
 80036b0:	e037      	b.n	8003722 <HAL_UART_RxCpltCallback+0x1ae>
			}
		}
		else
		{
			if(USART2ReceiveState == 1)
 80036b2:	4b2b      	ldr	r3, [pc, #172]	; (8003760 <HAL_UART_RxCpltCallback+0x1ec>)
 80036b4:	781b      	ldrb	r3, [r3, #0]
 80036b6:	b2db      	uxtb	r3, r3
 80036b8:	2b01      	cmp	r3, #1
 80036ba:	d111      	bne.n	80036e0 <HAL_UART_RxCpltCallback+0x16c>
			{
				if (LostByte[0] == 13)
 80036bc:	4b25      	ldr	r3, [pc, #148]	; (8003754 <HAL_UART_RxCpltCallback+0x1e0>)
 80036be:	681b      	ldr	r3, [r3, #0]
 80036c0:	781b      	ldrb	r3, [r3, #0]
 80036c2:	2b0d      	cmp	r3, #13
 80036c4:	d102      	bne.n	80036cc <HAL_UART_RxCpltCallback+0x158>
				{
					USART2ReceiveState = 2;
 80036c6:	4b26      	ldr	r3, [pc, #152]	; (8003760 <HAL_UART_RxCpltCallback+0x1ec>)
 80036c8:	2202      	movs	r2, #2
 80036ca:	701a      	strb	r2, [r3, #0]
				}
				Res = HAL_UART_Receive_DMA(&huart2, (uint8_t*)LostByte, 1);
 80036cc:	4b21      	ldr	r3, [pc, #132]	; (8003754 <HAL_UART_RxCpltCallback+0x1e0>)
 80036ce:	681b      	ldr	r3, [r3, #0]
 80036d0:	2201      	movs	r2, #1
 80036d2:	4619      	mov	r1, r3
 80036d4:	4824      	ldr	r0, [pc, #144]	; (8003768 <HAL_UART_RxCpltCallback+0x1f4>)
 80036d6:	f005 fccd 	bl	8009074 <HAL_UART_Receive_DMA>
 80036da:	4603      	mov	r3, r0
 80036dc:	73fb      	strb	r3, [r7, #15]
 80036de:	e020      	b.n	8003722 <HAL_UART_RxCpltCallback+0x1ae>
			}
			else
			{
				if (USART2ReceiveState == 2)
 80036e0:	4b1f      	ldr	r3, [pc, #124]	; (8003760 <HAL_UART_RxCpltCallback+0x1ec>)
 80036e2:	781b      	ldrb	r3, [r3, #0]
 80036e4:	b2db      	uxtb	r3, r3
 80036e6:	2b02      	cmp	r3, #2
 80036e8:	d11b      	bne.n	8003722 <HAL_UART_RxCpltCallback+0x1ae>
				{
					if (LostByte[0] == 10)
 80036ea:	4b1a      	ldr	r3, [pc, #104]	; (8003754 <HAL_UART_RxCpltCallback+0x1e0>)
 80036ec:	681b      	ldr	r3, [r3, #0]
 80036ee:	781b      	ldrb	r3, [r3, #0]
 80036f0:	2b0a      	cmp	r3, #10
 80036f2:	d10a      	bne.n	800370a <HAL_UART_RxCpltCallback+0x196>
					{
						USART2ReceiveState = 0;
 80036f4:	4b1a      	ldr	r3, [pc, #104]	; (8003760 <HAL_UART_RxCpltCallback+0x1ec>)
 80036f6:	2200      	movs	r2, #0
 80036f8:	701a      	strb	r2, [r3, #0]
						Res = HAL_UART_Receive_DMA(&huart2, (uint8_t*)SerialControlWheelsResponce.Buffer, WHEELS_RESPONCE_SIZE);
 80036fa:	2210      	movs	r2, #16
 80036fc:	4919      	ldr	r1, [pc, #100]	; (8003764 <HAL_UART_RxCpltCallback+0x1f0>)
 80036fe:	481a      	ldr	r0, [pc, #104]	; (8003768 <HAL_UART_RxCpltCallback+0x1f4>)
 8003700:	f005 fcb8 	bl	8009074 <HAL_UART_Receive_DMA>
 8003704:	4603      	mov	r3, r0
 8003706:	73fb      	strb	r3, [r7, #15]
 8003708:	e00b      	b.n	8003722 <HAL_UART_RxCpltCallback+0x1ae>
					}
					else
					{
						USART2ReceiveState = 1;
 800370a:	4b15      	ldr	r3, [pc, #84]	; (8003760 <HAL_UART_RxCpltCallback+0x1ec>)
 800370c:	2201      	movs	r2, #1
 800370e:	701a      	strb	r2, [r3, #0]
						Res = HAL_UART_Receive_DMA(&huart2, (uint8_t*)LostByte, 1);
 8003710:	4b10      	ldr	r3, [pc, #64]	; (8003754 <HAL_UART_RxCpltCallback+0x1e0>)
 8003712:	681b      	ldr	r3, [r3, #0]
 8003714:	2201      	movs	r2, #1
 8003716:	4619      	mov	r1, r3
 8003718:	4813      	ldr	r0, [pc, #76]	; (8003768 <HAL_UART_RxCpltCallback+0x1f4>)
 800371a:	f005 fcab 	bl	8009074 <HAL_UART_Receive_DMA>
 800371e:	4603      	mov	r3, r0
 8003720:	73fb      	strb	r3, [r7, #15]
					}
				}
			}
		}

		if (Res != HAL_OK)
 8003722:	7bfb      	ldrb	r3, [r7, #15]
 8003724:	2b00      	cmp	r3, #0
 8003726:	d00b      	beq.n	8003740 <HAL_UART_RxCpltCallback+0x1cc>
		{
			MX_USART2_UART_Init();
 8003728:	f002 f898 	bl	800585c <MX_USART2_UART_Init>
			USART2ReceiveState = 0;
 800372c:	4b0c      	ldr	r3, [pc, #48]	; (8003760 <HAL_UART_RxCpltCallback+0x1ec>)
 800372e:	2200      	movs	r2, #0
 8003730:	701a      	strb	r2, [r3, #0]
			Res = HAL_UART_Receive_DMA(&huart2, (uint8_t*)SerialControlWheelsResponce.Buffer, WHEELS_RESPONCE_SIZE);
 8003732:	2210      	movs	r2, #16
 8003734:	490b      	ldr	r1, [pc, #44]	; (8003764 <HAL_UART_RxCpltCallback+0x1f0>)
 8003736:	480c      	ldr	r0, [pc, #48]	; (8003768 <HAL_UART_RxCpltCallback+0x1f4>)
 8003738:	f005 fc9c 	bl	8009074 <HAL_UART_Receive_DMA>
 800373c:	4603      	mov	r3, r0
 800373e:	73fb      	strb	r3, [r7, #15]
		}
	}
}
 8003740:	bf00      	nop
 8003742:	3710      	adds	r7, #16
 8003744:	46bd      	mov	sp, r7
 8003746:	bd80      	pop	{r7, pc}
 8003748:	40004c00 	.word	0x40004c00
 800374c:	200000ca 	.word	0x200000ca
 8003750:	2000026c 	.word	0x2000026c
 8003754:	20000308 	.word	0x20000308
 8003758:	200005b4 	.word	0x200005b4
 800375c:	40004400 	.word	0x40004400
 8003760:	200000cb 	.word	0x200000cb
 8003764:	2000018c 	.word	0x2000018c
 8003768:	200005f8 	.word	0x200005f8

0800376c <HallActualize>:
int HallActualize(float NewStep, float LastStep, float difference)
{
 800376c:	b480      	push	{r7}
 800376e:	b087      	sub	sp, #28
 8003770:	af00      	add	r7, sp, #0
 8003772:	ed87 0a03 	vstr	s0, [r7, #12]
 8003776:	edc7 0a02 	vstr	s1, [r7, #8]
 800377a:	ed87 1a01 	vstr	s2, [r7, #4]
	float MIN_VAL = LastStep - difference;
 800377e:	ed97 7a02 	vldr	s14, [r7, #8]
 8003782:	edd7 7a01 	vldr	s15, [r7, #4]
 8003786:	ee77 7a67 	vsub.f32	s15, s14, s15
 800378a:	edc7 7a05 	vstr	s15, [r7, #20]
	float MAX_VAL = LastStep + difference;
 800378e:	ed97 7a02 	vldr	s14, [r7, #8]
 8003792:	edd7 7a01 	vldr	s15, [r7, #4]
 8003796:	ee77 7a27 	vadd.f32	s15, s14, s15
 800379a:	edc7 7a04 	vstr	s15, [r7, #16]

	if ((NewStep < MAX_VAL) && (NewStep > MIN_VAL))
 800379e:	ed97 7a03 	vldr	s14, [r7, #12]
 80037a2:	edd7 7a04 	vldr	s15, [r7, #16]
 80037a6:	eeb4 7ae7 	vcmpe.f32	s14, s15
 80037aa:	eef1 fa10 	vmrs	APSR_nzcv, fpscr
 80037ae:	d50a      	bpl.n	80037c6 <HallActualize+0x5a>
 80037b0:	ed97 7a03 	vldr	s14, [r7, #12]
 80037b4:	edd7 7a05 	vldr	s15, [r7, #20]
 80037b8:	eeb4 7ae7 	vcmpe.f32	s14, s15
 80037bc:	eef1 fa10 	vmrs	APSR_nzcv, fpscr
 80037c0:	dd01      	ble.n	80037c6 <HallActualize+0x5a>
	{
		return 1;
 80037c2:	2301      	movs	r3, #1
 80037c4:	e000      	b.n	80037c8 <HallActualize+0x5c>
	}
	return 0;
 80037c6:	2300      	movs	r3, #0
}
 80037c8:	4618      	mov	r0, r3
 80037ca:	371c      	adds	r7, #28
 80037cc:	46bd      	mov	sp, r7
 80037ce:	f85d 7b04 	ldr.w	r7, [sp], #4
 80037d2:	4770      	bx	lr

080037d4 <IMU_INIT>:
void IMU_INIT()
{
 80037d4:	b580      	push	{r7, lr}
 80037d6:	af00      	add	r7, sp, #0
	gyroscopeSensitivity.axis.x = 1.0f;
 80037d8:	4b1a      	ldr	r3, [pc, #104]	; (8003844 <IMU_INIT+0x70>)
 80037da:	f04f 527e 	mov.w	r2, #1065353216	; 0x3f800000
 80037de:	601a      	str	r2, [r3, #0]
	gyroscopeSensitivity.axis.y = 1.0f;
 80037e0:	4b18      	ldr	r3, [pc, #96]	; (8003844 <IMU_INIT+0x70>)
 80037e2:	f04f 527e 	mov.w	r2, #1065353216	; 0x3f800000
 80037e6:	605a      	str	r2, [r3, #4]
	gyroscopeSensitivity.axis.z = 1.0f;
 80037e8:	4b16      	ldr	r3, [pc, #88]	; (8003844 <IMU_INIT+0x70>)
 80037ea:	f04f 527e 	mov.w	r2, #1065353216	; 0x3f800000
 80037ee:	609a      	str	r2, [r3, #8]

	accelerometerSensitivity.axis.x = 1.0f;
 80037f0:	4b15      	ldr	r3, [pc, #84]	; (8003848 <IMU_INIT+0x74>)
 80037f2:	f04f 527e 	mov.w	r2, #1065353216	; 0x3f800000
 80037f6:	601a      	str	r2, [r3, #0]
	accelerometerSensitivity.axis.y = 1.0f;
 80037f8:	4b13      	ldr	r3, [pc, #76]	; (8003848 <IMU_INIT+0x74>)
 80037fa:	f04f 527e 	mov.w	r2, #1065353216	; 0x3f800000
 80037fe:	605a      	str	r2, [r3, #4]
	accelerometerSensitivity.axis.z = 1.0f;
 8003800:	4b11      	ldr	r3, [pc, #68]	; (8003848 <IMU_INIT+0x74>)
 8003802:	f04f 527e 	mov.w	r2, #1065353216	; 0x3f800000
 8003806:	609a      	str	r2, [r3, #8]

	hardIronBias.axis.x = 0.0f;
 8003808:	4b10      	ldr	r3, [pc, #64]	; (800384c <IMU_INIT+0x78>)
 800380a:	f04f 0200 	mov.w	r2, #0
 800380e:	601a      	str	r2, [r3, #0]
	hardIronBias.axis.y = 0.0f;
 8003810:	4b0e      	ldr	r3, [pc, #56]	; (800384c <IMU_INIT+0x78>)
 8003812:	f04f 0200 	mov.w	r2, #0
 8003816:	605a      	str	r2, [r3, #4]
	hardIronBias.axis.z = 0.0f;
 8003818:	4b0c      	ldr	r3, [pc, #48]	; (800384c <IMU_INIT+0x78>)
 800381a:	f04f 0200 	mov.w	r2, #0
 800381e:	609a      	str	r2, [r3, #8]

	FusionBiasInitialise(&fusionBias, 0.5f, samplePeriod);
 8003820:	4b0b      	ldr	r3, [pc, #44]	; (8003850 <IMU_INIT+0x7c>)
 8003822:	edd3 7a00 	vldr	s15, [r3]
 8003826:	eef0 0a67 	vmov.f32	s1, s15
 800382a:	eeb6 0a00 	vmov.f32	s0, #96	; 0x3f000000  0.5
 800382e:	4809      	ldr	r0, [pc, #36]	; (8003854 <IMU_INIT+0x80>)
 8003830:	f7fe fe16 	bl	8002460 <FusionBiasInitialise>
	FusionAhrsInitialise(&fusionAhrs, 0.5f);
 8003834:	eeb6 0a00 	vmov.f32	s0, #96	; 0x3f000000  0.5
 8003838:	4807      	ldr	r0, [pc, #28]	; (8003858 <IMU_INIT+0x84>)
 800383a:	f7fd fb0f 	bl	8000e5c <FusionAhrsInitialise>
}
 800383e:	bf00      	nop
 8003840:	bd80      	pop	{r7, pc}
 8003842:	bf00      	nop
 8003844:	20000284 	.word	0x20000284
 8003848:	200002e0 	.word	0x200002e0
 800384c:	2000029c 	.word	0x2000029c
 8003850:	2000002c 	.word	0x2000002c
 8003854:	2000020c 	.word	0x2000020c
 8003858:	200001d4 	.word	0x200001d4

0800385c <IMU_UPDATE>:
void IMU_UPDATE()
{
 800385c:	b5b0      	push	{r4, r5, r7, lr}
 800385e:	f5ad 7d2c 	sub.w	sp, sp, #688	; 0x2b0
 8003862:	af00      	add	r7, sp, #0
	icm20948_gyro_read_dps(&my_gyro);
 8003864:	48d6      	ldr	r0, [pc, #856]	; (8003bc0 <IMU_UPDATE+0x364>)
 8003866:	f7ff f8fd 	bl	8002a64 <icm20948_gyro_read_dps>
	icm20948_accel_read_g(&my_accel);
 800386a:	48d6      	ldr	r0, [pc, #856]	; (8003bc4 <IMU_UPDATE+0x368>)
 800386c:	f7ff f928 	bl	8002ac0 <icm20948_accel_read_g>
	//ak09916_mag_read_uT(&my_mag);

	uncalibratedGyroscope.axis.x = my_gyro.x;
 8003870:	4bd3      	ldr	r3, [pc, #844]	; (8003bc0 <IMU_UPDATE+0x364>)
 8003872:	681b      	ldr	r3, [r3, #0]
 8003874:	4ad4      	ldr	r2, [pc, #848]	; (8003bc8 <IMU_UPDATE+0x36c>)
 8003876:	6013      	str	r3, [r2, #0]
	uncalibratedGyroscope.axis.y = my_gyro.y;
 8003878:	4bd1      	ldr	r3, [pc, #836]	; (8003bc0 <IMU_UPDATE+0x364>)
 800387a:	685b      	ldr	r3, [r3, #4]
 800387c:	4ad2      	ldr	r2, [pc, #840]	; (8003bc8 <IMU_UPDATE+0x36c>)
 800387e:	6053      	str	r3, [r2, #4]
	uncalibratedGyroscope.axis.z = my_gyro.z;
 8003880:	4bcf      	ldr	r3, [pc, #828]	; (8003bc0 <IMU_UPDATE+0x364>)
 8003882:	689b      	ldr	r3, [r3, #8]
 8003884:	4ad0      	ldr	r2, [pc, #832]	; (8003bc8 <IMU_UPDATE+0x36c>)
 8003886:	6093      	str	r3, [r2, #8]

	uncalibratedAccelerometer.axis.x = my_accel.x;
 8003888:	4bce      	ldr	r3, [pc, #824]	; (8003bc4 <IMU_UPDATE+0x368>)
 800388a:	681b      	ldr	r3, [r3, #0]
 800388c:	4acf      	ldr	r2, [pc, #828]	; (8003bcc <IMU_UPDATE+0x370>)
 800388e:	6013      	str	r3, [r2, #0]
	uncalibratedAccelerometer.axis.y = my_accel.y;
 8003890:	4bcc      	ldr	r3, [pc, #816]	; (8003bc4 <IMU_UPDATE+0x368>)
 8003892:	685b      	ldr	r3, [r3, #4]
 8003894:	4acd      	ldr	r2, [pc, #820]	; (8003bcc <IMU_UPDATE+0x370>)
 8003896:	6053      	str	r3, [r2, #4]
	uncalibratedAccelerometer.axis.z = my_accel.z;
 8003898:	4bca      	ldr	r3, [pc, #808]	; (8003bc4 <IMU_UPDATE+0x368>)
 800389a:	689b      	ldr	r3, [r3, #8]
 800389c:	4acb      	ldr	r2, [pc, #812]	; (8003bcc <IMU_UPDATE+0x370>)
 800389e:	6093      	str	r3, [r2, #8]

	//uncalibratedMagnetometer.axis.x = my_mag.x;
	//uncalibratedMagnetometer.axis.y = my_mag.y;
	//uncalibratedMagnetometer.axis.z = my_mag.z;

	FusionVector3 calibratedGyroscope = FusionCalibrationInertial(uncalibratedGyroscope, FUSION_ROTATION_MATRIX_IDENTITY, gyroscopeSensitivity, FUSION_VECTOR3_ZERO);
 80038a0:	4bcb      	ldr	r3, [pc, #812]	; (8003bd0 <IMU_UPDATE+0x374>)
 80038a2:	f507 74e2 	add.w	r4, r7, #452	; 0x1c4
 80038a6:	461d      	mov	r5, r3
 80038a8:	cd0f      	ldmia	r5!, {r0, r1, r2, r3}
 80038aa:	c40f      	stmia	r4!, {r0, r1, r2, r3}
 80038ac:	cd0f      	ldmia	r5!, {r0, r1, r2, r3}
 80038ae:	c40f      	stmia	r4!, {r0, r1, r2, r3}
 80038b0:	682b      	ldr	r3, [r5, #0]
 80038b2:	6023      	str	r3, [r4, #0]
 80038b4:	f04f 0300 	mov.w	r3, #0
 80038b8:	f8c7 31b8 	str.w	r3, [r7, #440]	; 0x1b8
 80038bc:	f04f 0300 	mov.w	r3, #0
 80038c0:	f8c7 31bc 	str.w	r3, [r7, #444]	; 0x1bc
 80038c4:	f04f 0300 	mov.w	r3, #0
 80038c8:	f8c7 31c0 	str.w	r3, [r7, #448]	; 0x1c0
 80038cc:	f507 73ac 	add.w	r3, r7, #344	; 0x158
 80038d0:	4abd      	ldr	r2, [pc, #756]	; (8003bc8 <IMU_UPDATE+0x36c>)
 80038d2:	ca07      	ldmia	r2, {r0, r1, r2}
 80038d4:	e883 0007 	stmia.w	r3, {r0, r1, r2}
 80038d8:	1d3b      	adds	r3, r7, #4
 80038da:	461d      	mov	r5, r3
 80038dc:	f507 74e2 	add.w	r4, r7, #452	; 0x1c4
 80038e0:	cc0f      	ldmia	r4!, {r0, r1, r2, r3}
 80038e2:	c50f      	stmia	r5!, {r0, r1, r2, r3}
 80038e4:	cc0f      	ldmia	r4!, {r0, r1, r2, r3}
 80038e6:	c50f      	stmia	r5!, {r0, r1, r2, r3}
 80038e8:	6823      	ldr	r3, [r4, #0]
 80038ea:	602b      	str	r3, [r5, #0]
 80038ec:	f507 73b2 	add.w	r3, r7, #356	; 0x164
 80038f0:	4ab8      	ldr	r2, [pc, #736]	; (8003bd4 <IMU_UPDATE+0x378>)
 80038f2:	ca07      	ldmia	r2, {r0, r1, r2}
 80038f4:	e883 0007 	stmia.w	r3, {r0, r1, r2}
 80038f8:	f507 73b8 	add.w	r3, r7, #368	; 0x170
 80038fc:	461c      	mov	r4, r3
 80038fe:	f507 73dc 	add.w	r3, r7, #440	; 0x1b8
 8003902:	e893 0007 	ldmia.w	r3, {r0, r1, r2}
 8003906:	e884 0007 	stmia.w	r4, {r0, r1, r2}
 800390a:	f507 73a0 	add.w	r3, r7, #320	; 0x140
 800390e:	f507 72ac 	add.w	r2, r7, #344	; 0x158
 8003912:	ca07      	ldmia	r2, {r0, r1, r2}
 8003914:	e883 0007 	stmia.w	r3, {r0, r1, r2}
 8003918:	f507 73a6 	add.w	r3, r7, #332	; 0x14c
 800391c:	f507 72b8 	add.w	r2, r7, #368	; 0x170
 8003920:	ca07      	ldmia	r2, {r0, r1, r2}
 8003922:	e883 0007 	stmia.w	r3, {r0, r1, r2}
 * @param vectorB Second vector of the operation.
 * @return vectorB subtracted from vectorA.
 */
static inline __attribute__((always_inline)) FusionVector3 FusionVectorSubtract(const FusionVector3 vectorA, const FusionVector3 vectorB) {
    FusionVector3 result;
    result.axis.x = vectorA.axis.x - vectorB.axis.x;
 8003926:	f507 73a0 	add.w	r3, r7, #320	; 0x140
 800392a:	ed93 7a00 	vldr	s14, [r3]
 800392e:	f507 73a6 	add.w	r3, r7, #332	; 0x14c
 8003932:	edd3 7a00 	vldr	s15, [r3]
 8003936:	ee77 7a67 	vsub.f32	s15, s14, s15
 800393a:	f507 739a 	add.w	r3, r7, #308	; 0x134
 800393e:	edc3 7a00 	vstr	s15, [r3]
    result.axis.y = vectorA.axis.y - vectorB.axis.y;
 8003942:	f507 73a0 	add.w	r3, r7, #320	; 0x140
 8003946:	ed93 7a01 	vldr	s14, [r3, #4]
 800394a:	f507 73a6 	add.w	r3, r7, #332	; 0x14c
 800394e:	edd3 7a01 	vldr	s15, [r3, #4]
 8003952:	ee77 7a67 	vsub.f32	s15, s14, s15
 8003956:	f507 739a 	add.w	r3, r7, #308	; 0x134
 800395a:	edc3 7a01 	vstr	s15, [r3, #4]
    result.axis.z = vectorA.axis.z - vectorB.axis.z;
 800395e:	f507 73a0 	add.w	r3, r7, #320	; 0x140
 8003962:	ed93 7a02 	vldr	s14, [r3, #8]
 8003966:	f507 73a6 	add.w	r3, r7, #332	; 0x14c
 800396a:	edd3 7a02 	vldr	s15, [r3, #8]
 800396e:	ee77 7a67 	vsub.f32	s15, s14, s15
 8003972:	f507 739a 	add.w	r3, r7, #308	; 0x134
 8003976:	edc3 7a02 	vstr	s15, [r3, #8]
    return result;
 800397a:	f507 729a 	add.w	r2, r7, #308	; 0x134
 800397e:	f507 7316 	add.w	r3, r7, #600	; 0x258
 8003982:	ca07      	ldmia	r2, {r0, r1, r2}
 8003984:	e883 0007 	stmia.w	r3, {r0, r1, r2}
 8003988:	f507 7322 	add.w	r3, r7, #648	; 0x288
 800398c:	f507 7216 	add.w	r2, r7, #600	; 0x258
 8003990:	ca07      	ldmia	r2, {r0, r1, r2}
 8003992:	e883 0007 	stmia.w	r3, {r0, r1, r2}
 8003996:	f507 738e 	add.w	r3, r7, #284	; 0x11c
 800399a:	461c      	mov	r4, r3
 800399c:	f507 7322 	add.w	r3, r7, #648	; 0x288
 80039a0:	e893 0007 	ldmia.w	r3, {r0, r1, r2}
 80039a4:	e884 0007 	stmia.w	r4, {r0, r1, r2}
 80039a8:	f507 7394 	add.w	r3, r7, #296	; 0x128
 80039ac:	f507 72b2 	add.w	r2, r7, #356	; 0x164
 80039b0:	ca07      	ldmia	r2, {r0, r1, r2}
 80039b2:	e883 0007 	stmia.w	r3, {r0, r1, r2}
 * @param vectorB Second vector of the operation.
 * @return Hadamard product of vectorA and vectorB.
 */
static inline __attribute__((always_inline)) FusionVector3 FusionVectorHadamardProduct(const FusionVector3 vectorA, const FusionVector3 vectorB) {
    FusionVector3 result;
    result.axis.x = vectorA.axis.x * vectorB.axis.x;
 80039b6:	f507 738e 	add.w	r3, r7, #284	; 0x11c
 80039ba:	ed93 7a00 	vldr	s14, [r3]
 80039be:	f507 7394 	add.w	r3, r7, #296	; 0x128
 80039c2:	edd3 7a00 	vldr	s15, [r3]
 80039c6:	ee67 7a27 	vmul.f32	s15, s14, s15
 80039ca:	f507 7388 	add.w	r3, r7, #272	; 0x110
 80039ce:	edc3 7a00 	vstr	s15, [r3]
    result.axis.y = vectorA.axis.y * vectorB.axis.y;
 80039d2:	f507 738e 	add.w	r3, r7, #284	; 0x11c
 80039d6:	ed93 7a01 	vldr	s14, [r3, #4]
 80039da:	f507 7394 	add.w	r3, r7, #296	; 0x128
 80039de:	edd3 7a01 	vldr	s15, [r3, #4]
 80039e2:	ee67 7a27 	vmul.f32	s15, s14, s15
 80039e6:	f507 7388 	add.w	r3, r7, #272	; 0x110
 80039ea:	edc3 7a01 	vstr	s15, [r3, #4]
    result.axis.z = vectorA.axis.z * vectorB.axis.z;
 80039ee:	f507 738e 	add.w	r3, r7, #284	; 0x11c
 80039f2:	ed93 7a02 	vldr	s14, [r3, #8]
 80039f6:	f507 7394 	add.w	r3, r7, #296	; 0x128
 80039fa:	edd3 7a02 	vldr	s15, [r3, #8]
 80039fe:	ee67 7a27 	vmul.f32	s15, s14, s15
 8003a02:	f507 7388 	add.w	r3, r7, #272	; 0x110
 8003a06:	edc3 7a02 	vstr	s15, [r3, #8]
    return result;
 8003a0a:	f507 7288 	add.w	r2, r7, #272	; 0x110
 8003a0e:	f507 7319 	add.w	r3, r7, #612	; 0x264
 8003a12:	ca07      	ldmia	r2, {r0, r1, r2}
 8003a14:	e883 0007 	stmia.w	r3, {r0, r1, r2}
 8003a18:	f507 731f 	add.w	r3, r7, #636	; 0x27c
 8003a1c:	f507 7219 	add.w	r2, r7, #612	; 0x264
 8003a20:	ca07      	ldmia	r2, {r0, r1, r2}
 8003a22:	e883 0007 	stmia.w	r3, {r0, r1, r2}
 8003a26:	f107 0228 	add.w	r2, r7, #40	; 0x28
 8003a2a:	1d3b      	adds	r3, r7, #4
 8003a2c:	4614      	mov	r4, r2
 8003a2e:	461d      	mov	r5, r3
 8003a30:	cd0f      	ldmia	r5!, {r0, r1, r2, r3}
 8003a32:	c40f      	stmia	r4!, {r0, r1, r2, r3}
 8003a34:	cd0f      	ldmia	r5!, {r0, r1, r2, r3}
 8003a36:	c40f      	stmia	r4!, {r0, r1, r2, r3}
 8003a38:	682b      	ldr	r3, [r5, #0]
 8003a3a:	6023      	str	r3, [r4, #0]
 8003a3c:	f507 7382 	add.w	r3, r7, #260	; 0x104
 8003a40:	461c      	mov	r4, r3
 8003a42:	f507 731f 	add.w	r3, r7, #636	; 0x27c
 8003a46:	e893 0007 	ldmia.w	r3, {r0, r1, r2}
 8003a4a:	e884 0007 	stmia.w	r4, {r0, r1, r2}
 * @return Rotation matrix multiplied with scalar.
 */
static inline __attribute__((always_inline)) FusionVector3 FusionRotationMatrixMultiplyVector(const FusionRotationMatrix rotationMatrix, const FusionVector3 vector) {
#define R rotationMatrix.element // define shorthand label for more readable code
    FusionVector3 result;
    result.axis.x = R.xx * vector.axis.x + R.xy * vector.axis.y + R.xz * vector.axis.z;
 8003a4e:	f107 0328 	add.w	r3, r7, #40	; 0x28
 8003a52:	ed93 7a00 	vldr	s14, [r3]
 8003a56:	f507 7382 	add.w	r3, r7, #260	; 0x104
 8003a5a:	edd3 7a00 	vldr	s15, [r3]
 8003a5e:	ee27 7a27 	vmul.f32	s14, s14, s15
 8003a62:	f107 0328 	add.w	r3, r7, #40	; 0x28
 8003a66:	edd3 6a01 	vldr	s13, [r3, #4]
 8003a6a:	f507 7382 	add.w	r3, r7, #260	; 0x104
 8003a6e:	edd3 7a01 	vldr	s15, [r3, #4]
 8003a72:	ee66 7aa7 	vmul.f32	s15, s13, s15
 8003a76:	ee37 7a27 	vadd.f32	s14, s14, s15
 8003a7a:	f107 0328 	add.w	r3, r7, #40	; 0x28
 8003a7e:	edd3 6a02 	vldr	s13, [r3, #8]
 8003a82:	f507 7382 	add.w	r3, r7, #260	; 0x104
 8003a86:	edd3 7a02 	vldr	s15, [r3, #8]
 8003a8a:	ee66 7aa7 	vmul.f32	s15, s13, s15
 8003a8e:	ee77 7a27 	vadd.f32	s15, s14, s15
 8003a92:	f107 03f8 	add.w	r3, r7, #248	; 0xf8
 8003a96:	edc3 7a00 	vstr	s15, [r3]
    result.axis.y = R.yx * vector.axis.x + R.yy * vector.axis.y + R.yz * vector.axis.z;
 8003a9a:	f107 0328 	add.w	r3, r7, #40	; 0x28
 8003a9e:	ed93 7a03 	vldr	s14, [r3, #12]
 8003aa2:	f507 7382 	add.w	r3, r7, #260	; 0x104
 8003aa6:	edd3 7a00 	vldr	s15, [r3]
 8003aaa:	ee27 7a27 	vmul.f32	s14, s14, s15
 8003aae:	f107 0328 	add.w	r3, r7, #40	; 0x28
 8003ab2:	edd3 6a04 	vldr	s13, [r3, #16]
 8003ab6:	f507 7382 	add.w	r3, r7, #260	; 0x104
 8003aba:	edd3 7a01 	vldr	s15, [r3, #4]
 8003abe:	ee66 7aa7 	vmul.f32	s15, s13, s15
 8003ac2:	ee37 7a27 	vadd.f32	s14, s14, s15
 8003ac6:	f107 0328 	add.w	r3, r7, #40	; 0x28
 8003aca:	edd3 6a05 	vldr	s13, [r3, #20]
 8003ace:	f507 7382 	add.w	r3, r7, #260	; 0x104
 8003ad2:	edd3 7a02 	vldr	s15, [r3, #8]
 8003ad6:	ee66 7aa7 	vmul.f32	s15, s13, s15
 8003ada:	ee77 7a27 	vadd.f32	s15, s14, s15
 8003ade:	f107 03f8 	add.w	r3, r7, #248	; 0xf8
 8003ae2:	edc3 7a01 	vstr	s15, [r3, #4]
    result.axis.z = R.zx * vector.axis.x + R.zy * vector.axis.y + R.zz * vector.axis.z;
 8003ae6:	f107 0328 	add.w	r3, r7, #40	; 0x28
 8003aea:	ed93 7a06 	vldr	s14, [r3, #24]
 8003aee:	f507 7382 	add.w	r3, r7, #260	; 0x104
 8003af2:	edd3 7a00 	vldr	s15, [r3]
 8003af6:	ee27 7a27 	vmul.f32	s14, s14, s15
 8003afa:	f107 0328 	add.w	r3, r7, #40	; 0x28
 8003afe:	edd3 6a07 	vldr	s13, [r3, #28]
 8003b02:	f507 7382 	add.w	r3, r7, #260	; 0x104
 8003b06:	edd3 7a01 	vldr	s15, [r3, #4]
 8003b0a:	ee66 7aa7 	vmul.f32	s15, s13, s15
 8003b0e:	ee37 7a27 	vadd.f32	s14, s14, s15
 8003b12:	f107 0328 	add.w	r3, r7, #40	; 0x28
 8003b16:	edd3 6a08 	vldr	s13, [r3, #32]
 8003b1a:	f507 7382 	add.w	r3, r7, #260	; 0x104
 8003b1e:	edd3 7a02 	vldr	s15, [r3, #8]
 8003b22:	ee66 7aa7 	vmul.f32	s15, s13, s15
 8003b26:	ee77 7a27 	vadd.f32	s15, s14, s15
 8003b2a:	f107 03f8 	add.w	r3, r7, #248	; 0xf8
 8003b2e:	edc3 7a02 	vstr	s15, [r3, #8]
    return result;
 8003b32:	f107 02f8 	add.w	r2, r7, #248	; 0xf8
 8003b36:	f507 731c 	add.w	r3, r7, #624	; 0x270
 8003b3a:	ca07      	ldmia	r2, {r0, r1, r2}
 8003b3c:	e883 0007 	stmia.w	r3, {r0, r1, r2}
 8003b40:	f507 7325 	add.w	r3, r7, #660	; 0x294
 8003b44:	f507 721c 	add.w	r2, r7, #624	; 0x270
 8003b48:	ca07      	ldmia	r2, {r0, r1, r2}
 8003b4a:	e883 0007 	stmia.w	r3, {r0, r1, r2}
 * per second per lsb for a gyroscope.
 * @param bias Bias in lsb.
 * @return Calibrated gyroscope or accelerometer measurement.
 */
static inline __attribute__((always_inline)) FusionVector3 FusionCalibrationInertial(const FusionVector3 uncalibrated, const FusionRotationMatrix misalignment, const FusionVector3 sensitivity, const FusionVector3 bias) {
    return FusionRotationMatrixMultiplyVector(misalignment, FusionVectorHadamardProduct(FusionVectorSubtract(uncalibrated, bias), sensitivity));
 8003b4e:	bf00      	nop
 8003b50:	f507 73f4 	add.w	r3, r7, #488	; 0x1e8
 8003b54:	f507 7225 	add.w	r2, r7, #660	; 0x294
 8003b58:	ca07      	ldmia	r2, {r0, r1, r2}
 8003b5a:	e883 0007 	stmia.w	r3, {r0, r1, r2}
	FusionVector3 calibratedAccelerometer = FusionCalibrationInertial(uncalibratedAccelerometer, FUSION_ROTATION_MATRIX_IDENTITY, accelerometerSensitivity, FUSION_VECTOR3_ZERO);
 8003b5e:	f507 73c4 	add.w	r3, r7, #392	; 0x188
 8003b62:	4a1b      	ldr	r2, [pc, #108]	; (8003bd0 <IMU_UPDATE+0x374>)
 8003b64:	461c      	mov	r4, r3
 8003b66:	4615      	mov	r5, r2
 8003b68:	cd0f      	ldmia	r5!, {r0, r1, r2, r3}
 8003b6a:	c40f      	stmia	r4!, {r0, r1, r2, r3}
 8003b6c:	cd0f      	ldmia	r5!, {r0, r1, r2, r3}
 8003b6e:	c40f      	stmia	r4!, {r0, r1, r2, r3}
 8003b70:	682b      	ldr	r3, [r5, #0]
 8003b72:	6023      	str	r3, [r4, #0]
 8003b74:	f507 73be 	add.w	r3, r7, #380	; 0x17c
 8003b78:	f04f 0200 	mov.w	r2, #0
 8003b7c:	601a      	str	r2, [r3, #0]
 8003b7e:	f507 73be 	add.w	r3, r7, #380	; 0x17c
 8003b82:	f04f 0200 	mov.w	r2, #0
 8003b86:	605a      	str	r2, [r3, #4]
 8003b88:	f507 73be 	add.w	r3, r7, #380	; 0x17c
 8003b8c:	f04f 0200 	mov.w	r2, #0
 8003b90:	609a      	str	r2, [r3, #8]
 8003b92:	f107 03d4 	add.w	r3, r7, #212	; 0xd4
 8003b96:	4a0d      	ldr	r2, [pc, #52]	; (8003bcc <IMU_UPDATE+0x370>)
 8003b98:	ca07      	ldmia	r2, {r0, r1, r2}
 8003b9a:	e883 0007 	stmia.w	r3, {r0, r1, r2}
 8003b9e:	1d3a      	adds	r2, r7, #4
 8003ba0:	f507 73c4 	add.w	r3, r7, #392	; 0x188
 8003ba4:	4614      	mov	r4, r2
 8003ba6:	461d      	mov	r5, r3
 8003ba8:	cd0f      	ldmia	r5!, {r0, r1, r2, r3}
 8003baa:	c40f      	stmia	r4!, {r0, r1, r2, r3}
 8003bac:	cd0f      	ldmia	r5!, {r0, r1, r2, r3}
 8003bae:	c40f      	stmia	r4!, {r0, r1, r2, r3}
 8003bb0:	682b      	ldr	r3, [r5, #0]
 8003bb2:	6023      	str	r3, [r4, #0]
 8003bb4:	f107 03e0 	add.w	r3, r7, #224	; 0xe0
 8003bb8:	4a07      	ldr	r2, [pc, #28]	; (8003bd8 <IMU_UPDATE+0x37c>)
 8003bba:	ca07      	ldmia	r2, {r0, r1, r2}
 8003bbc:	e00e      	b.n	8003bdc <IMU_UPDATE+0x380>
 8003bbe:	bf00      	nop
 8003bc0:	200002f0 	.word	0x200002f0
 8003bc4:	20000278 	.word	0x20000278
 8003bc8:	200002d4 	.word	0x200002d4
 8003bcc:	20000250 	.word	0x20000250
 8003bd0:	0800b29c 	.word	0x0800b29c
 8003bd4:	20000284 	.word	0x20000284
 8003bd8:	200002e0 	.word	0x200002e0
 8003bdc:	e883 0007 	stmia.w	r3, {r0, r1, r2}
 8003be0:	f107 03ec 	add.w	r3, r7, #236	; 0xec
 8003be4:	f507 72be 	add.w	r2, r7, #380	; 0x17c
 8003be8:	ca07      	ldmia	r2, {r0, r1, r2}
 8003bea:	e883 0007 	stmia.w	r3, {r0, r1, r2}
 8003bee:	f107 03bc 	add.w	r3, r7, #188	; 0xbc
 8003bf2:	f107 02d4 	add.w	r2, r7, #212	; 0xd4
 8003bf6:	ca07      	ldmia	r2, {r0, r1, r2}
 8003bf8:	e883 0007 	stmia.w	r3, {r0, r1, r2}
 8003bfc:	f107 03c8 	add.w	r3, r7, #200	; 0xc8
 8003c00:	f107 02ec 	add.w	r2, r7, #236	; 0xec
 8003c04:	ca07      	ldmia	r2, {r0, r1, r2}
 8003c06:	e883 0007 	stmia.w	r3, {r0, r1, r2}
    result.axis.x = vectorA.axis.x - vectorB.axis.x;
 8003c0a:	f107 03bc 	add.w	r3, r7, #188	; 0xbc
 8003c0e:	ed93 7a00 	vldr	s14, [r3]
 8003c12:	f107 03c8 	add.w	r3, r7, #200	; 0xc8
 8003c16:	edd3 7a00 	vldr	s15, [r3]
 8003c1a:	ee77 7a67 	vsub.f32	s15, s14, s15
 8003c1e:	f107 03b0 	add.w	r3, r7, #176	; 0xb0
 8003c22:	edc3 7a00 	vstr	s15, [r3]
    result.axis.y = vectorA.axis.y - vectorB.axis.y;
 8003c26:	f107 03bc 	add.w	r3, r7, #188	; 0xbc
 8003c2a:	ed93 7a01 	vldr	s14, [r3, #4]
 8003c2e:	f107 03c8 	add.w	r3, r7, #200	; 0xc8
 8003c32:	edd3 7a01 	vldr	s15, [r3, #4]
 8003c36:	ee77 7a67 	vsub.f32	s15, s14, s15
 8003c3a:	f107 03b0 	add.w	r3, r7, #176	; 0xb0
 8003c3e:	edc3 7a01 	vstr	s15, [r3, #4]
    result.axis.z = vectorA.axis.z - vectorB.axis.z;
 8003c42:	f107 03bc 	add.w	r3, r7, #188	; 0xbc
 8003c46:	ed93 7a02 	vldr	s14, [r3, #8]
 8003c4a:	f107 03c8 	add.w	r3, r7, #200	; 0xc8
 8003c4e:	edd3 7a02 	vldr	s15, [r3, #8]
 8003c52:	ee77 7a67 	vsub.f32	s15, s14, s15
 8003c56:	f107 03b0 	add.w	r3, r7, #176	; 0xb0
 8003c5a:	edc3 7a02 	vstr	s15, [r3, #8]
    return result;
 8003c5e:	f107 02b0 	add.w	r2, r7, #176	; 0xb0
 8003c62:	f507 7304 	add.w	r3, r7, #528	; 0x210
 8003c66:	ca07      	ldmia	r2, {r0, r1, r2}
 8003c68:	e883 0007 	stmia.w	r3, {r0, r1, r2}
 8003c6c:	f507 7310 	add.w	r3, r7, #576	; 0x240
 8003c70:	f507 7204 	add.w	r2, r7, #528	; 0x210
 8003c74:	ca07      	ldmia	r2, {r0, r1, r2}
 8003c76:	e883 0007 	stmia.w	r3, {r0, r1, r2}
 8003c7a:	f107 0398 	add.w	r3, r7, #152	; 0x98
 8003c7e:	461c      	mov	r4, r3
 8003c80:	f507 7310 	add.w	r3, r7, #576	; 0x240
 8003c84:	e893 0007 	ldmia.w	r3, {r0, r1, r2}
 8003c88:	e884 0007 	stmia.w	r4, {r0, r1, r2}
 8003c8c:	f107 03a4 	add.w	r3, r7, #164	; 0xa4
 8003c90:	f107 02e0 	add.w	r2, r7, #224	; 0xe0
 8003c94:	ca07      	ldmia	r2, {r0, r1, r2}
 8003c96:	e883 0007 	stmia.w	r3, {r0, r1, r2}
    result.axis.x = vectorA.axis.x * vectorB.axis.x;
 8003c9a:	f107 0398 	add.w	r3, r7, #152	; 0x98
 8003c9e:	ed93 7a00 	vldr	s14, [r3]
 8003ca2:	f107 03a4 	add.w	r3, r7, #164	; 0xa4
 8003ca6:	edd3 7a00 	vldr	s15, [r3]
 8003caa:	ee67 7a27 	vmul.f32	s15, s14, s15
 8003cae:	f107 038c 	add.w	r3, r7, #140	; 0x8c
 8003cb2:	edc3 7a00 	vstr	s15, [r3]
    result.axis.y = vectorA.axis.y * vectorB.axis.y;
 8003cb6:	f107 0398 	add.w	r3, r7, #152	; 0x98
 8003cba:	ed93 7a01 	vldr	s14, [r3, #4]
 8003cbe:	f107 03a4 	add.w	r3, r7, #164	; 0xa4
 8003cc2:	edd3 7a01 	vldr	s15, [r3, #4]
 8003cc6:	ee67 7a27 	vmul.f32	s15, s14, s15
 8003cca:	f107 038c 	add.w	r3, r7, #140	; 0x8c
 8003cce:	edc3 7a01 	vstr	s15, [r3, #4]
    result.axis.z = vectorA.axis.z * vectorB.axis.z;
 8003cd2:	f107 0398 	add.w	r3, r7, #152	; 0x98
 8003cd6:	ed93 7a02 	vldr	s14, [r3, #8]
 8003cda:	f107 03a4 	add.w	r3, r7, #164	; 0xa4
 8003cde:	edd3 7a02 	vldr	s15, [r3, #8]
 8003ce2:	ee67 7a27 	vmul.f32	s15, s14, s15
 8003ce6:	f107 038c 	add.w	r3, r7, #140	; 0x8c
 8003cea:	edc3 7a02 	vstr	s15, [r3, #8]
    return result;
 8003cee:	f107 028c 	add.w	r2, r7, #140	; 0x8c
 8003cf2:	f507 7307 	add.w	r3, r7, #540	; 0x21c
 8003cf6:	ca07      	ldmia	r2, {r0, r1, r2}
 8003cf8:	e883 0007 	stmia.w	r3, {r0, r1, r2}
 8003cfc:	f507 730d 	add.w	r3, r7, #564	; 0x234
 8003d00:	f507 7207 	add.w	r2, r7, #540	; 0x21c
 8003d04:	ca07      	ldmia	r2, {r0, r1, r2}
 8003d06:	e883 0007 	stmia.w	r3, {r0, r1, r2}
 8003d0a:	f107 0228 	add.w	r2, r7, #40	; 0x28
 8003d0e:	1d3b      	adds	r3, r7, #4
 8003d10:	4614      	mov	r4, r2
 8003d12:	461d      	mov	r5, r3
 8003d14:	cd0f      	ldmia	r5!, {r0, r1, r2, r3}
 8003d16:	c40f      	stmia	r4!, {r0, r1, r2, r3}
 8003d18:	cd0f      	ldmia	r5!, {r0, r1, r2, r3}
 8003d1a:	c40f      	stmia	r4!, {r0, r1, r2, r3}
 8003d1c:	682b      	ldr	r3, [r5, #0]
 8003d1e:	6023      	str	r3, [r4, #0]
 8003d20:	f107 0380 	add.w	r3, r7, #128	; 0x80
 8003d24:	461c      	mov	r4, r3
 8003d26:	f507 730d 	add.w	r3, r7, #564	; 0x234
 8003d2a:	e893 0007 	ldmia.w	r3, {r0, r1, r2}
 8003d2e:	e884 0007 	stmia.w	r4, {r0, r1, r2}
    result.axis.x = R.xx * vector.axis.x + R.xy * vector.axis.y + R.xz * vector.axis.z;
 8003d32:	f107 0328 	add.w	r3, r7, #40	; 0x28
 8003d36:	ed93 7a00 	vldr	s14, [r3]
 8003d3a:	f107 0380 	add.w	r3, r7, #128	; 0x80
 8003d3e:	edd3 7a00 	vldr	s15, [r3]
 8003d42:	ee27 7a27 	vmul.f32	s14, s14, s15
 8003d46:	f107 0328 	add.w	r3, r7, #40	; 0x28
 8003d4a:	edd3 6a01 	vldr	s13, [r3, #4]
 8003d4e:	f107 0380 	add.w	r3, r7, #128	; 0x80
 8003d52:	edd3 7a01 	vldr	s15, [r3, #4]
 8003d56:	ee66 7aa7 	vmul.f32	s15, s13, s15
 8003d5a:	ee37 7a27 	vadd.f32	s14, s14, s15
 8003d5e:	f107 0328 	add.w	r3, r7, #40	; 0x28
 8003d62:	edd3 6a02 	vldr	s13, [r3, #8]
 8003d66:	f107 0380 	add.w	r3, r7, #128	; 0x80
 8003d6a:	edd3 7a02 	vldr	s15, [r3, #8]
 8003d6e:	ee66 7aa7 	vmul.f32	s15, s13, s15
 8003d72:	ee77 7a27 	vadd.f32	s15, s14, s15
 8003d76:	f107 0374 	add.w	r3, r7, #116	; 0x74
 8003d7a:	edc3 7a00 	vstr	s15, [r3]
    result.axis.y = R.yx * vector.axis.x + R.yy * vector.axis.y + R.yz * vector.axis.z;
 8003d7e:	f107 0328 	add.w	r3, r7, #40	; 0x28
 8003d82:	ed93 7a03 	vldr	s14, [r3, #12]
 8003d86:	f107 0380 	add.w	r3, r7, #128	; 0x80
 8003d8a:	edd3 7a00 	vldr	s15, [r3]
 8003d8e:	ee27 7a27 	vmul.f32	s14, s14, s15
 8003d92:	f107 0328 	add.w	r3, r7, #40	; 0x28
 8003d96:	edd3 6a04 	vldr	s13, [r3, #16]
 8003d9a:	f107 0380 	add.w	r3, r7, #128	; 0x80
 8003d9e:	edd3 7a01 	vldr	s15, [r3, #4]
 8003da2:	ee66 7aa7 	vmul.f32	s15, s13, s15
 8003da6:	ee37 7a27 	vadd.f32	s14, s14, s15
 8003daa:	f107 0328 	add.w	r3, r7, #40	; 0x28
 8003dae:	edd3 6a05 	vldr	s13, [r3, #20]
 8003db2:	f107 0380 	add.w	r3, r7, #128	; 0x80
 8003db6:	edd3 7a02 	vldr	s15, [r3, #8]
 8003dba:	ee66 7aa7 	vmul.f32	s15, s13, s15
 8003dbe:	ee77 7a27 	vadd.f32	s15, s14, s15
 8003dc2:	f107 0374 	add.w	r3, r7, #116	; 0x74
 8003dc6:	edc3 7a01 	vstr	s15, [r3, #4]
    result.axis.z = R.zx * vector.axis.x + R.zy * vector.axis.y + R.zz * vector.axis.z;
 8003dca:	f107 0328 	add.w	r3, r7, #40	; 0x28
 8003dce:	ed93 7a06 	vldr	s14, [r3, #24]
 8003dd2:	f107 0380 	add.w	r3, r7, #128	; 0x80
 8003dd6:	edd3 7a00 	vldr	s15, [r3]
 8003dda:	ee27 7a27 	vmul.f32	s14, s14, s15
 8003dde:	f107 0328 	add.w	r3, r7, #40	; 0x28
 8003de2:	edd3 6a07 	vldr	s13, [r3, #28]
 8003de6:	f107 0380 	add.w	r3, r7, #128	; 0x80
 8003dea:	edd3 7a01 	vldr	s15, [r3, #4]
 8003dee:	ee66 7aa7 	vmul.f32	s15, s13, s15
 8003df2:	ee37 7a27 	vadd.f32	s14, s14, s15
 8003df6:	f107 0328 	add.w	r3, r7, #40	; 0x28
 8003dfa:	edd3 6a08 	vldr	s13, [r3, #32]
 8003dfe:	f107 0380 	add.w	r3, r7, #128	; 0x80
 8003e02:	edd3 7a02 	vldr	s15, [r3, #8]
 8003e06:	ee66 7aa7 	vmul.f32	s15, s13, s15
 8003e0a:	ee77 7a27 	vadd.f32	s15, s14, s15
 8003e0e:	f107 0374 	add.w	r3, r7, #116	; 0x74
 8003e12:	edc3 7a02 	vstr	s15, [r3, #8]
    return result;
 8003e16:	f107 0274 	add.w	r2, r7, #116	; 0x74
 8003e1a:	f507 730a 	add.w	r3, r7, #552	; 0x228
 8003e1e:	ca07      	ldmia	r2, {r0, r1, r2}
 8003e20:	e883 0007 	stmia.w	r3, {r0, r1, r2}
 8003e24:	f507 7313 	add.w	r3, r7, #588	; 0x24c
 8003e28:	f507 720a 	add.w	r2, r7, #552	; 0x228
 8003e2c:	ca07      	ldmia	r2, {r0, r1, r2}
 8003e2e:	e883 0007 	stmia.w	r3, {r0, r1, r2}
 8003e32:	bf00      	nop
 8003e34:	f507 73d6 	add.w	r3, r7, #428	; 0x1ac
 8003e38:	461c      	mov	r4, r3
 8003e3a:	f507 7313 	add.w	r3, r7, #588	; 0x24c
 8003e3e:	e893 0007 	ldmia.w	r3, {r0, r1, r2}
 8003e42:	e884 0007 	stmia.w	r4, {r0, r1, r2}
	//FusionVector3 calibratedMagnetometer = FusionCalibrationMagnetic(uncalibratedMagnetometer, FUSION_ROTATION_MATRIX_IDENTITY, hardIronBias);

	calibratedGyroscope = FusionBiasUpdate(&fusionBias, calibratedGyroscope);
 8003e46:	edd7 6a7a 	vldr	s13, [r7, #488]	; 0x1e8
 8003e4a:	ed97 7a7b 	vldr	s14, [r7, #492]	; 0x1ec
 8003e4e:	edd7 7a7c 	vldr	s15, [r7, #496]	; 0x1f0
 8003e52:	eeb0 0a66 	vmov.f32	s0, s13
 8003e56:	eef0 0a47 	vmov.f32	s1, s14
 8003e5a:	eeb0 1a67 	vmov.f32	s2, s15
 8003e5e:	4889      	ldr	r0, [pc, #548]	; (8004084 <IMU_UPDATE+0x828>)
 8003e60:	f7fe fb3a 	bl	80024d8 <FusionBiasUpdate>
 8003e64:	eef0 6a40 	vmov.f32	s13, s0
 8003e68:	eeb0 7a60 	vmov.f32	s14, s1
 8003e6c:	eef0 7a41 	vmov.f32	s15, s2
 8003e70:	edc7 6a7a 	vstr	s13, [r7, #488]	; 0x1e8
 8003e74:	ed87 7a7b 	vstr	s14, [r7, #492]	; 0x1ec
 8003e78:	edc7 7a7c 	vstr	s15, [r7, #496]	; 0x1f0
	FusionAhrsUpdateWithoutMagnetometer(&fusionAhrs, calibratedGyroscope, calibratedAccelerometer, samplePeriod);
 8003e7c:	4b82      	ldr	r3, [pc, #520]	; (8004088 <IMU_UPDATE+0x82c>)
 8003e7e:	edd3 4a00 	vldr	s9, [r3]
 8003e82:	f507 73d6 	add.w	r3, r7, #428	; 0x1ac
 8003e86:	ed93 5a00 	vldr	s10, [r3]
 8003e8a:	edd3 5a01 	vldr	s11, [r3, #4]
 8003e8e:	ed93 6a02 	vldr	s12, [r3, #8]
 8003e92:	edd7 6a7a 	vldr	s13, [r7, #488]	; 0x1e8
 8003e96:	ed97 7a7b 	vldr	s14, [r7, #492]	; 0x1ec
 8003e9a:	edd7 7a7c 	vldr	s15, [r7, #496]	; 0x1f0
 8003e9e:	eeb0 3a64 	vmov.f32	s6, s9
 8003ea2:	eef0 1a45 	vmov.f32	s3, s10
 8003ea6:	eeb0 2a65 	vmov.f32	s4, s11
 8003eaa:	eef0 2a46 	vmov.f32	s5, s12
 8003eae:	eeb0 0a66 	vmov.f32	s0, s13
 8003eb2:	eef0 0a47 	vmov.f32	s1, s14
 8003eb6:	eeb0 1a67 	vmov.f32	s2, s15
 8003eba:	4874      	ldr	r0, [pc, #464]	; (800408c <IMU_UPDATE+0x830>)
 8003ebc:	f7fe f894 	bl	8001fe8 <FusionAhrsUpdateWithoutMagnetometer>
	//FusionAhrsUpdate(&fusionAhrs, calibratedGyroscope, calibratedAccelerometer, calibratedMagnetometer, samplePeriod);
	eulerAngles = FusionQuaternionToEulerAngles(FusionAhrsGetQuaternion(&fusionAhrs));
 8003ec0:	4872      	ldr	r0, [pc, #456]	; (800408c <IMU_UPDATE+0x830>)
 8003ec2:	f7fe f8fb 	bl	80020bc <FusionAhrsGetQuaternion>
 8003ec6:	eeb0 6a40 	vmov.f32	s12, s0
 8003eca:	eef0 6a60 	vmov.f32	s13, s1
 8003ece:	eeb0 7a41 	vmov.f32	s14, s2
 8003ed2:	eef0 7a61 	vmov.f32	s15, s3
 8003ed6:	ed87 6a7d 	vstr	s12, [r7, #500]	; 0x1f4
 8003eda:	edc7 6a7e 	vstr	s13, [r7, #504]	; 0x1f8
 8003ede:	ed87 7a7f 	vstr	s14, [r7, #508]	; 0x1fc
 8003ee2:	edc7 7a80 	vstr	s15, [r7, #512]	; 0x200
 8003ee6:	f107 0364 	add.w	r3, r7, #100	; 0x64
 8003eea:	461c      	mov	r4, r3
 8003eec:	f507 73fa 	add.w	r3, r7, #500	; 0x1f4
 8003ef0:	cb0f      	ldmia	r3, {r0, r1, r2, r3}
 8003ef2:	e884 000f 	stmia.w	r4, {r0, r1, r2, r3}
 * @param quaternion Quaternion to be converted.
 * @return Euler angles in degrees.
 */
static inline __attribute__((always_inline)) FusionEulerAngles FusionQuaternionToEulerAngles(const FusionQuaternion quaternion) {
#define Q quaternion.element // define shorthand label for more readable code
    const float qwqwMinusHalf = Q.w * Q.w - 0.5f; // calculate common terms to avoid repeated operations
 8003ef6:	f107 0364 	add.w	r3, r7, #100	; 0x64
 8003efa:	ed93 7a00 	vldr	s14, [r3]
 8003efe:	f107 0364 	add.w	r3, r7, #100	; 0x64
 8003f02:	edd3 7a00 	vldr	s15, [r3]
 8003f06:	ee67 7a27 	vmul.f32	s15, s14, s15
 8003f0a:	eeb6 7a00 	vmov.f32	s14, #96	; 0x3f000000  0.5
 8003f0e:	ee77 7ac7 	vsub.f32	s15, s15, s14
 8003f12:	edc7 7aab 	vstr	s15, [r7, #684]	; 0x2ac
    FusionEulerAngles eulerAngles;
    eulerAngles.angle.roll = FusionRadiansToDegrees(atan2f(Q.y * Q.z - Q.w * Q.x, qwqwMinusHalf + Q.z * Q.z));
 8003f16:	f107 0364 	add.w	r3, r7, #100	; 0x64
 8003f1a:	ed93 7a02 	vldr	s14, [r3, #8]
 8003f1e:	f107 0364 	add.w	r3, r7, #100	; 0x64
 8003f22:	edd3 7a03 	vldr	s15, [r3, #12]
 8003f26:	ee27 7a27 	vmul.f32	s14, s14, s15
 8003f2a:	f107 0364 	add.w	r3, r7, #100	; 0x64
 8003f2e:	edd3 6a00 	vldr	s13, [r3]
 8003f32:	f107 0364 	add.w	r3, r7, #100	; 0x64
 8003f36:	edd3 7a01 	vldr	s15, [r3, #4]
 8003f3a:	ee66 7aa7 	vmul.f32	s15, s13, s15
 8003f3e:	ee77 6a67 	vsub.f32	s13, s14, s15
 8003f42:	f107 0364 	add.w	r3, r7, #100	; 0x64
 8003f46:	ed93 7a03 	vldr	s14, [r3, #12]
 8003f4a:	f107 0364 	add.w	r3, r7, #100	; 0x64
 8003f4e:	edd3 7a03 	vldr	s15, [r3, #12]
 8003f52:	ee27 7a27 	vmul.f32	s14, s14, s15
 8003f56:	edd7 7aab 	vldr	s15, [r7, #684]	; 0x2ac
 8003f5a:	ee77 7a27 	vadd.f32	s15, s14, s15
 8003f5e:	eef0 0a67 	vmov.f32	s1, s15
 8003f62:	eeb0 0a66 	vmov.f32	s0, s13
 8003f66:	f006 f9a3 	bl	800a2b0 <atan2f>
 8003f6a:	eef0 7a40 	vmov.f32	s15, s0
 8003f6e:	edc7 7aaa 	vstr	s15, [r7, #680]	; 0x2a8
    return radians * (180.0f / (float) M_PI);
 8003f72:	edd7 7aaa 	vldr	s15, [r7, #680]	; 0x2a8
 8003f76:	ed9f 7a46 	vldr	s14, [pc, #280]	; 8004090 <IMU_UPDATE+0x834>
 8003f7a:	ee67 7a87 	vmul.f32	s15, s15, s14
    eulerAngles.angle.roll = FusionRadiansToDegrees(atan2f(Q.y * Q.z - Q.w * Q.x, qwqwMinusHalf + Q.z * Q.z));
 8003f7e:	f107 034c 	add.w	r3, r7, #76	; 0x4c
 8003f82:	edc3 7a00 	vstr	s15, [r3]
    eulerAngles.angle.pitch = FusionRadiansToDegrees(-1.0f * asinf(2.0f * (Q.x * Q.z + Q.w * Q.y)));
 8003f86:	f107 0364 	add.w	r3, r7, #100	; 0x64
 8003f8a:	ed93 7a01 	vldr	s14, [r3, #4]
 8003f8e:	f107 0364 	add.w	r3, r7, #100	; 0x64
 8003f92:	edd3 7a03 	vldr	s15, [r3, #12]
 8003f96:	ee27 7a27 	vmul.f32	s14, s14, s15
 8003f9a:	f107 0364 	add.w	r3, r7, #100	; 0x64
 8003f9e:	edd3 6a00 	vldr	s13, [r3]
 8003fa2:	f107 0364 	add.w	r3, r7, #100	; 0x64
 8003fa6:	edd3 7a02 	vldr	s15, [r3, #8]
 8003faa:	ee66 7aa7 	vmul.f32	s15, s13, s15
 8003fae:	ee77 7a27 	vadd.f32	s15, s14, s15
 8003fb2:	ee77 7aa7 	vadd.f32	s15, s15, s15
 8003fb6:	eeb0 0a67 	vmov.f32	s0, s15
 8003fba:	f006 f947 	bl	800a24c <asinf>
 8003fbe:	eef0 7a40 	vmov.f32	s15, s0
 8003fc2:	eef1 7a67 	vneg.f32	s15, s15
 8003fc6:	edc7 7aa9 	vstr	s15, [r7, #676]	; 0x2a4
    return radians * (180.0f / (float) M_PI);
 8003fca:	edd7 7aa9 	vldr	s15, [r7, #676]	; 0x2a4
 8003fce:	ed9f 7a30 	vldr	s14, [pc, #192]	; 8004090 <IMU_UPDATE+0x834>
 8003fd2:	ee67 7a87 	vmul.f32	s15, s15, s14
    eulerAngles.angle.pitch = FusionRadiansToDegrees(-1.0f * asinf(2.0f * (Q.x * Q.z + Q.w * Q.y)));
 8003fd6:	f107 034c 	add.w	r3, r7, #76	; 0x4c
 8003fda:	edc3 7a01 	vstr	s15, [r3, #4]
    eulerAngles.angle.yaw = FusionRadiansToDegrees(atan2f(Q.x * Q.y - Q.w * Q.z, qwqwMinusHalf + Q.x * Q.x));
 8003fde:	f107 0364 	add.w	r3, r7, #100	; 0x64
 8003fe2:	ed93 7a01 	vldr	s14, [r3, #4]
 8003fe6:	f107 0364 	add.w	r3, r7, #100	; 0x64
 8003fea:	edd3 7a02 	vldr	s15, [r3, #8]
 8003fee:	ee27 7a27 	vmul.f32	s14, s14, s15
 8003ff2:	f107 0364 	add.w	r3, r7, #100	; 0x64
 8003ff6:	edd3 6a00 	vldr	s13, [r3]
 8003ffa:	f107 0364 	add.w	r3, r7, #100	; 0x64
 8003ffe:	edd3 7a03 	vldr	s15, [r3, #12]
 8004002:	ee66 7aa7 	vmul.f32	s15, s13, s15
 8004006:	ee77 6a67 	vsub.f32	s13, s14, s15
 800400a:	f107 0364 	add.w	r3, r7, #100	; 0x64
 800400e:	ed93 7a01 	vldr	s14, [r3, #4]
 8004012:	f107 0364 	add.w	r3, r7, #100	; 0x64
 8004016:	edd3 7a01 	vldr	s15, [r3, #4]
 800401a:	ee27 7a27 	vmul.f32	s14, s14, s15
 800401e:	edd7 7aab 	vldr	s15, [r7, #684]	; 0x2ac
 8004022:	ee77 7a27 	vadd.f32	s15, s14, s15
 8004026:	eef0 0a67 	vmov.f32	s1, s15
 800402a:	eeb0 0a66 	vmov.f32	s0, s13
 800402e:	f006 f93f 	bl	800a2b0 <atan2f>
 8004032:	eef0 7a40 	vmov.f32	s15, s0
 8004036:	edc7 7aa8 	vstr	s15, [r7, #672]	; 0x2a0
    return radians * (180.0f / (float) M_PI);
 800403a:	edd7 7aa8 	vldr	s15, [r7, #672]	; 0x2a0
 800403e:	ed9f 7a14 	vldr	s14, [pc, #80]	; 8004090 <IMU_UPDATE+0x834>
 8004042:	ee67 7a87 	vmul.f32	s15, s15, s14
    eulerAngles.angle.yaw = FusionRadiansToDegrees(atan2f(Q.x * Q.y - Q.w * Q.z, qwqwMinusHalf + Q.x * Q.x));
 8004046:	f107 034c 	add.w	r3, r7, #76	; 0x4c
 800404a:	edc3 7a02 	vstr	s15, [r3, #8]
    return eulerAngles;
 800404e:	f107 024c 	add.w	r2, r7, #76	; 0x4c
 8004052:	f507 7301 	add.w	r3, r7, #516	; 0x204
 8004056:	ca07      	ldmia	r2, {r0, r1, r2}
 8004058:	e883 0007 	stmia.w	r3, {r0, r1, r2}
 800405c:	f107 0358 	add.w	r3, r7, #88	; 0x58
 8004060:	461c      	mov	r4, r3
 8004062:	f507 7301 	add.w	r3, r7, #516	; 0x204
 8004066:	e893 0007 	ldmia.w	r3, {r0, r1, r2}
 800406a:	e884 0007 	stmia.w	r4, {r0, r1, r2}
 800406e:	4b09      	ldr	r3, [pc, #36]	; (8004094 <IMU_UPDATE+0x838>)
 8004070:	f107 0258 	add.w	r2, r7, #88	; 0x58
 8004074:	ca07      	ldmia	r2, {r0, r1, r2}
 8004076:	e883 0007 	stmia.w	r3, {r0, r1, r2}
}
 800407a:	bf00      	nop
 800407c:	f507 772c 	add.w	r7, r7, #688	; 0x2b0
 8004080:	46bd      	mov	sp, r7
 8004082:	bdb0      	pop	{r4, r5, r7, pc}
 8004084:	2000020c 	.word	0x2000020c
 8004088:	2000002c 	.word	0x2000002c
 800408c:	200001d4 	.word	0x200001d4
 8004090:	42652ee0 	.word	0x42652ee0
 8004094:	20000178 	.word	0x20000178

08004098 <SERIAL_CONTROL_LOOP>:
void SERIAL_CONTROL_LOOP()
{
 8004098:	b580      	push	{r7, lr}
 800409a:	af00      	add	r7, sp, #0
	SerialControlWheelsRequest.ControlMode = 0;
 800409c:	4b0e      	ldr	r3, [pc, #56]	; (80040d8 <SERIAL_CONTROL_LOOP+0x40>)
 800409e:	2200      	movs	r2, #0
 80040a0:	701a      	strb	r2, [r3, #0]
	SerialControlWheelsRequest.ParameterNumber = 0;
 80040a2:	4b0d      	ldr	r3, [pc, #52]	; (80040d8 <SERIAL_CONTROL_LOOP+0x40>)
 80040a4:	2200      	movs	r2, #0
 80040a6:	705a      	strb	r2, [r3, #1]
	SerialControlWheelsRequest.WheelLeft = 0.0;
 80040a8:	4b0b      	ldr	r3, [pc, #44]	; (80040d8 <SERIAL_CONTROL_LOOP+0x40>)
 80040aa:	3306      	adds	r3, #6
 80040ac:	f04f 0200 	mov.w	r2, #0
 80040b0:	601a      	str	r2, [r3, #0]
	SerialControlWheelsRequest.WheelRight = 0.0;
 80040b2:	4b09      	ldr	r3, [pc, #36]	; (80040d8 <SERIAL_CONTROL_LOOP+0x40>)
 80040b4:	330a      	adds	r3, #10
 80040b6:	f04f 0200 	mov.w	r2, #0
 80040ba:	601a      	str	r2, [r3, #0]
	SerialControlWheelsRequest.CR=13;
 80040bc:	4b06      	ldr	r3, [pc, #24]	; (80040d8 <SERIAL_CONTROL_LOOP+0x40>)
 80040be:	220d      	movs	r2, #13
 80040c0:	739a      	strb	r2, [r3, #14]
	SerialControlWheelsRequest.LF=10;
 80040c2:	4b05      	ldr	r3, [pc, #20]	; (80040d8 <SERIAL_CONTROL_LOOP+0x40>)
 80040c4:	220a      	movs	r2, #10
 80040c6:	73da      	strb	r2, [r3, #15]
	HAL_UART_Transmit_DMA(&huart2, (uint8_t*)SerialControlWheelsRequest.Buffer, WHEELS_REQUEST_SIZE);
 80040c8:	2210      	movs	r2, #16
 80040ca:	4903      	ldr	r1, [pc, #12]	; (80040d8 <SERIAL_CONTROL_LOOP+0x40>)
 80040cc:	4803      	ldr	r0, [pc, #12]	; (80040dc <SERIAL_CONTROL_LOOP+0x44>)
 80040ce:	f004 ff53 	bl	8008f78 <HAL_UART_Transmit_DMA>
}
 80040d2:	bf00      	nop
 80040d4:	bd80      	pop	{r7, pc}
 80040d6:	bf00      	nop
 80040d8:	200001a4 	.word	0x200001a4
 80040dc:	200005f8 	.word	0x200005f8

080040e0 <BALANCE_Prepare>:
void BALANCE_Prepare()
{
 80040e0:	b580      	push	{r7, lr}
 80040e2:	af00      	add	r7, sp, #0
	Front = BTFront;
 80040e4:	4b72      	ldr	r3, [pc, #456]	; (80042b0 <BALANCE_Prepare+0x1d0>)
 80040e6:	681b      	ldr	r3, [r3, #0]
 80040e8:	4a72      	ldr	r2, [pc, #456]	; (80042b4 <BALANCE_Prepare+0x1d4>)
 80040ea:	6013      	str	r3, [r2, #0]
	Turn = BTTurn;
 80040ec:	4b72      	ldr	r3, [pc, #456]	; (80042b8 <BALANCE_Prepare+0x1d8>)
 80040ee:	681b      	ldr	r3, [r3, #0]
 80040f0:	4a72      	ldr	r2, [pc, #456]	; (80042bc <BALANCE_Prepare+0x1dc>)
 80040f2:	6013      	str	r3, [r2, #0]

	if (Battery < 4)
 80040f4:	4b72      	ldr	r3, [pc, #456]	; (80042c0 <BALANCE_Prepare+0x1e0>)
 80040f6:	edd3 7a00 	vldr	s15, [r3]
 80040fa:	eeb1 7a00 	vmov.f32	s14, #16	; 0x40800000  4.0
 80040fe:	eef4 7ac7 	vcmpe.f32	s15, s14
 8004102:	eef1 fa10 	vmrs	APSR_nzcv, fpscr
 8004106:	d507      	bpl.n	8004118 <BALANCE_Prepare+0x38>
	{
		Front = 0;
 8004108:	4b6a      	ldr	r3, [pc, #424]	; (80042b4 <BALANCE_Prepare+0x1d4>)
 800410a:	f04f 0200 	mov.w	r2, #0
 800410e:	601a      	str	r2, [r3, #0]
		Turn = 0;
 8004110:	4b6a      	ldr	r3, [pc, #424]	; (80042bc <BALANCE_Prepare+0x1dc>)
 8004112:	f04f 0200 	mov.w	r2, #0
 8004116:	601a      	str	r2, [r3, #0]
	}

	if ((fabsf(Front) < 0.001) && (fabsf(Turn) < 0.001) && (fabsf(SpeedLinear) < 0.02) && (fabsf(LeftSpeed - RightSpeed) < 0.02))
 8004118:	4b66      	ldr	r3, [pc, #408]	; (80042b4 <BALANCE_Prepare+0x1d4>)
 800411a:	edd3 7a00 	vldr	s15, [r3]
 800411e:	eef0 7ae7 	vabs.f32	s15, s15
 8004122:	ee17 0a90 	vmov	r0, s15
 8004126:	f7fc f9b3 	bl	8000490 <__aeabi_f2d>
 800412a:	a35b      	add	r3, pc, #364	; (adr r3, 8004298 <BALANCE_Prepare+0x1b8>)
 800412c:	e9d3 2300 	ldrd	r2, r3, [r3]
 8004130:	f7fc fc78 	bl	8000a24 <__aeabi_dcmplt>
 8004134:	4603      	mov	r3, r0
 8004136:	2b00      	cmp	r3, #0
 8004138:	d05f      	beq.n	80041fa <BALANCE_Prepare+0x11a>
 800413a:	4b60      	ldr	r3, [pc, #384]	; (80042bc <BALANCE_Prepare+0x1dc>)
 800413c:	edd3 7a00 	vldr	s15, [r3]
 8004140:	eef0 7ae7 	vabs.f32	s15, s15
 8004144:	ee17 0a90 	vmov	r0, s15
 8004148:	f7fc f9a2 	bl	8000490 <__aeabi_f2d>
 800414c:	a352      	add	r3, pc, #328	; (adr r3, 8004298 <BALANCE_Prepare+0x1b8>)
 800414e:	e9d3 2300 	ldrd	r2, r3, [r3]
 8004152:	f7fc fc67 	bl	8000a24 <__aeabi_dcmplt>
 8004156:	4603      	mov	r3, r0
 8004158:	2b00      	cmp	r3, #0
 800415a:	d04e      	beq.n	80041fa <BALANCE_Prepare+0x11a>
 800415c:	4b59      	ldr	r3, [pc, #356]	; (80042c4 <BALANCE_Prepare+0x1e4>)
 800415e:	edd3 7a00 	vldr	s15, [r3]
 8004162:	eef0 7ae7 	vabs.f32	s15, s15
 8004166:	ee17 0a90 	vmov	r0, s15
 800416a:	f7fc f991 	bl	8000490 <__aeabi_f2d>
 800416e:	a34c      	add	r3, pc, #304	; (adr r3, 80042a0 <BALANCE_Prepare+0x1c0>)
 8004170:	e9d3 2300 	ldrd	r2, r3, [r3]
 8004174:	f7fc fc56 	bl	8000a24 <__aeabi_dcmplt>
 8004178:	4603      	mov	r3, r0
 800417a:	2b00      	cmp	r3, #0
 800417c:	d03d      	beq.n	80041fa <BALANCE_Prepare+0x11a>
 800417e:	4b52      	ldr	r3, [pc, #328]	; (80042c8 <BALANCE_Prepare+0x1e8>)
 8004180:	ed93 7a00 	vldr	s14, [r3]
 8004184:	4b51      	ldr	r3, [pc, #324]	; (80042cc <BALANCE_Prepare+0x1ec>)
 8004186:	edd3 7a00 	vldr	s15, [r3]
 800418a:	ee77 7a67 	vsub.f32	s15, s14, s15
 800418e:	eef0 7ae7 	vabs.f32	s15, s15
 8004192:	ee17 0a90 	vmov	r0, s15
 8004196:	f7fc f97b 	bl	8000490 <__aeabi_f2d>
 800419a:	a341      	add	r3, pc, #260	; (adr r3, 80042a0 <BALANCE_Prepare+0x1c0>)
 800419c:	e9d3 2300 	ldrd	r2, r3, [r3]
 80041a0:	f7fc fc40 	bl	8000a24 <__aeabi_dcmplt>
 80041a4:	4603      	mov	r3, r0
 80041a6:	2b00      	cmp	r3, #0
 80041a8:	d027      	beq.n	80041fa <BALANCE_Prepare+0x11a>
	{
		if ((Battery < 4) && (BalanceActiveDemand))
 80041aa:	4b45      	ldr	r3, [pc, #276]	; (80042c0 <BALANCE_Prepare+0x1e0>)
 80041ac:	edd3 7a00 	vldr	s15, [r3]
 80041b0:	eeb1 7a00 	vmov.f32	s14, #16	; 0x40800000  4.0
 80041b4:	eef4 7ac7 	vcmpe.f32	s15, s14
 80041b8:	eef1 fa10 	vmrs	APSR_nzcv, fpscr
 80041bc:	d507      	bpl.n	80041ce <BALANCE_Prepare+0xee>
 80041be:	4b44      	ldr	r3, [pc, #272]	; (80042d0 <BALANCE_Prepare+0x1f0>)
 80041c0:	781b      	ldrb	r3, [r3, #0]
 80041c2:	2b00      	cmp	r3, #0
 80041c4:	d003      	beq.n	80041ce <BALANCE_Prepare+0xee>
		{
			BalanceActiveDemand = false;
 80041c6:	4b42      	ldr	r3, [pc, #264]	; (80042d0 <BALANCE_Prepare+0x1f0>)
 80041c8:	2200      	movs	r2, #0
 80041ca:	701a      	strb	r2, [r3, #0]
 80041cc:	e015      	b.n	80041fa <BALANCE_Prepare+0x11a>
		}
		else if (Battery > 8)
 80041ce:	4b3c      	ldr	r3, [pc, #240]	; (80042c0 <BALANCE_Prepare+0x1e0>)
 80041d0:	edd3 7a00 	vldr	s15, [r3]
 80041d4:	eeb2 7a00 	vmov.f32	s14, #32	; 0x41000000  8.0
 80041d8:	eef4 7ac7 	vcmpe.f32	s15, s14
 80041dc:	eef1 fa10 	vmrs	APSR_nzcv, fpscr
 80041e0:	dd04      	ble.n	80041ec <BALANCE_Prepare+0x10c>
		{
			BalanceActiveDemand = BTBalanceActive;
 80041e2:	4b3c      	ldr	r3, [pc, #240]	; (80042d4 <BALANCE_Prepare+0x1f4>)
 80041e4:	781a      	ldrb	r2, [r3, #0]
 80041e6:	4b3a      	ldr	r3, [pc, #232]	; (80042d0 <BALANCE_Prepare+0x1f0>)
 80041e8:	701a      	strb	r2, [r3, #0]
 80041ea:	e006      	b.n	80041fa <BALANCE_Prepare+0x11a>
		}
		else if (!BTBalanceActive)
 80041ec:	4b39      	ldr	r3, [pc, #228]	; (80042d4 <BALANCE_Prepare+0x1f4>)
 80041ee:	781b      	ldrb	r3, [r3, #0]
 80041f0:	2b00      	cmp	r3, #0
 80041f2:	d102      	bne.n	80041fa <BALANCE_Prepare+0x11a>
		{
			BalanceActiveDemand = false;
 80041f4:	4b36      	ldr	r3, [pc, #216]	; (80042d0 <BALANCE_Prepare+0x1f0>)
 80041f6:	2200      	movs	r2, #0
 80041f8:	701a      	strb	r2, [r3, #0]
		}
	}

	Turn = (Turn > 90) ? 90 : Turn;
 80041fa:	4b30      	ldr	r3, [pc, #192]	; (80042bc <BALANCE_Prepare+0x1dc>)
 80041fc:	edd3 7a00 	vldr	s15, [r3]
 8004200:	ed9f 7a35 	vldr	s14, [pc, #212]	; 80042d8 <BALANCE_Prepare+0x1f8>
 8004204:	eef4 7ac7 	vcmpe.f32	s15, s14
 8004208:	eef1 fa10 	vmrs	APSR_nzcv, fpscr
 800420c:	dd01      	ble.n	8004212 <BALANCE_Prepare+0x132>
 800420e:	4b33      	ldr	r3, [pc, #204]	; (80042dc <BALANCE_Prepare+0x1fc>)
 8004210:	e001      	b.n	8004216 <BALANCE_Prepare+0x136>
 8004212:	4b2a      	ldr	r3, [pc, #168]	; (80042bc <BALANCE_Prepare+0x1dc>)
 8004214:	681b      	ldr	r3, [r3, #0]
 8004216:	4a29      	ldr	r2, [pc, #164]	; (80042bc <BALANCE_Prepare+0x1dc>)
 8004218:	6013      	str	r3, [r2, #0]
	Turn = (Turn < -90) ? -90 : Turn;
 800421a:	4b28      	ldr	r3, [pc, #160]	; (80042bc <BALANCE_Prepare+0x1dc>)
 800421c:	edd3 7a00 	vldr	s15, [r3]
 8004220:	ed9f 7a2f 	vldr	s14, [pc, #188]	; 80042e0 <BALANCE_Prepare+0x200>
 8004224:	eef4 7ac7 	vcmpe.f32	s15, s14
 8004228:	eef1 fa10 	vmrs	APSR_nzcv, fpscr
 800422c:	d501      	bpl.n	8004232 <BALANCE_Prepare+0x152>
 800422e:	4b2d      	ldr	r3, [pc, #180]	; (80042e4 <BALANCE_Prepare+0x204>)
 8004230:	e001      	b.n	8004236 <BALANCE_Prepare+0x156>
 8004232:	4b22      	ldr	r3, [pc, #136]	; (80042bc <BALANCE_Prepare+0x1dc>)
 8004234:	681b      	ldr	r3, [r3, #0]
 8004236:	4a21      	ldr	r2, [pc, #132]	; (80042bc <BALANCE_Prepare+0x1dc>)
 8004238:	6013      	str	r3, [r2, #0]
	Front = (Front > 2) ? 2 : Front;
 800423a:	4b1e      	ldr	r3, [pc, #120]	; (80042b4 <BALANCE_Prepare+0x1d4>)
 800423c:	edd3 7a00 	vldr	s15, [r3]
 8004240:	eeb0 7a00 	vmov.f32	s14, #0	; 0x40000000  2.0
 8004244:	eef4 7ac7 	vcmpe.f32	s15, s14
 8004248:	eef1 fa10 	vmrs	APSR_nzcv, fpscr
 800424c:	dd02      	ble.n	8004254 <BALANCE_Prepare+0x174>
 800424e:	f04f 4380 	mov.w	r3, #1073741824	; 0x40000000
 8004252:	e001      	b.n	8004258 <BALANCE_Prepare+0x178>
 8004254:	4b17      	ldr	r3, [pc, #92]	; (80042b4 <BALANCE_Prepare+0x1d4>)
 8004256:	681b      	ldr	r3, [r3, #0]
 8004258:	4a16      	ldr	r2, [pc, #88]	; (80042b4 <BALANCE_Prepare+0x1d4>)
 800425a:	6013      	str	r3, [r2, #0]
	Front = (Front < -0.4) ? -0.4 : Front;
 800425c:	4b15      	ldr	r3, [pc, #84]	; (80042b4 <BALANCE_Prepare+0x1d4>)
 800425e:	681b      	ldr	r3, [r3, #0]
 8004260:	4618      	mov	r0, r3
 8004262:	f7fc f915 	bl	8000490 <__aeabi_f2d>
 8004266:	a310      	add	r3, pc, #64	; (adr r3, 80042a8 <BALANCE_Prepare+0x1c8>)
 8004268:	e9d3 2300 	ldrd	r2, r3, [r3]
 800426c:	f7fc fbda 	bl	8000a24 <__aeabi_dcmplt>
 8004270:	4603      	mov	r3, r0
 8004272:	2b00      	cmp	r3, #0
 8004274:	d001      	beq.n	800427a <BALANCE_Prepare+0x19a>
 8004276:	4b1c      	ldr	r3, [pc, #112]	; (80042e8 <BALANCE_Prepare+0x208>)
 8004278:	e001      	b.n	800427e <BALANCE_Prepare+0x19e>
 800427a:	4b0e      	ldr	r3, [pc, #56]	; (80042b4 <BALANCE_Prepare+0x1d4>)
 800427c:	681b      	ldr	r3, [r3, #0]
 800427e:	4a0d      	ldr	r2, [pc, #52]	; (80042b4 <BALANCE_Prepare+0x1d4>)
 8004280:	6013      	str	r3, [r2, #0]

	// Point to add IK sensor

	// Point to add ParkingMode

	BalanceActive = BTBalanceActive;
 8004282:	4b14      	ldr	r3, [pc, #80]	; (80042d4 <BALANCE_Prepare+0x1f4>)
 8004284:	781a      	ldrb	r2, [r3, #0]
 8004286:	4b19      	ldr	r3, [pc, #100]	; (80042ec <BALANCE_Prepare+0x20c>)
 8004288:	701a      	strb	r2, [r3, #0]
	PositionLinearDemand = PositionLinear;
 800428a:	4b19      	ldr	r3, [pc, #100]	; (80042f0 <BALANCE_Prepare+0x210>)
 800428c:	681b      	ldr	r3, [r3, #0]
 800428e:	4a19      	ldr	r2, [pc, #100]	; (80042f4 <BALANCE_Prepare+0x214>)
 8004290:	6013      	str	r3, [r2, #0]
}
 8004292:	bf00      	nop
 8004294:	bd80      	pop	{r7, pc}
 8004296:	bf00      	nop
 8004298:	d2f1a9fc 	.word	0xd2f1a9fc
 800429c:	3f50624d 	.word	0x3f50624d
 80042a0:	47ae147b 	.word	0x47ae147b
 80042a4:	3f947ae1 	.word	0x3f947ae1
 80042a8:	9999999a 	.word	0x9999999a
 80042ac:	bfd99999 	.word	0xbfd99999
 80042b0:	200000fc 	.word	0x200000fc
 80042b4:	20000104 	.word	0x20000104
 80042b8:	20000100 	.word	0x20000100
 80042bc:	20000108 	.word	0x20000108
 80042c0:	20000230 	.word	0x20000230
 80042c4:	200001c0 	.word	0x200001c0
 80042c8:	20000208 	.word	0x20000208
 80042cc:	20000160 	.word	0x20000160
 80042d0:	200001a0 	.word	0x200001a0
 80042d4:	20000234 	.word	0x20000234
 80042d8:	42b40000 	.word	0x42b40000
 80042dc:	42b40000 	.word	0x42b40000
 80042e0:	c2b40000 	.word	0xc2b40000
 80042e4:	c2b40000 	.word	0xc2b40000
 80042e8:	becccccd 	.word	0xbecccccd
 80042ec:	20000228 	.word	0x20000228
 80042f0:	200001c8 	.word	0x200001c8
 80042f4:	200001bc 	.word	0x200001bc

080042f8 <BALANCE_Calculate_Speeds>:

void BALANCE_Calculate_Speeds()
{
 80042f8:	b5b0      	push	{r4, r5, r7, lr}
 80042fa:	b082      	sub	sp, #8
 80042fc:	af00      	add	r7, sp, #0
	//LEFT
	float TimeS = (HAL_GetTick() - StepsLeftPreviousTime) / 1000.0;
 80042fe:	f001 fcc3 	bl	8005c88 <HAL_GetTick>
 8004302:	4602      	mov	r2, r0
 8004304:	4b88      	ldr	r3, [pc, #544]	; (8004528 <BALANCE_Calculate_Speeds+0x230>)
 8004306:	681b      	ldr	r3, [r3, #0]
 8004308:	1ad3      	subs	r3, r2, r3
 800430a:	4618      	mov	r0, r3
 800430c:	f7fc f89e 	bl	800044c <__aeabi_ui2d>
 8004310:	f04f 0200 	mov.w	r2, #0
 8004314:	4b85      	ldr	r3, [pc, #532]	; (800452c <BALANCE_Calculate_Speeds+0x234>)
 8004316:	f7fc fa3d 	bl	8000794 <__aeabi_ddiv>
 800431a:	4602      	mov	r2, r0
 800431c:	460b      	mov	r3, r1
 800431e:	4610      	mov	r0, r2
 8004320:	4619      	mov	r1, r3
 8004322:	f7fc fbcf 	bl	8000ac4 <__aeabi_d2f>
 8004326:	4603      	mov	r3, r0
 8004328:	607b      	str	r3, [r7, #4]
	if (TimeS > SPEED_STEPS_MAX_TIME)
 800432a:	6878      	ldr	r0, [r7, #4]
 800432c:	f7fc f8b0 	bl	8000490 <__aeabi_f2d>
 8004330:	a379      	add	r3, pc, #484	; (adr r3, 8004518 <BALANCE_Calculate_Speeds+0x220>)
 8004332:	e9d3 2300 	ldrd	r2, r3, [r3]
 8004336:	f7fc fb93 	bl	8000a60 <__aeabi_dcmpgt>
 800433a:	4603      	mov	r3, r0
 800433c:	2b00      	cmp	r3, #0
 800433e:	d005      	beq.n	800434c <BALANCE_Calculate_Speeds+0x54>
	{
		TimeS = SPEED_STEPS_MAX_TIME;
 8004340:	4b7b      	ldr	r3, [pc, #492]	; (8004530 <BALANCE_Calculate_Speeds+0x238>)
 8004342:	607b      	str	r3, [r7, #4]
	    LeftSpeed = 0;
 8004344:	4b7b      	ldr	r3, [pc, #492]	; (8004534 <BALANCE_Calculate_Speeds+0x23c>)
 8004346:	f04f 0200 	mov.w	r2, #0
 800434a:	601a      	str	r2, [r3, #0]
	}
	if (HallLeftStep != StepsLeftPrevious)
 800434c:	4b7a      	ldr	r3, [pc, #488]	; (8004538 <BALANCE_Calculate_Speeds+0x240>)
 800434e:	681b      	ldr	r3, [r3, #0]
 8004350:	ee07 3a90 	vmov	s15, r3
 8004354:	eeb8 7ae7 	vcvt.f32.s32	s14, s15
 8004358:	4b78      	ldr	r3, [pc, #480]	; (800453c <BALANCE_Calculate_Speeds+0x244>)
 800435a:	edd3 7a00 	vldr	s15, [r3]
 800435e:	eeb4 7a67 	vcmp.f32	s14, s15
 8004362:	eef1 fa10 	vmrs	APSR_nzcv, fpscr
 8004366:	d037      	beq.n	80043d8 <BALANCE_Calculate_Speeds+0xe0>
	{
		LeftSpeed = ((HallLeftStep - StepsLeftPrevious) * STEPS_TO_METERS) / TimeS;
 8004368:	4b74      	ldr	r3, [pc, #464]	; (800453c <BALANCE_Calculate_Speeds+0x244>)
 800436a:	ed93 7a00 	vldr	s14, [r3]
 800436e:	4b72      	ldr	r3, [pc, #456]	; (8004538 <BALANCE_Calculate_Speeds+0x240>)
 8004370:	681b      	ldr	r3, [r3, #0]
 8004372:	ee07 3a90 	vmov	s15, r3
 8004376:	eef8 7ae7 	vcvt.f32.s32	s15, s15
 800437a:	ee77 7a67 	vsub.f32	s15, s14, s15
 800437e:	ee17 0a90 	vmov	r0, s15
 8004382:	f7fc f885 	bl	8000490 <__aeabi_f2d>
 8004386:	a366      	add	r3, pc, #408	; (adr r3, 8004520 <BALANCE_Calculate_Speeds+0x228>)
 8004388:	e9d3 2300 	ldrd	r2, r3, [r3]
 800438c:	f7fc f8d8 	bl	8000540 <__aeabi_dmul>
 8004390:	4602      	mov	r2, r0
 8004392:	460b      	mov	r3, r1
 8004394:	4614      	mov	r4, r2
 8004396:	461d      	mov	r5, r3
 8004398:	6878      	ldr	r0, [r7, #4]
 800439a:	f7fc f879 	bl	8000490 <__aeabi_f2d>
 800439e:	4602      	mov	r2, r0
 80043a0:	460b      	mov	r3, r1
 80043a2:	4620      	mov	r0, r4
 80043a4:	4629      	mov	r1, r5
 80043a6:	f7fc f9f5 	bl	8000794 <__aeabi_ddiv>
 80043aa:	4602      	mov	r2, r0
 80043ac:	460b      	mov	r3, r1
 80043ae:	4610      	mov	r0, r2
 80043b0:	4619      	mov	r1, r3
 80043b2:	f7fc fb87 	bl	8000ac4 <__aeabi_d2f>
 80043b6:	4603      	mov	r3, r0
 80043b8:	4a5e      	ldr	r2, [pc, #376]	; (8004534 <BALANCE_Calculate_Speeds+0x23c>)
 80043ba:	6013      	str	r3, [r2, #0]
	    StepsLeftPrevious = HallLeftStep;
 80043bc:	4b5f      	ldr	r3, [pc, #380]	; (800453c <BALANCE_Calculate_Speeds+0x244>)
 80043be:	edd3 7a00 	vldr	s15, [r3]
 80043c2:	eefd 7ae7 	vcvt.s32.f32	s15, s15
 80043c6:	ee17 2a90 	vmov	r2, s15
 80043ca:	4b5b      	ldr	r3, [pc, #364]	; (8004538 <BALANCE_Calculate_Speeds+0x240>)
 80043cc:	601a      	str	r2, [r3, #0]
	    StepsLeftPreviousTime = HAL_GetTick();
 80043ce:	f001 fc5b 	bl	8005c88 <HAL_GetTick>
 80043d2:	4603      	mov	r3, r0
 80043d4:	4a54      	ldr	r2, [pc, #336]	; (8004528 <BALANCE_Calculate_Speeds+0x230>)
 80043d6:	6013      	str	r3, [r2, #0]
	}

	//RIGHT
	TimeS = (HAL_GetTick() - StepsRightPreviousTime) / 1000.0;
 80043d8:	f001 fc56 	bl	8005c88 <HAL_GetTick>
 80043dc:	4602      	mov	r2, r0
 80043de:	4b58      	ldr	r3, [pc, #352]	; (8004540 <BALANCE_Calculate_Speeds+0x248>)
 80043e0:	681b      	ldr	r3, [r3, #0]
 80043e2:	1ad3      	subs	r3, r2, r3
 80043e4:	4618      	mov	r0, r3
 80043e6:	f7fc f831 	bl	800044c <__aeabi_ui2d>
 80043ea:	f04f 0200 	mov.w	r2, #0
 80043ee:	4b4f      	ldr	r3, [pc, #316]	; (800452c <BALANCE_Calculate_Speeds+0x234>)
 80043f0:	f7fc f9d0 	bl	8000794 <__aeabi_ddiv>
 80043f4:	4602      	mov	r2, r0
 80043f6:	460b      	mov	r3, r1
 80043f8:	4610      	mov	r0, r2
 80043fa:	4619      	mov	r1, r3
 80043fc:	f7fc fb62 	bl	8000ac4 <__aeabi_d2f>
 8004400:	4603      	mov	r3, r0
 8004402:	607b      	str	r3, [r7, #4]
	if (TimeS > SPEED_STEPS_MAX_TIME)
 8004404:	6878      	ldr	r0, [r7, #4]
 8004406:	f7fc f843 	bl	8000490 <__aeabi_f2d>
 800440a:	a343      	add	r3, pc, #268	; (adr r3, 8004518 <BALANCE_Calculate_Speeds+0x220>)
 800440c:	e9d3 2300 	ldrd	r2, r3, [r3]
 8004410:	f7fc fb26 	bl	8000a60 <__aeabi_dcmpgt>
 8004414:	4603      	mov	r3, r0
 8004416:	2b00      	cmp	r3, #0
 8004418:	d005      	beq.n	8004426 <BALANCE_Calculate_Speeds+0x12e>
	{
		TimeS = SPEED_STEPS_MAX_TIME;
 800441a:	4b45      	ldr	r3, [pc, #276]	; (8004530 <BALANCE_Calculate_Speeds+0x238>)
 800441c:	607b      	str	r3, [r7, #4]
	    RightSpeed = 0;
 800441e:	4b49      	ldr	r3, [pc, #292]	; (8004544 <BALANCE_Calculate_Speeds+0x24c>)
 8004420:	f04f 0200 	mov.w	r2, #0
 8004424:	601a      	str	r2, [r3, #0]
	}
	if (HallRightStep != StepsRightPrevious)
 8004426:	4b48      	ldr	r3, [pc, #288]	; (8004548 <BALANCE_Calculate_Speeds+0x250>)
 8004428:	681b      	ldr	r3, [r3, #0]
 800442a:	ee07 3a90 	vmov	s15, r3
 800442e:	eeb8 7ae7 	vcvt.f32.s32	s14, s15
 8004432:	4b46      	ldr	r3, [pc, #280]	; (800454c <BALANCE_Calculate_Speeds+0x254>)
 8004434:	edd3 7a00 	vldr	s15, [r3]
 8004438:	eeb4 7a67 	vcmp.f32	s14, s15
 800443c:	eef1 fa10 	vmrs	APSR_nzcv, fpscr
 8004440:	d037      	beq.n	80044b2 <BALANCE_Calculate_Speeds+0x1ba>
	{
		RightSpeed = ((HallRightStep - StepsRightPrevious) * STEPS_TO_METERS) / TimeS;
 8004442:	4b42      	ldr	r3, [pc, #264]	; (800454c <BALANCE_Calculate_Speeds+0x254>)
 8004444:	ed93 7a00 	vldr	s14, [r3]
 8004448:	4b3f      	ldr	r3, [pc, #252]	; (8004548 <BALANCE_Calculate_Speeds+0x250>)
 800444a:	681b      	ldr	r3, [r3, #0]
 800444c:	ee07 3a90 	vmov	s15, r3
 8004450:	eef8 7ae7 	vcvt.f32.s32	s15, s15
 8004454:	ee77 7a67 	vsub.f32	s15, s14, s15
 8004458:	ee17 0a90 	vmov	r0, s15
 800445c:	f7fc f818 	bl	8000490 <__aeabi_f2d>
 8004460:	a32f      	add	r3, pc, #188	; (adr r3, 8004520 <BALANCE_Calculate_Speeds+0x228>)
 8004462:	e9d3 2300 	ldrd	r2, r3, [r3]
 8004466:	f7fc f86b 	bl	8000540 <__aeabi_dmul>
 800446a:	4602      	mov	r2, r0
 800446c:	460b      	mov	r3, r1
 800446e:	4614      	mov	r4, r2
 8004470:	461d      	mov	r5, r3
 8004472:	6878      	ldr	r0, [r7, #4]
 8004474:	f7fc f80c 	bl	8000490 <__aeabi_f2d>
 8004478:	4602      	mov	r2, r0
 800447a:	460b      	mov	r3, r1
 800447c:	4620      	mov	r0, r4
 800447e:	4629      	mov	r1, r5
 8004480:	f7fc f988 	bl	8000794 <__aeabi_ddiv>
 8004484:	4602      	mov	r2, r0
 8004486:	460b      	mov	r3, r1
 8004488:	4610      	mov	r0, r2
 800448a:	4619      	mov	r1, r3
 800448c:	f7fc fb1a 	bl	8000ac4 <__aeabi_d2f>
 8004490:	4603      	mov	r3, r0
 8004492:	4a2c      	ldr	r2, [pc, #176]	; (8004544 <BALANCE_Calculate_Speeds+0x24c>)
 8004494:	6013      	str	r3, [r2, #0]
	    StepsRightPrevious = HallRightStep;
 8004496:	4b2d      	ldr	r3, [pc, #180]	; (800454c <BALANCE_Calculate_Speeds+0x254>)
 8004498:	edd3 7a00 	vldr	s15, [r3]
 800449c:	eefd 7ae7 	vcvt.s32.f32	s15, s15
 80044a0:	ee17 2a90 	vmov	r2, s15
 80044a4:	4b28      	ldr	r3, [pc, #160]	; (8004548 <BALANCE_Calculate_Speeds+0x250>)
 80044a6:	601a      	str	r2, [r3, #0]
	    StepsRightPreviousTime = HAL_GetTick();
 80044a8:	f001 fbee 	bl	8005c88 <HAL_GetTick>
 80044ac:	4603      	mov	r3, r0
 80044ae:	4a24      	ldr	r2, [pc, #144]	; (8004540 <BALANCE_Calculate_Speeds+0x248>)
 80044b0:	6013      	str	r3, [r2, #0]
	}

	PositionLinear = ((HallLeftStep + HallRightStep) / 2) * STEPS_TO_METERS;
 80044b2:	4b22      	ldr	r3, [pc, #136]	; (800453c <BALANCE_Calculate_Speeds+0x244>)
 80044b4:	ed93 7a00 	vldr	s14, [r3]
 80044b8:	4b24      	ldr	r3, [pc, #144]	; (800454c <BALANCE_Calculate_Speeds+0x254>)
 80044ba:	edd3 7a00 	vldr	s15, [r3]
 80044be:	ee77 7a27 	vadd.f32	s15, s14, s15
 80044c2:	eeb0 7a00 	vmov.f32	s14, #0	; 0x40000000  2.0
 80044c6:	eec7 6a87 	vdiv.f32	s13, s15, s14
 80044ca:	ee16 0a90 	vmov	r0, s13
 80044ce:	f7fb ffdf 	bl	8000490 <__aeabi_f2d>
 80044d2:	a313      	add	r3, pc, #76	; (adr r3, 8004520 <BALANCE_Calculate_Speeds+0x228>)
 80044d4:	e9d3 2300 	ldrd	r2, r3, [r3]
 80044d8:	f7fc f832 	bl	8000540 <__aeabi_dmul>
 80044dc:	4602      	mov	r2, r0
 80044de:	460b      	mov	r3, r1
 80044e0:	4610      	mov	r0, r2
 80044e2:	4619      	mov	r1, r3
 80044e4:	f7fc faee 	bl	8000ac4 <__aeabi_d2f>
 80044e8:	4603      	mov	r3, r0
 80044ea:	4a19      	ldr	r2, [pc, #100]	; (8004550 <BALANCE_Calculate_Speeds+0x258>)
 80044ec:	6013      	str	r3, [r2, #0]
	SpeedLinear = (LeftSpeed + RightSpeed) / 2.0;
 80044ee:	4b11      	ldr	r3, [pc, #68]	; (8004534 <BALANCE_Calculate_Speeds+0x23c>)
 80044f0:	ed93 7a00 	vldr	s14, [r3]
 80044f4:	4b13      	ldr	r3, [pc, #76]	; (8004544 <BALANCE_Calculate_Speeds+0x24c>)
 80044f6:	edd3 7a00 	vldr	s15, [r3]
 80044fa:	ee37 7a27 	vadd.f32	s14, s14, s15
 80044fe:	eef0 6a00 	vmov.f32	s13, #0	; 0x40000000  2.0
 8004502:	eec7 7a26 	vdiv.f32	s15, s14, s13
 8004506:	4b13      	ldr	r3, [pc, #76]	; (8004554 <BALANCE_Calculate_Speeds+0x25c>)
 8004508:	edc3 7a00 	vstr	s15, [r3]
}
 800450c:	bf00      	nop
 800450e:	3708      	adds	r7, #8
 8004510:	46bd      	mov	sp, r7
 8004512:	bdb0      	pop	{r4, r5, r7, pc}
 8004514:	f3af 8000 	nop.w
 8004518:	9999999a 	.word	0x9999999a
 800451c:	3fc99999 	.word	0x3fc99999
 8004520:	8121fb7c 	.word	0x8121fb7c
 8004524:	3f821fb7 	.word	0x3f821fb7
 8004528:	200002d0 	.word	0x200002d0
 800452c:	408f4000 	.word	0x408f4000
 8004530:	3e4ccccd 	.word	0x3e4ccccd
 8004534:	20000208 	.word	0x20000208
 8004538:	20000248 	.word	0x20000248
 800453c:	20000188 	.word	0x20000188
 8004540:	200002a8 	.word	0x200002a8
 8004544:	20000160 	.word	0x20000160
 8004548:	20000154 	.word	0x20000154
 800454c:	20000264 	.word	0x20000264
 8004550:	200001c8 	.word	0x200001c8
 8004554:	200001c0 	.word	0x200001c0

08004558 <BALANCE_Speed_LinearControl>:
	    PositionIValue = 0;
	}
}

void BALANCE_Speed_LinearControl()
{
 8004558:	e92d 43b0 	stmdb	sp!, {r4, r5, r7, r8, r9, lr}
 800455c:	b086      	sub	sp, #24
 800455e:	af00      	add	r7, sp, #0
	float deltaTime = (HAL_GetTick() - linearTime) / 1000000.0;
 8004560:	f001 fb92 	bl	8005c88 <HAL_GetTick>
 8004564:	4602      	mov	r2, r0
 8004566:	4bc0      	ldr	r3, [pc, #768]	; (8004868 <BALANCE_Speed_LinearControl+0x310>)
 8004568:	681b      	ldr	r3, [r3, #0]
 800456a:	1ad3      	subs	r3, r2, r3
 800456c:	4618      	mov	r0, r3
 800456e:	f7fb ff6d 	bl	800044c <__aeabi_ui2d>
 8004572:	a3bb      	add	r3, pc, #748	; (adr r3, 8004860 <BALANCE_Speed_LinearControl+0x308>)
 8004574:	e9d3 2300 	ldrd	r2, r3, [r3]
 8004578:	f7fc f90c 	bl	8000794 <__aeabi_ddiv>
 800457c:	4602      	mov	r2, r0
 800457e:	460b      	mov	r3, r1
 8004580:	4610      	mov	r0, r2
 8004582:	4619      	mov	r1, r3
 8004584:	f7fc fa9e 	bl	8000ac4 <__aeabi_d2f>
 8004588:	4603      	mov	r3, r0
 800458a:	617b      	str	r3, [r7, #20]
	linearTime = HAL_GetTick();
 800458c:	f001 fb7c 	bl	8005c88 <HAL_GetTick>
 8004590:	4603      	mov	r3, r0
 8004592:	4ab5      	ldr	r2, [pc, #724]	; (8004868 <BALANCE_Speed_LinearControl+0x310>)
 8004594:	6013      	str	r3, [r2, #0]

	if (deltaTime < 0)
 8004596:	edd7 7a05 	vldr	s15, [r7, #20]
 800459a:	eef5 7ac0 	vcmpe.f32	s15, #0.0
 800459e:	eef1 fa10 	vmrs	APSR_nzcv, fpscr
 80045a2:	d502      	bpl.n	80045aa <BALANCE_Speed_LinearControl+0x52>
	{
		deltaTime = linearDeltaTimePrev;
 80045a4:	4bb1      	ldr	r3, [pc, #708]	; (800486c <BALANCE_Speed_LinearControl+0x314>)
 80045a6:	681b      	ldr	r3, [r3, #0]
 80045a8:	617b      	str	r3, [r7, #20]
	}
	linearDeltaTimePrev = deltaTime;
 80045aa:	4ab0      	ldr	r2, [pc, #704]	; (800486c <BALANCE_Speed_LinearControl+0x314>)
 80045ac:	697b      	ldr	r3, [r7, #20]
 80045ae:	6013      	str	r3, [r2, #0]

	SpeedLinearDemand = SpeedLinearDemand > PLATFORM_Y_MAX ? PLATFORM_Y_MAX : SpeedLinearDemand;
 80045b0:	4baf      	ldr	r3, [pc, #700]	; (8004870 <BALANCE_Speed_LinearControl+0x318>)
 80045b2:	edd3 7a00 	vldr	s15, [r3]
 80045b6:	eeb1 7a04 	vmov.f32	s14, #20	; 0x40a00000  5.0
 80045ba:	eef4 7ac7 	vcmpe.f32	s15, s14
 80045be:	eef1 fa10 	vmrs	APSR_nzcv, fpscr
 80045c2:	dd01      	ble.n	80045c8 <BALANCE_Speed_LinearControl+0x70>
 80045c4:	4bab      	ldr	r3, [pc, #684]	; (8004874 <BALANCE_Speed_LinearControl+0x31c>)
 80045c6:	e001      	b.n	80045cc <BALANCE_Speed_LinearControl+0x74>
 80045c8:	4ba9      	ldr	r3, [pc, #676]	; (8004870 <BALANCE_Speed_LinearControl+0x318>)
 80045ca:	681b      	ldr	r3, [r3, #0]
 80045cc:	4aa8      	ldr	r2, [pc, #672]	; (8004870 <BALANCE_Speed_LinearControl+0x318>)
 80045ce:	6013      	str	r3, [r2, #0]
	SpeedLinearDemand = SpeedLinearDemand < -PLATFORM_Y_MAX ? -PLATFORM_Y_MAX : SpeedLinearDemand;
 80045d0:	4ba7      	ldr	r3, [pc, #668]	; (8004870 <BALANCE_Speed_LinearControl+0x318>)
 80045d2:	edd3 7a00 	vldr	s15, [r3]
 80045d6:	eeb9 7a04 	vmov.f32	s14, #148	; 0xc0a00000 -5.0
 80045da:	eef4 7ac7 	vcmpe.f32	s15, s14
 80045de:	eef1 fa10 	vmrs	APSR_nzcv, fpscr
 80045e2:	d501      	bpl.n	80045e8 <BALANCE_Speed_LinearControl+0x90>
 80045e4:	4ba4      	ldr	r3, [pc, #656]	; (8004878 <BALANCE_Speed_LinearControl+0x320>)
 80045e6:	e001      	b.n	80045ec <BALANCE_Speed_LinearControl+0x94>
 80045e8:	4ba1      	ldr	r3, [pc, #644]	; (8004870 <BALANCE_Speed_LinearControl+0x318>)
 80045ea:	681b      	ldr	r3, [r3, #0]
 80045ec:	4aa0      	ldr	r2, [pc, #640]	; (8004870 <BALANCE_Speed_LinearControl+0x318>)
 80045ee:	6013      	str	r3, [r2, #0]

	if (BalanceActive)
 80045f0:	4ba2      	ldr	r3, [pc, #648]	; (800487c <BALANCE_Speed_LinearControl+0x324>)
 80045f2:	781b      	ldrb	r3, [r3, #0]
 80045f4:	2b00      	cmp	r3, #0
 80045f6:	f000 8124 	beq.w	8004842 <BALANCE_Speed_LinearControl+0x2ea>
	{
	    float linearError = SpeedLinearDemand - SpeedLinear;
 80045fa:	4b9d      	ldr	r3, [pc, #628]	; (8004870 <BALANCE_Speed_LinearControl+0x318>)
 80045fc:	ed93 7a00 	vldr	s14, [r3]
 8004600:	4b9f      	ldr	r3, [pc, #636]	; (8004880 <BALANCE_Speed_LinearControl+0x328>)
 8004602:	edd3 7a00 	vldr	s15, [r3]
 8004606:	ee77 7a67 	vsub.f32	s15, s14, s15
 800460a:	edc7 7a04 	vstr	s15, [r7, #16]

	    if ((SpeedLinearDemand * linearIntegral > 0) && (abs(SpeedLinear) > abs(SpeedLinearDemand * 1.5)))
 800460e:	4b98      	ldr	r3, [pc, #608]	; (8004870 <BALANCE_Speed_LinearControl+0x318>)
 8004610:	ed93 7a00 	vldr	s14, [r3]
 8004614:	4b9b      	ldr	r3, [pc, #620]	; (8004884 <BALANCE_Speed_LinearControl+0x32c>)
 8004616:	edd3 7a00 	vldr	s15, [r3]
 800461a:	ee67 7a27 	vmul.f32	s15, s14, s15
 800461e:	eef5 7ac0 	vcmpe.f32	s15, #0.0
 8004622:	eef1 fa10 	vmrs	APSR_nzcv, fpscr
 8004626:	dd26      	ble.n	8004676 <BALANCE_Speed_LinearControl+0x11e>
 8004628:	4b95      	ldr	r3, [pc, #596]	; (8004880 <BALANCE_Speed_LinearControl+0x328>)
 800462a:	edd3 7a00 	vldr	s15, [r3]
 800462e:	eefd 7ae7 	vcvt.s32.f32	s15, s15
 8004632:	ee17 3a90 	vmov	r3, s15
 8004636:	ea83 74e3 	eor.w	r4, r3, r3, asr #31
 800463a:	eba4 74e3 	sub.w	r4, r4, r3, asr #31
 800463e:	4b8c      	ldr	r3, [pc, #560]	; (8004870 <BALANCE_Speed_LinearControl+0x318>)
 8004640:	681b      	ldr	r3, [r3, #0]
 8004642:	4618      	mov	r0, r3
 8004644:	f7fb ff24 	bl	8000490 <__aeabi_f2d>
 8004648:	f04f 0200 	mov.w	r2, #0
 800464c:	4b8e      	ldr	r3, [pc, #568]	; (8004888 <BALANCE_Speed_LinearControl+0x330>)
 800464e:	f7fb ff77 	bl	8000540 <__aeabi_dmul>
 8004652:	4602      	mov	r2, r0
 8004654:	460b      	mov	r3, r1
 8004656:	4610      	mov	r0, r2
 8004658:	4619      	mov	r1, r3
 800465a:	f7fc fa0b 	bl	8000a74 <__aeabi_d2iz>
 800465e:	4603      	mov	r3, r0
 8004660:	2b00      	cmp	r3, #0
 8004662:	bfb8      	it	lt
 8004664:	425b      	neglt	r3, r3
 8004666:	429c      	cmp	r4, r3
 8004668:	dd05      	ble.n	8004676 <BALANCE_Speed_LinearControl+0x11e>
	    {
	        linearIntegralerrorCoun++;
 800466a:	4b88      	ldr	r3, [pc, #544]	; (800488c <BALANCE_Speed_LinearControl+0x334>)
 800466c:	681b      	ldr	r3, [r3, #0]
 800466e:	3301      	adds	r3, #1
 8004670:	4a86      	ldr	r2, [pc, #536]	; (800488c <BALANCE_Speed_LinearControl+0x334>)
 8004672:	6013      	str	r3, [r2, #0]
 8004674:	e002      	b.n	800467c <BALANCE_Speed_LinearControl+0x124>
	    }
	    else
	    {
	        linearIntegralerrorCoun = 0;
 8004676:	4b85      	ldr	r3, [pc, #532]	; (800488c <BALANCE_Speed_LinearControl+0x334>)
 8004678:	2200      	movs	r2, #0
 800467a:	601a      	str	r2, [r3, #0]
	    }
	    float diff = (linearError - linearLastError) / deltaTime;
 800467c:	4b84      	ldr	r3, [pc, #528]	; (8004890 <BALANCE_Speed_LinearControl+0x338>)
 800467e:	edd3 7a00 	vldr	s15, [r3]
 8004682:	ed97 7a04 	vldr	s14, [r7, #16]
 8004686:	ee77 6a67 	vsub.f32	s13, s14, s15
 800468a:	ed97 7a05 	vldr	s14, [r7, #20]
 800468e:	eec6 7a87 	vdiv.f32	s15, s13, s14
 8004692:	edc7 7a03 	vstr	s15, [r7, #12]
	    linearLastError = linearError;
 8004696:	4a7e      	ldr	r2, [pc, #504]	; (8004890 <BALANCE_Speed_LinearControl+0x338>)
 8004698:	693b      	ldr	r3, [r7, #16]
 800469a:	6013      	str	r3, [r2, #0]
	    float RC = 1.0f / linearFcutDiff;
 800469c:	4b7d      	ldr	r3, [pc, #500]	; (8004894 <BALANCE_Speed_LinearControl+0x33c>)
 800469e:	ed93 7a00 	vldr	s14, [r3]
 80046a2:	eef7 6a00 	vmov.f32	s13, #112	; 0x3f800000  1.0
 80046a6:	eec6 7a87 	vdiv.f32	s15, s13, s14
 80046aa:	edc7 7a02 	vstr	s15, [r7, #8]
	    float kExp = deltaTime / (RC + deltaTime);
 80046ae:	ed97 7a02 	vldr	s14, [r7, #8]
 80046b2:	edd7 7a05 	vldr	s15, [r7, #20]
 80046b6:	ee37 7a27 	vadd.f32	s14, s14, s15
 80046ba:	edd7 6a05 	vldr	s13, [r7, #20]
 80046be:	eec6 7a87 	vdiv.f32	s15, s13, s14
 80046c2:	edc7 7a01 	vstr	s15, [r7, #4]
	    linearSmoothDiff = (1.0f - kExp) * linearSmoothDiff + kExp * diff;
 80046c6:	eeb7 7a00 	vmov.f32	s14, #112	; 0x3f800000  1.0
 80046ca:	edd7 7a01 	vldr	s15, [r7, #4]
 80046ce:	ee37 7a67 	vsub.f32	s14, s14, s15
 80046d2:	4b71      	ldr	r3, [pc, #452]	; (8004898 <BALANCE_Speed_LinearControl+0x340>)
 80046d4:	edd3 7a00 	vldr	s15, [r3]
 80046d8:	ee27 7a27 	vmul.f32	s14, s14, s15
 80046dc:	edd7 6a01 	vldr	s13, [r7, #4]
 80046e0:	edd7 7a03 	vldr	s15, [r7, #12]
 80046e4:	ee66 7aa7 	vmul.f32	s15, s13, s15
 80046e8:	ee77 7a27 	vadd.f32	s15, s14, s15
 80046ec:	4b6a      	ldr	r3, [pc, #424]	; (8004898 <BALANCE_Speed_LinearControl+0x340>)
 80046ee:	edc3 7a00 	vstr	s15, [r3]

	    linearIntegral += linearError * deltaTime;
 80046f2:	ed97 7a04 	vldr	s14, [r7, #16]
 80046f6:	edd7 7a05 	vldr	s15, [r7, #20]
 80046fa:	ee27 7a27 	vmul.f32	s14, s14, s15
 80046fe:	4b61      	ldr	r3, [pc, #388]	; (8004884 <BALANCE_Speed_LinearControl+0x32c>)
 8004700:	edd3 7a00 	vldr	s15, [r3]
 8004704:	ee77 7a27 	vadd.f32	s15, s14, s15
 8004708:	4b5e      	ldr	r3, [pc, #376]	; (8004884 <BALANCE_Speed_LinearControl+0x32c>)
 800470a:	edc3 7a00 	vstr	s15, [r3]
	    if ((SpeedLinearDemand < minLinearValue) && (SpeedLinearDemand > -minLinearValue))
 800470e:	4b58      	ldr	r3, [pc, #352]	; (8004870 <BALANCE_Speed_LinearControl+0x318>)
 8004710:	ed93 7a00 	vldr	s14, [r3]
 8004714:	4b61      	ldr	r3, [pc, #388]	; (800489c <BALANCE_Speed_LinearControl+0x344>)
 8004716:	edd3 7a00 	vldr	s15, [r3]
 800471a:	eeb4 7ae7 	vcmpe.f32	s14, s15
 800471e:	eef1 fa10 	vmrs	APSR_nzcv, fpscr
 8004722:	d510      	bpl.n	8004746 <BALANCE_Speed_LinearControl+0x1ee>
 8004724:	4b5d      	ldr	r3, [pc, #372]	; (800489c <BALANCE_Speed_LinearControl+0x344>)
 8004726:	edd3 7a00 	vldr	s15, [r3]
 800472a:	eeb1 7a67 	vneg.f32	s14, s15
 800472e:	4b50      	ldr	r3, [pc, #320]	; (8004870 <BALANCE_Speed_LinearControl+0x318>)
 8004730:	edd3 7a00 	vldr	s15, [r3]
 8004734:	eeb4 7ae7 	vcmpe.f32	s14, s15
 8004738:	eef1 fa10 	vmrs	APSR_nzcv, fpscr
 800473c:	d503      	bpl.n	8004746 <BALANCE_Speed_LinearControl+0x1ee>
	    {
	        linearIntegral = 0;
 800473e:	4b51      	ldr	r3, [pc, #324]	; (8004884 <BALANCE_Speed_LinearControl+0x32c>)
 8004740:	f04f 0200 	mov.w	r2, #0
 8004744:	601a      	str	r2, [r3, #0]
	    }

	    if (linearIntegralerrorCoun > 3)
 8004746:	4b51      	ldr	r3, [pc, #324]	; (800488c <BALANCE_Speed_LinearControl+0x334>)
 8004748:	681b      	ldr	r3, [r3, #0]
 800474a:	2b03      	cmp	r3, #3
 800474c:	dd03      	ble.n	8004756 <BALANCE_Speed_LinearControl+0x1fe>
	    {
	        linearIntegral = 0;
 800474e:	4b4d      	ldr	r3, [pc, #308]	; (8004884 <BALANCE_Speed_LinearControl+0x32c>)
 8004750:	f04f 0200 	mov.w	r2, #0
 8004754:	601a      	str	r2, [r3, #0]
	    }
	    SpeedPID = linearError * SpeedPNew + linearIntegral * SpeedINew + linearSmoothDiff * SpeedDNew;
 8004756:	4b52      	ldr	r3, [pc, #328]	; (80048a0 <BALANCE_Speed_LinearControl+0x348>)
 8004758:	ed93 7a00 	vldr	s14, [r3]
 800475c:	edd7 7a04 	vldr	s15, [r7, #16]
 8004760:	ee27 7a27 	vmul.f32	s14, s14, s15
 8004764:	4b47      	ldr	r3, [pc, #284]	; (8004884 <BALANCE_Speed_LinearControl+0x32c>)
 8004766:	edd3 6a00 	vldr	s13, [r3]
 800476a:	4b4e      	ldr	r3, [pc, #312]	; (80048a4 <BALANCE_Speed_LinearControl+0x34c>)
 800476c:	edd3 7a00 	vldr	s15, [r3]
 8004770:	ee66 7aa7 	vmul.f32	s15, s13, s15
 8004774:	ee37 7a27 	vadd.f32	s14, s14, s15
 8004778:	4b47      	ldr	r3, [pc, #284]	; (8004898 <BALANCE_Speed_LinearControl+0x340>)
 800477a:	edd3 6a00 	vldr	s13, [r3]
 800477e:	4b4a      	ldr	r3, [pc, #296]	; (80048a8 <BALANCE_Speed_LinearControl+0x350>)
 8004780:	edd3 7a00 	vldr	s15, [r3]
 8004784:	ee66 7aa7 	vmul.f32	s15, s13, s15
 8004788:	ee77 7a27 	vadd.f32	s15, s14, s15
 800478c:	4b47      	ldr	r3, [pc, #284]	; (80048ac <BALANCE_Speed_LinearControl+0x354>)
 800478e:	edc3 7a00 	vstr	s15, [r3]

	    PlatformYDemand += ((SpeedPID / 1.0) - PlatformYDemand) * SpeedFilter;
 8004792:	4b47      	ldr	r3, [pc, #284]	; (80048b0 <BALANCE_Speed_LinearControl+0x358>)
 8004794:	681b      	ldr	r3, [r3, #0]
 8004796:	4618      	mov	r0, r3
 8004798:	f7fb fe7a 	bl	8000490 <__aeabi_f2d>
 800479c:	4604      	mov	r4, r0
 800479e:	460d      	mov	r5, r1
 80047a0:	4b42      	ldr	r3, [pc, #264]	; (80048ac <BALANCE_Speed_LinearControl+0x354>)
 80047a2:	681b      	ldr	r3, [r3, #0]
 80047a4:	4618      	mov	r0, r3
 80047a6:	f7fb fe73 	bl	8000490 <__aeabi_f2d>
 80047aa:	4680      	mov	r8, r0
 80047ac:	4689      	mov	r9, r1
 80047ae:	4b40      	ldr	r3, [pc, #256]	; (80048b0 <BALANCE_Speed_LinearControl+0x358>)
 80047b0:	681b      	ldr	r3, [r3, #0]
 80047b2:	4618      	mov	r0, r3
 80047b4:	f7fb fe6c 	bl	8000490 <__aeabi_f2d>
 80047b8:	4602      	mov	r2, r0
 80047ba:	460b      	mov	r3, r1
 80047bc:	4640      	mov	r0, r8
 80047be:	4649      	mov	r1, r9
 80047c0:	f7fb fd06 	bl	80001d0 <__aeabi_dsub>
 80047c4:	4602      	mov	r2, r0
 80047c6:	460b      	mov	r3, r1
 80047c8:	4690      	mov	r8, r2
 80047ca:	4699      	mov	r9, r3
 80047cc:	4b39      	ldr	r3, [pc, #228]	; (80048b4 <BALANCE_Speed_LinearControl+0x35c>)
 80047ce:	681b      	ldr	r3, [r3, #0]
 80047d0:	4618      	mov	r0, r3
 80047d2:	f7fb fe5d 	bl	8000490 <__aeabi_f2d>
 80047d6:	4602      	mov	r2, r0
 80047d8:	460b      	mov	r3, r1
 80047da:	4640      	mov	r0, r8
 80047dc:	4649      	mov	r1, r9
 80047de:	f7fb feaf 	bl	8000540 <__aeabi_dmul>
 80047e2:	4602      	mov	r2, r0
 80047e4:	460b      	mov	r3, r1
 80047e6:	4620      	mov	r0, r4
 80047e8:	4629      	mov	r1, r5
 80047ea:	f7fb fcf3 	bl	80001d4 <__adddf3>
 80047ee:	4602      	mov	r2, r0
 80047f0:	460b      	mov	r3, r1
 80047f2:	4610      	mov	r0, r2
 80047f4:	4619      	mov	r1, r3
 80047f6:	f7fc f965 	bl	8000ac4 <__aeabi_d2f>
 80047fa:	4603      	mov	r3, r0
 80047fc:	4a2c      	ldr	r2, [pc, #176]	; (80048b0 <BALANCE_Speed_LinearControl+0x358>)
 80047fe:	6013      	str	r3, [r2, #0]

	    PlatformYDemand = (PlatformYDemand > PLATFORM_Y_MAX) ? PLATFORM_Y_MAX : PlatformYDemand;
 8004800:	4b2b      	ldr	r3, [pc, #172]	; (80048b0 <BALANCE_Speed_LinearControl+0x358>)
 8004802:	edd3 7a00 	vldr	s15, [r3]
 8004806:	eeb1 7a04 	vmov.f32	s14, #20	; 0x40a00000  5.0
 800480a:	eef4 7ac7 	vcmpe.f32	s15, s14
 800480e:	eef1 fa10 	vmrs	APSR_nzcv, fpscr
 8004812:	dd01      	ble.n	8004818 <BALANCE_Speed_LinearControl+0x2c0>
 8004814:	4b17      	ldr	r3, [pc, #92]	; (8004874 <BALANCE_Speed_LinearControl+0x31c>)
 8004816:	e001      	b.n	800481c <BALANCE_Speed_LinearControl+0x2c4>
 8004818:	4b25      	ldr	r3, [pc, #148]	; (80048b0 <BALANCE_Speed_LinearControl+0x358>)
 800481a:	681b      	ldr	r3, [r3, #0]
 800481c:	4a24      	ldr	r2, [pc, #144]	; (80048b0 <BALANCE_Speed_LinearControl+0x358>)
 800481e:	6013      	str	r3, [r2, #0]
	    PlatformYDemand = (PlatformYDemand < -PLATFORM_Y_MAX) ? -PLATFORM_Y_MAX : PlatformYDemand;
 8004820:	4b23      	ldr	r3, [pc, #140]	; (80048b0 <BALANCE_Speed_LinearControl+0x358>)
 8004822:	edd3 7a00 	vldr	s15, [r3]
 8004826:	eeb9 7a04 	vmov.f32	s14, #148	; 0xc0a00000 -5.0
 800482a:	eef4 7ac7 	vcmpe.f32	s15, s14
 800482e:	eef1 fa10 	vmrs	APSR_nzcv, fpscr
 8004832:	d501      	bpl.n	8004838 <BALANCE_Speed_LinearControl+0x2e0>
 8004834:	4b10      	ldr	r3, [pc, #64]	; (8004878 <BALANCE_Speed_LinearControl+0x320>)
 8004836:	e001      	b.n	800483c <BALANCE_Speed_LinearControl+0x2e4>
 8004838:	4b1d      	ldr	r3, [pc, #116]	; (80048b0 <BALANCE_Speed_LinearControl+0x358>)
 800483a:	681b      	ldr	r3, [r3, #0]
 800483c:	4a1c      	ldr	r2, [pc, #112]	; (80048b0 <BALANCE_Speed_LinearControl+0x358>)
 800483e:	6013      	str	r3, [r2, #0]
	else
	{
	    SpeedLinearDemand = 0;
	    linearIntegral = 0;
	}
}
 8004840:	e007      	b.n	8004852 <BALANCE_Speed_LinearControl+0x2fa>
	    SpeedLinearDemand = 0;
 8004842:	4b0b      	ldr	r3, [pc, #44]	; (8004870 <BALANCE_Speed_LinearControl+0x318>)
 8004844:	f04f 0200 	mov.w	r2, #0
 8004848:	601a      	str	r2, [r3, #0]
	    linearIntegral = 0;
 800484a:	4b0e      	ldr	r3, [pc, #56]	; (8004884 <BALANCE_Speed_LinearControl+0x32c>)
 800484c:	f04f 0200 	mov.w	r2, #0
 8004850:	601a      	str	r2, [r3, #0]
}
 8004852:	bf00      	nop
 8004854:	3718      	adds	r7, #24
 8004856:	46bd      	mov	sp, r7
 8004858:	e8bd 83b0 	ldmia.w	sp!, {r4, r5, r7, r8, r9, pc}
 800485c:	f3af 8000 	nop.w
 8004860:	00000000 	.word	0x00000000
 8004864:	412e8480 	.word	0x412e8480
 8004868:	200000e8 	.word	0x200000e8
 800486c:	200000ec 	.word	0x200000ec
 8004870:	20000268 	.word	0x20000268
 8004874:	40a00000 	.word	0x40a00000
 8004878:	c0a00000 	.word	0xc0a00000
 800487c:	20000228 	.word	0x20000228
 8004880:	200001c0 	.word	0x200001c0
 8004884:	200000dc 	.word	0x200000dc
 8004888:	3ff80000 	.word	0x3ff80000
 800488c:	200000f0 	.word	0x200000f0
 8004890:	200000e0 	.word	0x200000e0
 8004894:	20000024 	.word	0x20000024
 8004898:	200000e4 	.word	0x200000e4
 800489c:	20000028 	.word	0x20000028
 80048a0:	20000008 	.word	0x20000008
 80048a4:	2000000c 	.word	0x2000000c
 80048a8:	20000010 	.word	0x20000010
 80048ac:	2000019c 	.word	0x2000019c
 80048b0:	200000cc 	.word	0x200000cc
 80048b4:	20000020 	.word	0x20000020

080048b8 <BALANCE_Position_Angular_Control>:

void BALANCE_Position_Angular_Control()
{
 80048b8:	b5b0      	push	{r4, r5, r7, lr}
 80048ba:	af00      	add	r7, sp, #0
	GyroZSpeed = eulerAngles.angle.yaw - GyroZPrevious;
 80048bc:	4b44      	ldr	r3, [pc, #272]	; (80049d0 <BALANCE_Position_Angular_Control+0x118>)
 80048be:	ed93 7a02 	vldr	s14, [r3, #8]
 80048c2:	4b44      	ldr	r3, [pc, #272]	; (80049d4 <BALANCE_Position_Angular_Control+0x11c>)
 80048c4:	edd3 7a00 	vldr	s15, [r3]
 80048c8:	ee77 7a67 	vsub.f32	s15, s14, s15
 80048cc:	4b42      	ldr	r3, [pc, #264]	; (80049d8 <BALANCE_Position_Angular_Control+0x120>)
 80048ce:	edc3 7a00 	vstr	s15, [r3]
	GyroZPrevious = eulerAngles.angle.yaw;
 80048d2:	4b3f      	ldr	r3, [pc, #252]	; (80049d0 <BALANCE_Position_Angular_Control+0x118>)
 80048d4:	689b      	ldr	r3, [r3, #8]
 80048d6:	4a3f      	ldr	r2, [pc, #252]	; (80049d4 <BALANCE_Position_Angular_Control+0x11c>)
 80048d8:	6013      	str	r3, [r2, #0]
	if (BalanceActive)
 80048da:	4b40      	ldr	r3, [pc, #256]	; (80049dc <BALANCE_Position_Angular_Control+0x124>)
 80048dc:	781b      	ldrb	r3, [r3, #0]
 80048de:	2b00      	cmp	r3, #0
 80048e0:	d03e      	beq.n	8004960 <BALANCE_Position_Angular_Control+0xa8>
	{
	    PositionAngularDemand -= Turn / 100.0;
 80048e2:	4b3f      	ldr	r3, [pc, #252]	; (80049e0 <BALANCE_Position_Angular_Control+0x128>)
 80048e4:	681b      	ldr	r3, [r3, #0]
 80048e6:	4618      	mov	r0, r3
 80048e8:	f7fb fdd2 	bl	8000490 <__aeabi_f2d>
 80048ec:	4604      	mov	r4, r0
 80048ee:	460d      	mov	r5, r1
 80048f0:	4b3c      	ldr	r3, [pc, #240]	; (80049e4 <BALANCE_Position_Angular_Control+0x12c>)
 80048f2:	681b      	ldr	r3, [r3, #0]
 80048f4:	4618      	mov	r0, r3
 80048f6:	f7fb fdcb 	bl	8000490 <__aeabi_f2d>
 80048fa:	f04f 0200 	mov.w	r2, #0
 80048fe:	4b3a      	ldr	r3, [pc, #232]	; (80049e8 <BALANCE_Position_Angular_Control+0x130>)
 8004900:	f7fb ff48 	bl	8000794 <__aeabi_ddiv>
 8004904:	4602      	mov	r2, r0
 8004906:	460b      	mov	r3, r1
 8004908:	4620      	mov	r0, r4
 800490a:	4629      	mov	r1, r5
 800490c:	f7fb fc60 	bl	80001d0 <__aeabi_dsub>
 8004910:	4602      	mov	r2, r0
 8004912:	460b      	mov	r3, r1
 8004914:	4610      	mov	r0, r2
 8004916:	4619      	mov	r1, r3
 8004918:	f7fc f8d4 	bl	8000ac4 <__aeabi_d2f>
 800491c:	4603      	mov	r3, r0
 800491e:	4a30      	ldr	r2, [pc, #192]	; (80049e0 <BALANCE_Position_Angular_Control+0x128>)
 8004920:	6013      	str	r3, [r2, #0]

	    RotationPID = (eulerAngles.angle.yaw - PositionAngularDemand) * RotationP + GyroZSpeed * RotationD;
 8004922:	4b2b      	ldr	r3, [pc, #172]	; (80049d0 <BALANCE_Position_Angular_Control+0x118>)
 8004924:	ed93 7a02 	vldr	s14, [r3, #8]
 8004928:	4b2d      	ldr	r3, [pc, #180]	; (80049e0 <BALANCE_Position_Angular_Control+0x128>)
 800492a:	edd3 7a00 	vldr	s15, [r3]
 800492e:	ee37 7a67 	vsub.f32	s14, s14, s15
 8004932:	4b2e      	ldr	r3, [pc, #184]	; (80049ec <BALANCE_Position_Angular_Control+0x134>)
 8004934:	edd3 7a00 	vldr	s15, [r3]
 8004938:	ee27 7a27 	vmul.f32	s14, s14, s15
 800493c:	4b26      	ldr	r3, [pc, #152]	; (80049d8 <BALANCE_Position_Angular_Control+0x120>)
 800493e:	edd3 6a00 	vldr	s13, [r3]
 8004942:	4b2b      	ldr	r3, [pc, #172]	; (80049f0 <BALANCE_Position_Angular_Control+0x138>)
 8004944:	edd3 7a00 	vldr	s15, [r3]
 8004948:	ee66 7aa7 	vmul.f32	s15, s13, s15
 800494c:	ee77 7a27 	vadd.f32	s15, s14, s15
 8004950:	4b28      	ldr	r3, [pc, #160]	; (80049f4 <BALANCE_Position_Angular_Control+0x13c>)
 8004952:	edc3 7a00 	vstr	s15, [r3]
	    DutyTurn = RotationPID;
 8004956:	4b27      	ldr	r3, [pc, #156]	; (80049f4 <BALANCE_Position_Angular_Control+0x13c>)
 8004958:	681b      	ldr	r3, [r3, #0]
 800495a:	4a27      	ldr	r2, [pc, #156]	; (80049f8 <BALANCE_Position_Angular_Control+0x140>)
 800495c:	6013      	str	r3, [r2, #0]
 800495e:	e007      	b.n	8004970 <BALANCE_Position_Angular_Control+0xb8>
	}
	else
	{
	    PositionAngularDemand = eulerAngles.angle.yaw;
 8004960:	4b1b      	ldr	r3, [pc, #108]	; (80049d0 <BALANCE_Position_Angular_Control+0x118>)
 8004962:	689b      	ldr	r3, [r3, #8]
 8004964:	4a1e      	ldr	r2, [pc, #120]	; (80049e0 <BALANCE_Position_Angular_Control+0x128>)
 8004966:	6013      	str	r3, [r2, #0]
	    DutyTurn = 0;
 8004968:	4b23      	ldr	r3, [pc, #140]	; (80049f8 <BALANCE_Position_Angular_Control+0x140>)
 800496a:	f04f 0200 	mov.w	r2, #0
 800496e:	601a      	str	r2, [r3, #0]
	}
	DutyTurn = (DutyTurn > DUTY_MAX_ANGULAR) ? DUTY_MAX_ANGULAR : DutyTurn;
 8004970:	4b21      	ldr	r3, [pc, #132]	; (80049f8 <BALANCE_Position_Angular_Control+0x140>)
 8004972:	681b      	ldr	r3, [r3, #0]
 8004974:	4618      	mov	r0, r3
 8004976:	f7fb fd8b 	bl	8000490 <__aeabi_f2d>
 800497a:	a311      	add	r3, pc, #68	; (adr r3, 80049c0 <BALANCE_Position_Angular_Control+0x108>)
 800497c:	e9d3 2300 	ldrd	r2, r3, [r3]
 8004980:	f7fc f86e 	bl	8000a60 <__aeabi_dcmpgt>
 8004984:	4603      	mov	r3, r0
 8004986:	2b00      	cmp	r3, #0
 8004988:	d001      	beq.n	800498e <BALANCE_Position_Angular_Control+0xd6>
 800498a:	4b1c      	ldr	r3, [pc, #112]	; (80049fc <BALANCE_Position_Angular_Control+0x144>)
 800498c:	e001      	b.n	8004992 <BALANCE_Position_Angular_Control+0xda>
 800498e:	4b1a      	ldr	r3, [pc, #104]	; (80049f8 <BALANCE_Position_Angular_Control+0x140>)
 8004990:	681b      	ldr	r3, [r3, #0]
 8004992:	4a19      	ldr	r2, [pc, #100]	; (80049f8 <BALANCE_Position_Angular_Control+0x140>)
 8004994:	6013      	str	r3, [r2, #0]
	DutyTurn = (DutyTurn < -DUTY_MAX_ANGULAR) ? -DUTY_MAX_ANGULAR : DutyTurn;
 8004996:	4b18      	ldr	r3, [pc, #96]	; (80049f8 <BALANCE_Position_Angular_Control+0x140>)
 8004998:	681b      	ldr	r3, [r3, #0]
 800499a:	4618      	mov	r0, r3
 800499c:	f7fb fd78 	bl	8000490 <__aeabi_f2d>
 80049a0:	a309      	add	r3, pc, #36	; (adr r3, 80049c8 <BALANCE_Position_Angular_Control+0x110>)
 80049a2:	e9d3 2300 	ldrd	r2, r3, [r3]
 80049a6:	f7fc f83d 	bl	8000a24 <__aeabi_dcmplt>
 80049aa:	4603      	mov	r3, r0
 80049ac:	2b00      	cmp	r3, #0
 80049ae:	d001      	beq.n	80049b4 <BALANCE_Position_Angular_Control+0xfc>
 80049b0:	4b13      	ldr	r3, [pc, #76]	; (8004a00 <BALANCE_Position_Angular_Control+0x148>)
 80049b2:	e001      	b.n	80049b8 <BALANCE_Position_Angular_Control+0x100>
 80049b4:	4b10      	ldr	r3, [pc, #64]	; (80049f8 <BALANCE_Position_Angular_Control+0x140>)
 80049b6:	681b      	ldr	r3, [r3, #0]
 80049b8:	4a0f      	ldr	r2, [pc, #60]	; (80049f8 <BALANCE_Position_Angular_Control+0x140>)
 80049ba:	6013      	str	r3, [r2, #0]
}
 80049bc:	bf00      	nop
 80049be:	bdb0      	pop	{r4, r5, r7, pc}
 80049c0:	9999999a 	.word	0x9999999a
 80049c4:	3fb99999 	.word	0x3fb99999
 80049c8:	9999999a 	.word	0x9999999a
 80049cc:	bfb99999 	.word	0xbfb99999
 80049d0:	20000178 	.word	0x20000178
 80049d4:	200001c4 	.word	0x200001c4
 80049d8:	200002fc 	.word	0x200002fc
 80049dc:	20000228 	.word	0x20000228
 80049e0:	20000310 	.word	0x20000310
 80049e4:	20000108 	.word	0x20000108
 80049e8:	40590000 	.word	0x40590000
 80049ec:	20000000 	.word	0x20000000
 80049f0:	20000004 	.word	0x20000004
 80049f4:	20000168 	.word	0x20000168
 80049f8:	200001b4 	.word	0x200001b4
 80049fc:	3dcccccd 	.word	0x3dcccccd
 8004a00:	bdcccccd 	.word	0xbdcccccd
 8004a04:	00000000 	.word	0x00000000

08004a08 <BALANCE_LOOP>:

void BALANCE_LOOP()
{
 8004a08:	b5b0      	push	{r4, r5, r7, lr}
 8004a0a:	af00      	add	r7, sp, #0
	GyroY = eulerAngles.angle.pitch + PlatformYDemand + AngleCorrection - ParkingAngle;
 8004a0c:	4b4e      	ldr	r3, [pc, #312]	; (8004b48 <BALANCE_LOOP+0x140>)
 8004a0e:	ed93 7a01 	vldr	s14, [r3, #4]
 8004a12:	4b4e      	ldr	r3, [pc, #312]	; (8004b4c <BALANCE_LOOP+0x144>)
 8004a14:	edd3 7a00 	vldr	s15, [r3]
 8004a18:	ee37 7a27 	vadd.f32	s14, s14, s15
 8004a1c:	4b4c      	ldr	r3, [pc, #304]	; (8004b50 <BALANCE_LOOP+0x148>)
 8004a1e:	edd3 7a00 	vldr	s15, [r3]
 8004a22:	ee37 7a27 	vadd.f32	s14, s14, s15
 8004a26:	4b4b      	ldr	r3, [pc, #300]	; (8004b54 <BALANCE_LOOP+0x14c>)
 8004a28:	edd3 7a00 	vldr	s15, [r3]
 8004a2c:	ee77 7a67 	vsub.f32	s15, s14, s15
 8004a30:	4b49      	ldr	r3, [pc, #292]	; (8004b58 <BALANCE_LOOP+0x150>)
 8004a32:	edc3 7a00 	vstr	s15, [r3]

	GyroYSpeed = GyroY - GyroYPrevious;
 8004a36:	4b48      	ldr	r3, [pc, #288]	; (8004b58 <BALANCE_LOOP+0x150>)
 8004a38:	ed93 7a00 	vldr	s14, [r3]
 8004a3c:	4b47      	ldr	r3, [pc, #284]	; (8004b5c <BALANCE_LOOP+0x154>)
 8004a3e:	edd3 7a00 	vldr	s15, [r3]
 8004a42:	ee77 7a67 	vsub.f32	s15, s14, s15
 8004a46:	4b46      	ldr	r3, [pc, #280]	; (8004b60 <BALANCE_LOOP+0x158>)
 8004a48:	edc3 7a00 	vstr	s15, [r3]
	GyroYPrevious = GyroY;
 8004a4c:	4b42      	ldr	r3, [pc, #264]	; (8004b58 <BALANCE_LOOP+0x150>)
 8004a4e:	681b      	ldr	r3, [r3, #0]
 8004a50:	4a42      	ldr	r2, [pc, #264]	; (8004b5c <BALANCE_LOOP+0x154>)
 8004a52:	6013      	str	r3, [r2, #0]

	if (BalanceActive)
 8004a54:	4b43      	ldr	r3, [pc, #268]	; (8004b64 <BALANCE_LOOP+0x15c>)
 8004a56:	781b      	ldrb	r3, [r3, #0]
 8004a58:	2b00      	cmp	r3, #0
 8004a5a:	d05d      	beq.n	8004b18 <BALANCE_LOOP+0x110>
	{
	    BalancePID = -GyroY * (float)BalanceP - GyroYSpeed * (float)BalanceD;
 8004a5c:	4b3e      	ldr	r3, [pc, #248]	; (8004b58 <BALANCE_LOOP+0x150>)
 8004a5e:	edd3 7a00 	vldr	s15, [r3]
 8004a62:	eeb1 7a67 	vneg.f32	s14, s15
 8004a66:	4b40      	ldr	r3, [pc, #256]	; (8004b68 <BALANCE_LOOP+0x160>)
 8004a68:	edd3 7a00 	vldr	s15, [r3]
 8004a6c:	ee27 7a27 	vmul.f32	s14, s14, s15
 8004a70:	4b3b      	ldr	r3, [pc, #236]	; (8004b60 <BALANCE_LOOP+0x158>)
 8004a72:	edd3 6a00 	vldr	s13, [r3]
 8004a76:	4b3d      	ldr	r3, [pc, #244]	; (8004b6c <BALANCE_LOOP+0x164>)
 8004a78:	edd3 7a00 	vldr	s15, [r3]
 8004a7c:	ee66 7aa7 	vmul.f32	s15, s13, s15
 8004a80:	ee77 7a67 	vsub.f32	s15, s14, s15
 8004a84:	4b3a      	ldr	r3, [pc, #232]	; (8004b70 <BALANCE_LOOP+0x168>)
 8004a86:	edc3 7a00 	vstr	s15, [r3]

	    DutyFront += BalancePID * 0.000001;
 8004a8a:	4b3a      	ldr	r3, [pc, #232]	; (8004b74 <BALANCE_LOOP+0x16c>)
 8004a8c:	681b      	ldr	r3, [r3, #0]
 8004a8e:	4618      	mov	r0, r3
 8004a90:	f7fb fcfe 	bl	8000490 <__aeabi_f2d>
 8004a94:	4604      	mov	r4, r0
 8004a96:	460d      	mov	r5, r1
 8004a98:	4b35      	ldr	r3, [pc, #212]	; (8004b70 <BALANCE_LOOP+0x168>)
 8004a9a:	681b      	ldr	r3, [r3, #0]
 8004a9c:	4618      	mov	r0, r3
 8004a9e:	f7fb fcf7 	bl	8000490 <__aeabi_f2d>
 8004aa2:	a323      	add	r3, pc, #140	; (adr r3, 8004b30 <BALANCE_LOOP+0x128>)
 8004aa4:	e9d3 2300 	ldrd	r2, r3, [r3]
 8004aa8:	f7fb fd4a 	bl	8000540 <__aeabi_dmul>
 8004aac:	4602      	mov	r2, r0
 8004aae:	460b      	mov	r3, r1
 8004ab0:	4620      	mov	r0, r4
 8004ab2:	4629      	mov	r1, r5
 8004ab4:	f7fb fb8e 	bl	80001d4 <__adddf3>
 8004ab8:	4602      	mov	r2, r0
 8004aba:	460b      	mov	r3, r1
 8004abc:	4610      	mov	r0, r2
 8004abe:	4619      	mov	r1, r3
 8004ac0:	f7fc f800 	bl	8000ac4 <__aeabi_d2f>
 8004ac4:	4603      	mov	r3, r0
 8004ac6:	4a2b      	ldr	r2, [pc, #172]	; (8004b74 <BALANCE_LOOP+0x16c>)
 8004ac8:	6013      	str	r3, [r2, #0]

	    DutyFront = (DutyFront > DUTY_MAX_LINEAR) ? DUTY_MAX_LINEAR : DutyFront;
 8004aca:	4b2a      	ldr	r3, [pc, #168]	; (8004b74 <BALANCE_LOOP+0x16c>)
 8004acc:	681b      	ldr	r3, [r3, #0]
 8004ace:	4618      	mov	r0, r3
 8004ad0:	f7fb fcde 	bl	8000490 <__aeabi_f2d>
 8004ad4:	a318      	add	r3, pc, #96	; (adr r3, 8004b38 <BALANCE_LOOP+0x130>)
 8004ad6:	e9d3 2300 	ldrd	r2, r3, [r3]
 8004ada:	f7fb ffc1 	bl	8000a60 <__aeabi_dcmpgt>
 8004ade:	4603      	mov	r3, r0
 8004ae0:	2b00      	cmp	r3, #0
 8004ae2:	d001      	beq.n	8004ae8 <BALANCE_LOOP+0xe0>
 8004ae4:	4b24      	ldr	r3, [pc, #144]	; (8004b78 <BALANCE_LOOP+0x170>)
 8004ae6:	e001      	b.n	8004aec <BALANCE_LOOP+0xe4>
 8004ae8:	4b22      	ldr	r3, [pc, #136]	; (8004b74 <BALANCE_LOOP+0x16c>)
 8004aea:	681b      	ldr	r3, [r3, #0]
 8004aec:	4a21      	ldr	r2, [pc, #132]	; (8004b74 <BALANCE_LOOP+0x16c>)
 8004aee:	6013      	str	r3, [r2, #0]
	    DutyFront = (DutyFront < -DUTY_MAX_LINEAR) ? -DUTY_MAX_LINEAR : DutyFront;
 8004af0:	4b20      	ldr	r3, [pc, #128]	; (8004b74 <BALANCE_LOOP+0x16c>)
 8004af2:	681b      	ldr	r3, [r3, #0]
 8004af4:	4618      	mov	r0, r3
 8004af6:	f7fb fccb 	bl	8000490 <__aeabi_f2d>
 8004afa:	a311      	add	r3, pc, #68	; (adr r3, 8004b40 <BALANCE_LOOP+0x138>)
 8004afc:	e9d3 2300 	ldrd	r2, r3, [r3]
 8004b00:	f7fb ff90 	bl	8000a24 <__aeabi_dcmplt>
 8004b04:	4603      	mov	r3, r0
 8004b06:	2b00      	cmp	r3, #0
 8004b08:	d001      	beq.n	8004b0e <BALANCE_LOOP+0x106>
 8004b0a:	4b1c      	ldr	r3, [pc, #112]	; (8004b7c <BALANCE_LOOP+0x174>)
 8004b0c:	e001      	b.n	8004b12 <BALANCE_LOOP+0x10a>
 8004b0e:	4b19      	ldr	r3, [pc, #100]	; (8004b74 <BALANCE_LOOP+0x16c>)
 8004b10:	681b      	ldr	r3, [r3, #0]
 8004b12:	4a18      	ldr	r2, [pc, #96]	; (8004b74 <BALANCE_LOOP+0x16c>)
 8004b14:	6013      	str	r3, [r2, #0]
	else
	{
	    PlatformYDemand = 0;
	    DutyFront = 0;
	}
}
 8004b16:	e007      	b.n	8004b28 <BALANCE_LOOP+0x120>
	    PlatformYDemand = 0;
 8004b18:	4b0c      	ldr	r3, [pc, #48]	; (8004b4c <BALANCE_LOOP+0x144>)
 8004b1a:	f04f 0200 	mov.w	r2, #0
 8004b1e:	601a      	str	r2, [r3, #0]
	    DutyFront = 0;
 8004b20:	4b14      	ldr	r3, [pc, #80]	; (8004b74 <BALANCE_LOOP+0x16c>)
 8004b22:	f04f 0200 	mov.w	r2, #0
 8004b26:	601a      	str	r2, [r3, #0]
}
 8004b28:	bf00      	nop
 8004b2a:	bdb0      	pop	{r4, r5, r7, pc}
 8004b2c:	f3af 8000 	nop.w
 8004b30:	a0b5ed8d 	.word	0xa0b5ed8d
 8004b34:	3eb0c6f7 	.word	0x3eb0c6f7
 8004b38:	33333333 	.word	0x33333333
 8004b3c:	3fc33333 	.word	0x3fc33333
 8004b40:	33333333 	.word	0x33333333
 8004b44:	bfc33333 	.word	0xbfc33333
 8004b48:	20000178 	.word	0x20000178
 8004b4c:	200000cc 	.word	0x200000cc
 8004b50:	200000d0 	.word	0x200000d0
 8004b54:	200001cc 	.word	0x200001cc
 8004b58:	20000260 	.word	0x20000260
 8004b5c:	2000016c 	.word	0x2000016c
 8004b60:	20000238 	.word	0x20000238
 8004b64:	20000228 	.word	0x20000228
 8004b68:	20000014 	.word	0x20000014
 8004b6c:	20000018 	.word	0x20000018
 8004b70:	2000015c 	.word	0x2000015c
 8004b74:	20000158 	.word	0x20000158
 8004b78:	3e19999a 	.word	0x3e19999a
 8004b7c:	be19999a 	.word	0xbe19999a

08004b80 <BALANCE_Result_Loop>:

void BALANCE_Result_Loop()
{
 8004b80:	b480      	push	{r7}
 8004b82:	af00      	add	r7, sp, #0
	ResultLeft += ((DutyFront + DutyTurn) - ResultLeft) * BalanceFilter;
 8004b84:	4b55      	ldr	r3, [pc, #340]	; (8004cdc <BALANCE_Result_Loop+0x15c>)
 8004b86:	ed93 7a00 	vldr	s14, [r3]
 8004b8a:	4b55      	ldr	r3, [pc, #340]	; (8004ce0 <BALANCE_Result_Loop+0x160>)
 8004b8c:	edd3 7a00 	vldr	s15, [r3]
 8004b90:	ee37 7a27 	vadd.f32	s14, s14, s15
 8004b94:	4b53      	ldr	r3, [pc, #332]	; (8004ce4 <BALANCE_Result_Loop+0x164>)
 8004b96:	edd3 7a00 	vldr	s15, [r3]
 8004b9a:	ee37 7a67 	vsub.f32	s14, s14, s15
 8004b9e:	4b52      	ldr	r3, [pc, #328]	; (8004ce8 <BALANCE_Result_Loop+0x168>)
 8004ba0:	edd3 7a00 	vldr	s15, [r3]
 8004ba4:	ee27 7a27 	vmul.f32	s14, s14, s15
 8004ba8:	4b4e      	ldr	r3, [pc, #312]	; (8004ce4 <BALANCE_Result_Loop+0x164>)
 8004baa:	edd3 7a00 	vldr	s15, [r3]
 8004bae:	ee77 7a27 	vadd.f32	s15, s14, s15
 8004bb2:	4b4c      	ldr	r3, [pc, #304]	; (8004ce4 <BALANCE_Result_Loop+0x164>)
 8004bb4:	edc3 7a00 	vstr	s15, [r3]
	ResultRight += ((DutyFront - DutyTurn) - ResultRight) * BalanceFilter;
 8004bb8:	4b48      	ldr	r3, [pc, #288]	; (8004cdc <BALANCE_Result_Loop+0x15c>)
 8004bba:	ed93 7a00 	vldr	s14, [r3]
 8004bbe:	4b48      	ldr	r3, [pc, #288]	; (8004ce0 <BALANCE_Result_Loop+0x160>)
 8004bc0:	edd3 7a00 	vldr	s15, [r3]
 8004bc4:	ee37 7a67 	vsub.f32	s14, s14, s15
 8004bc8:	4b48      	ldr	r3, [pc, #288]	; (8004cec <BALANCE_Result_Loop+0x16c>)
 8004bca:	edd3 7a00 	vldr	s15, [r3]
 8004bce:	ee37 7a67 	vsub.f32	s14, s14, s15
 8004bd2:	4b45      	ldr	r3, [pc, #276]	; (8004ce8 <BALANCE_Result_Loop+0x168>)
 8004bd4:	edd3 7a00 	vldr	s15, [r3]
 8004bd8:	ee27 7a27 	vmul.f32	s14, s14, s15
 8004bdc:	4b43      	ldr	r3, [pc, #268]	; (8004cec <BALANCE_Result_Loop+0x16c>)
 8004bde:	edd3 7a00 	vldr	s15, [r3]
 8004be2:	ee77 7a27 	vadd.f32	s15, s14, s15
 8004be6:	4b41      	ldr	r3, [pc, #260]	; (8004cec <BALANCE_Result_Loop+0x16c>)
 8004be8:	edc3 7a00 	vstr	s15, [r3]

	SerialControlWheelsRequest.WheelLeft = ResultLeft;
 8004bec:	4b3d      	ldr	r3, [pc, #244]	; (8004ce4 <BALANCE_Result_Loop+0x164>)
 8004bee:	681a      	ldr	r2, [r3, #0]
 8004bf0:	4b3f      	ldr	r3, [pc, #252]	; (8004cf0 <BALANCE_Result_Loop+0x170>)
 8004bf2:	3306      	adds	r3, #6
 8004bf4:	601a      	str	r2, [r3, #0]
	SerialControlWheelsRequest.WheelRight = ResultRight;
 8004bf6:	4b3d      	ldr	r3, [pc, #244]	; (8004cec <BALANCE_Result_Loop+0x16c>)
 8004bf8:	681a      	ldr	r2, [r3, #0]
 8004bfa:	4b3d      	ldr	r3, [pc, #244]	; (8004cf0 <BALANCE_Result_Loop+0x170>)
 8004bfc:	330a      	adds	r3, #10
 8004bfe:	601a      	str	r2, [r3, #0]

	SerialControlWheelsRequest.WheelLeft += RotationI * (BTFront);
 8004c00:	4b3b      	ldr	r3, [pc, #236]	; (8004cf0 <BALANCE_Result_Loop+0x170>)
 8004c02:	f8d3 2006 	ldr.w	r2, [r3, #6]
 8004c06:	4613      	mov	r3, r2
 8004c08:	461a      	mov	r2, r3
 8004c0a:	4b3a      	ldr	r3, [pc, #232]	; (8004cf4 <BALANCE_Result_Loop+0x174>)
 8004c0c:	ed93 7a00 	vldr	s14, [r3]
 8004c10:	4b39      	ldr	r3, [pc, #228]	; (8004cf8 <BALANCE_Result_Loop+0x178>)
 8004c12:	edd3 7a00 	vldr	s15, [r3]
 8004c16:	ee67 7a27 	vmul.f32	s15, s14, s15
 8004c1a:	ee07 2a10 	vmov	s14, r2
 8004c1e:	ee77 7a27 	vadd.f32	s15, s14, s15
 8004c22:	4b33      	ldr	r3, [pc, #204]	; (8004cf0 <BALANCE_Result_Loop+0x170>)
 8004c24:	3306      	adds	r3, #6
 8004c26:	ee17 2a90 	vmov	r2, s15
 8004c2a:	601a      	str	r2, [r3, #0]
	SerialControlWheelsRequest.WheelRight += RotationI * (BTFront);
 8004c2c:	4b30      	ldr	r3, [pc, #192]	; (8004cf0 <BALANCE_Result_Loop+0x170>)
 8004c2e:	f8d3 200a 	ldr.w	r2, [r3, #10]
 8004c32:	4613      	mov	r3, r2
 8004c34:	461a      	mov	r2, r3
 8004c36:	4b2f      	ldr	r3, [pc, #188]	; (8004cf4 <BALANCE_Result_Loop+0x174>)
 8004c38:	ed93 7a00 	vldr	s14, [r3]
 8004c3c:	4b2e      	ldr	r3, [pc, #184]	; (8004cf8 <BALANCE_Result_Loop+0x178>)
 8004c3e:	edd3 7a00 	vldr	s15, [r3]
 8004c42:	ee67 7a27 	vmul.f32	s15, s14, s15
 8004c46:	ee07 2a10 	vmov	s14, r2
 8004c4a:	ee77 7a27 	vadd.f32	s15, s14, s15
 8004c4e:	4b28      	ldr	r3, [pc, #160]	; (8004cf0 <BALANCE_Result_Loop+0x170>)
 8004c50:	330a      	adds	r3, #10
 8004c52:	ee17 2a90 	vmov	r2, s15
 8004c56:	601a      	str	r2, [r3, #0]
	SerialControlWheelsRequest.WheelLeft += ManualDrive;
 8004c58:	4b25      	ldr	r3, [pc, #148]	; (8004cf0 <BALANCE_Result_Loop+0x170>)
 8004c5a:	f8d3 2006 	ldr.w	r2, [r3, #6]
 8004c5e:	4613      	mov	r3, r2
 8004c60:	461a      	mov	r2, r3
 8004c62:	4b26      	ldr	r3, [pc, #152]	; (8004cfc <BALANCE_Result_Loop+0x17c>)
 8004c64:	edd3 7a00 	vldr	s15, [r3]
 8004c68:	ee07 2a10 	vmov	s14, r2
 8004c6c:	ee77 7a27 	vadd.f32	s15, s14, s15
 8004c70:	4b1f      	ldr	r3, [pc, #124]	; (8004cf0 <BALANCE_Result_Loop+0x170>)
 8004c72:	3306      	adds	r3, #6
 8004c74:	ee17 2a90 	vmov	r2, s15
 8004c78:	601a      	str	r2, [r3, #0]
	SerialControlWheelsRequest.WheelRight += ManualDrive;
 8004c7a:	4b1d      	ldr	r3, [pc, #116]	; (8004cf0 <BALANCE_Result_Loop+0x170>)
 8004c7c:	f8d3 200a 	ldr.w	r2, [r3, #10]
 8004c80:	4613      	mov	r3, r2
 8004c82:	461a      	mov	r2, r3
 8004c84:	4b1d      	ldr	r3, [pc, #116]	; (8004cfc <BALANCE_Result_Loop+0x17c>)
 8004c86:	edd3 7a00 	vldr	s15, [r3]
 8004c8a:	ee07 2a10 	vmov	s14, r2
 8004c8e:	ee77 7a27 	vadd.f32	s15, s14, s15
 8004c92:	4b17      	ldr	r3, [pc, #92]	; (8004cf0 <BALANCE_Result_Loop+0x170>)
 8004c94:	330a      	adds	r3, #10
 8004c96:	ee17 2a90 	vmov	r2, s15
 8004c9a:	601a      	str	r2, [r3, #0]

	if (eulerAngles.angle.pitch + AngleCorrection > 20)
 8004c9c:	4b18      	ldr	r3, [pc, #96]	; (8004d00 <BALANCE_Result_Loop+0x180>)
 8004c9e:	ed93 7a01 	vldr	s14, [r3, #4]
 8004ca2:	4b18      	ldr	r3, [pc, #96]	; (8004d04 <BALANCE_Result_Loop+0x184>)
 8004ca4:	edd3 7a00 	vldr	s15, [r3]
 8004ca8:	ee77 7a27 	vadd.f32	s15, s14, s15
 8004cac:	eeb3 7a04 	vmov.f32	s14, #52	; 0x41a00000  20.0
 8004cb0:	eef4 7ac7 	vcmpe.f32	s15, s14
 8004cb4:	eef1 fa10 	vmrs	APSR_nzcv, fpscr
 8004cb8:	dc00      	bgt.n	8004cbc <BALANCE_Result_Loop+0x13c>
	{
	    SerialControlWheelsRequest.WheelLeft = 0;
	    SerialControlWheelsRequest.WheelRight = 0;
	}
}
 8004cba:	e009      	b.n	8004cd0 <BALANCE_Result_Loop+0x150>
	    SerialControlWheelsRequest.WheelLeft = 0;
 8004cbc:	4b0c      	ldr	r3, [pc, #48]	; (8004cf0 <BALANCE_Result_Loop+0x170>)
 8004cbe:	3306      	adds	r3, #6
 8004cc0:	f04f 0200 	mov.w	r2, #0
 8004cc4:	601a      	str	r2, [r3, #0]
	    SerialControlWheelsRequest.WheelRight = 0;
 8004cc6:	4b0a      	ldr	r3, [pc, #40]	; (8004cf0 <BALANCE_Result_Loop+0x170>)
 8004cc8:	330a      	adds	r3, #10
 8004cca:	f04f 0200 	mov.w	r2, #0
 8004cce:	601a      	str	r2, [r3, #0]
}
 8004cd0:	bf00      	nop
 8004cd2:	46bd      	mov	sp, r7
 8004cd4:	f85d 7b04 	ldr.w	r7, [sp], #4
 8004cd8:	4770      	bx	lr
 8004cda:	bf00      	nop
 8004cdc:	20000158 	.word	0x20000158
 8004ce0:	200001b4 	.word	0x200001b4
 8004ce4:	20000204 	.word	0x20000204
 8004ce8:	2000001c 	.word	0x2000001c
 8004cec:	200002ac 	.word	0x200002ac
 8004cf0:	200001a4 	.word	0x200001a4
 8004cf4:	200000d8 	.word	0x200000d8
 8004cf8:	200000fc 	.word	0x200000fc
 8004cfc:	200000d4 	.word	0x200000d4
 8004d00:	20000178 	.word	0x20000178
 8004d04:	200000d0 	.word	0x200000d0

08004d08 <Interpolation>:

float Interpolation(float Value, float Min, float Max)
{
 8004d08:	b480      	push	{r7}
 8004d0a:	b087      	sub	sp, #28
 8004d0c:	af00      	add	r7, sp, #0
 8004d0e:	ed87 0a03 	vstr	s0, [r7, #12]
 8004d12:	edc7 0a02 	vstr	s1, [r7, #8]
 8004d16:	ed87 1a01 	vstr	s2, [r7, #4]
    float Result = (Value - Min) / (Max - Min);
 8004d1a:	ed97 7a03 	vldr	s14, [r7, #12]
 8004d1e:	edd7 7a02 	vldr	s15, [r7, #8]
 8004d22:	ee77 6a67 	vsub.f32	s13, s14, s15
 8004d26:	ed97 7a01 	vldr	s14, [r7, #4]
 8004d2a:	edd7 7a02 	vldr	s15, [r7, #8]
 8004d2e:	ee37 7a67 	vsub.f32	s14, s14, s15
 8004d32:	eec6 7a87 	vdiv.f32	s15, s13, s14
 8004d36:	edc7 7a05 	vstr	s15, [r7, #20]
    if (Result > 1)
 8004d3a:	edd7 7a05 	vldr	s15, [r7, #20]
 8004d3e:	eeb7 7a00 	vmov.f32	s14, #112	; 0x3f800000  1.0
 8004d42:	eef4 7ac7 	vcmpe.f32	s15, s14
 8004d46:	eef1 fa10 	vmrs	APSR_nzcv, fpscr
 8004d4a:	dd02      	ble.n	8004d52 <Interpolation+0x4a>
    {
        return 1;
 8004d4c:	f04f 537e 	mov.w	r3, #1065353216	; 0x3f800000
 8004d50:	e00a      	b.n	8004d68 <Interpolation+0x60>
    }
    if (Result < 0)
 8004d52:	edd7 7a05 	vldr	s15, [r7, #20]
 8004d56:	eef5 7ac0 	vcmpe.f32	s15, #0.0
 8004d5a:	eef1 fa10 	vmrs	APSR_nzcv, fpscr
 8004d5e:	d502      	bpl.n	8004d66 <Interpolation+0x5e>
    {
        return 0;
 8004d60:	f04f 0300 	mov.w	r3, #0
 8004d64:	e000      	b.n	8004d68 <Interpolation+0x60>
    }
    return Result;
 8004d66:	697b      	ldr	r3, [r7, #20]
 8004d68:	ee07 3a90 	vmov	s15, r3
}
 8004d6c:	eeb0 0a67 	vmov.f32	s0, s15
 8004d70:	371c      	adds	r7, #28
 8004d72:	46bd      	mov	sp, r7
 8004d74:	f85d 7b04 	ldr.w	r7, [sp], #4
 8004d78:	4770      	bx	lr
 8004d7a:	0000      	movs	r0, r0
 8004d7c:	0000      	movs	r0, r0
	...

08004d80 <main>:
/**
  * @brief  The application entry point.
  * @retval int
  */
int main(void)
{
 8004d80:	b5b0      	push	{r4, r5, r7, lr}
 8004d82:	af00      	add	r7, sp, #0
  /* USER CODE END 1 */

  /* MCU Configuration--------------------------------------------------------*/

  /* Reset of all peripherals, Initializes the Flash interface and the Systick. */
  HAL_Init();
 8004d84:	f000 ff1a 	bl	8005bbc <HAL_Init>
  /* USER CODE BEGIN Init */

  /* USER CODE END Init */

  /* Configure the system clock */
  SystemClock_Config();
 8004d88:	f000 f97e 	bl	8005088 <SystemClock_Config>
  /* USER CODE BEGIN SysInit */

  /* USER CODE END SysInit */

  /* Initialize all configured peripherals */
  MX_GPIO_Init();
 8004d8c:	f7fe fb4c 	bl	8003428 <MX_GPIO_Init>
  MX_DMA_Init();
 8004d90:	f7fe fb12 	bl	80033b8 <MX_DMA_Init>
  MX_USART2_UART_Init();
 8004d94:	f000 fd62 	bl	800585c <MX_USART2_UART_Init>
  MX_ADC1_Init();
 8004d98:	f7fe fa40 	bl	800321c <MX_ADC1_Init>
  MX_TIM2_Init();
 8004d9c:	f000 fb02 	bl	80053a4 <MX_TIM2_Init>
  MX_TIM6_Init();
 8004da0:	f000 fb96 	bl	80054d0 <MX_TIM6_Init>
  MX_TIM7_Init();
 8004da4:	f000 fbca 	bl	800553c <MX_TIM7_Init>
  MX_TIM14_Init();
 8004da8:	f000 fbfe 	bl	80055a8 <MX_TIM14_Init>
  MX_UART4_Init();
 8004dac:	f000 fd2c 	bl	8005808 <MX_UART4_Init>
  MX_SPI2_Init();
 8004db0:	f000 f9da 	bl	8005168 <MX_SPI2_Init>
  /* USER CODE BEGIN 2 */
  icm20948_init();
 8004db4:	f7fd fdaa 	bl	800290c <icm20948_init>
  ak09916_init();
 8004db8:	f7fe fa04 	bl	80031c4 <ak09916_init>
  IMU_INIT();
 8004dbc:	f7fe fd0a 	bl	80037d4 <IMU_INIT>

  /* Infinite loop */
  /* USER CODE BEGIN WHILE */
  while (1)
  {
	  if (HAL_GetTick() - LastUpdateIMU > 100)
 8004dc0:	f000 ff62 	bl	8005c88 <HAL_GetTick>
 8004dc4:	4602      	mov	r2, r0
 8004dc6:	4b9a      	ldr	r3, [pc, #616]	; (8005030 <main+0x2b0>)
 8004dc8:	681b      	ldr	r3, [r3, #0]
 8004dca:	1ad3      	subs	r3, r2, r3
 8004dcc:	2b64      	cmp	r3, #100	; 0x64
 8004dce:	d906      	bls.n	8004dde <main+0x5e>
	  {
		  IMU_UPDATE();
 8004dd0:	f7fe fd44 	bl	800385c <IMU_UPDATE>
		  LastUpdateIMU = HAL_GetTick();
 8004dd4:	f000 ff58 	bl	8005c88 <HAL_GetTick>
 8004dd8:	4603      	mov	r3, r0
 8004dda:	4a95      	ldr	r2, [pc, #596]	; (8005030 <main+0x2b0>)
 8004ddc:	6013      	str	r3, [r2, #0]
	  }

	  if (HAL_GetTick() - PackageLastTimeReset_Motherboard > 100) // UART2 RECEIVE FEEDBACK
 8004dde:	f000 ff53 	bl	8005c88 <HAL_GetTick>
 8004de2:	4602      	mov	r2, r0
 8004de4:	4b93      	ldr	r3, [pc, #588]	; (8005034 <main+0x2b4>)
 8004de6:	681b      	ldr	r3, [r3, #0]
 8004de8:	1ad3      	subs	r3, r2, r3
 8004dea:	2b64      	cmp	r3, #100	; 0x64
 8004dec:	d90e      	bls.n	8004e0c <main+0x8c>
	  {
		  MX_USART2_UART_Init();
 8004dee:	f000 fd35 	bl	800585c <MX_USART2_UART_Init>
		  USART2ReceiveState = 0;
 8004df2:	4b91      	ldr	r3, [pc, #580]	; (8005038 <main+0x2b8>)
 8004df4:	2200      	movs	r2, #0
 8004df6:	701a      	strb	r2, [r3, #0]
		  HAL_UART_Receive_DMA(&huart2, (uint8_t*)SerialControlWheelsResponce.Buffer, WHEELS_RESPONCE_SIZE);
 8004df8:	2210      	movs	r2, #16
 8004dfa:	4990      	ldr	r1, [pc, #576]	; (800503c <main+0x2bc>)
 8004dfc:	4890      	ldr	r0, [pc, #576]	; (8005040 <main+0x2c0>)
 8004dfe:	f004 f939 	bl	8009074 <HAL_UART_Receive_DMA>
		  PackageLastTimeReset_Motherboard = HAL_GetTick();
 8004e02:	f000 ff41 	bl	8005c88 <HAL_GetTick>
 8004e06:	4603      	mov	r3, r0
 8004e08:	4a8a      	ldr	r2, [pc, #552]	; (8005034 <main+0x2b4>)
 8004e0a:	6013      	str	r3, [r2, #0]
	  }

	  if ((USART2ReceiveState == 10) && (SerialControlWheelsResponce.CR == 13) && (SerialControlWheelsResponce.LF == 10))
 8004e0c:	4b8a      	ldr	r3, [pc, #552]	; (8005038 <main+0x2b8>)
 8004e0e:	781b      	ldrb	r3, [r3, #0]
 8004e10:	b2db      	uxtb	r3, r3
 8004e12:	2b0a      	cmp	r3, #10
 8004e14:	f040 80f5 	bne.w	8005002 <main+0x282>
 8004e18:	4b88      	ldr	r3, [pc, #544]	; (800503c <main+0x2bc>)
 8004e1a:	7b9b      	ldrb	r3, [r3, #14]
 8004e1c:	2b0d      	cmp	r3, #13
 8004e1e:	f040 80f0 	bne.w	8005002 <main+0x282>
 8004e22:	4b86      	ldr	r3, [pc, #536]	; (800503c <main+0x2bc>)
 8004e24:	7bdb      	ldrb	r3, [r3, #15]
 8004e26:	2b0a      	cmp	r3, #10
 8004e28:	f040 80eb 	bne.w	8005002 <main+0x282>
	  {
		  USART2ReceiveState = 0;
 8004e2c:	4b82      	ldr	r3, [pc, #520]	; (8005038 <main+0x2b8>)
 8004e2e:	2200      	movs	r2, #0
 8004e30:	701a      	strb	r2, [r3, #0]
		  HAL_GPIO_TogglePin(GPIOD, GPIO_PIN_12);
 8004e32:	f44f 5180 	mov.w	r1, #4096	; 0x1000
 8004e36:	4883      	ldr	r0, [pc, #524]	; (8005044 <main+0x2c4>)
 8004e38:	f002 f881 	bl	8006f3e <HAL_GPIO_TogglePin>

		  if (HallActualize(SerialControlWheelsResponce.WheelLeftSteps, HallLeftStepPast, MOTHERBOARD_DIFF))
 8004e3c:	4b7f      	ldr	r3, [pc, #508]	; (800503c <main+0x2bc>)
 8004e3e:	f8d3 3006 	ldr.w	r3, [r3, #6]
 8004e42:	ee07 3a90 	vmov	s15, r3
 8004e46:	eef8 7ae7 	vcvt.f32.s32	s15, s15
 8004e4a:	4b7f      	ldr	r3, [pc, #508]	; (8005048 <main+0x2c8>)
 8004e4c:	ed93 7a00 	vldr	s14, [r3]
 8004e50:	ed9f 1a7e 	vldr	s2, [pc, #504]	; 800504c <main+0x2cc>
 8004e54:	eef0 0a47 	vmov.f32	s1, s14
 8004e58:	eeb0 0a67 	vmov.f32	s0, s15
 8004e5c:	f7fe fc86 	bl	800376c <HallActualize>
 8004e60:	4603      	mov	r3, r0
 8004e62:	2b00      	cmp	r3, #0
 8004e64:	d00e      	beq.n	8004e84 <main+0x104>
		  {
			  HallLeftStep = SerialControlWheelsResponce.WheelLeftSteps;
 8004e66:	4b75      	ldr	r3, [pc, #468]	; (800503c <main+0x2bc>)
 8004e68:	f8d3 3006 	ldr.w	r3, [r3, #6]
 8004e6c:	ee07 3a90 	vmov	s15, r3
 8004e70:	eef8 7ae7 	vcvt.f32.s32	s15, s15
 8004e74:	4b76      	ldr	r3, [pc, #472]	; (8005050 <main+0x2d0>)
 8004e76:	edc3 7a00 	vstr	s15, [r3]
			  HallLeftStepPast = HallLeftStep;
 8004e7a:	4b75      	ldr	r3, [pc, #468]	; (8005050 <main+0x2d0>)
 8004e7c:	681b      	ldr	r3, [r3, #0]
 8004e7e:	4a72      	ldr	r2, [pc, #456]	; (8005048 <main+0x2c8>)
 8004e80:	6013      	str	r3, [r2, #0]
 8004e82:	e003      	b.n	8004e8c <main+0x10c>
		  }
		  else
		  {
			  HallLeftStep = HallLeftStepPast;
 8004e84:	4b70      	ldr	r3, [pc, #448]	; (8005048 <main+0x2c8>)
 8004e86:	681b      	ldr	r3, [r3, #0]
 8004e88:	4a71      	ldr	r2, [pc, #452]	; (8005050 <main+0x2d0>)
 8004e8a:	6013      	str	r3, [r2, #0]
		  }

		  if (HallActualize(SerialControlWheelsResponce.WheelRightSteps, HallRightStepPast, MOTHERBOARD_DIFF))
 8004e8c:	4b6b      	ldr	r3, [pc, #428]	; (800503c <main+0x2bc>)
 8004e8e:	f8d3 300a 	ldr.w	r3, [r3, #10]
 8004e92:	ee07 3a90 	vmov	s15, r3
 8004e96:	eef8 7ae7 	vcvt.f32.s32	s15, s15
 8004e9a:	4b6e      	ldr	r3, [pc, #440]	; (8005054 <main+0x2d4>)
 8004e9c:	ed93 7a00 	vldr	s14, [r3]
 8004ea0:	ed9f 1a6a 	vldr	s2, [pc, #424]	; 800504c <main+0x2cc>
 8004ea4:	eef0 0a47 	vmov.f32	s1, s14
 8004ea8:	eeb0 0a67 	vmov.f32	s0, s15
 8004eac:	f7fe fc5e 	bl	800376c <HallActualize>
 8004eb0:	4603      	mov	r3, r0
 8004eb2:	2b00      	cmp	r3, #0
 8004eb4:	d00e      	beq.n	8004ed4 <main+0x154>
		  {
			  HallRightStep = SerialControlWheelsResponce.WheelRightSteps;
 8004eb6:	4b61      	ldr	r3, [pc, #388]	; (800503c <main+0x2bc>)
 8004eb8:	f8d3 300a 	ldr.w	r3, [r3, #10]
 8004ebc:	ee07 3a90 	vmov	s15, r3
 8004ec0:	eef8 7ae7 	vcvt.f32.s32	s15, s15
 8004ec4:	4b64      	ldr	r3, [pc, #400]	; (8005058 <main+0x2d8>)
 8004ec6:	edc3 7a00 	vstr	s15, [r3]
			  HallRightStepPast = HallRightStep;
 8004eca:	4b63      	ldr	r3, [pc, #396]	; (8005058 <main+0x2d8>)
 8004ecc:	681b      	ldr	r3, [r3, #0]
 8004ece:	4a61      	ldr	r2, [pc, #388]	; (8005054 <main+0x2d4>)
 8004ed0:	6013      	str	r3, [r2, #0]
 8004ed2:	e003      	b.n	8004edc <main+0x15c>
		  }
		  else
		  {
			  HallRightStep = HallRightStepPast;
 8004ed4:	4b5f      	ldr	r3, [pc, #380]	; (8005054 <main+0x2d4>)
 8004ed6:	681b      	ldr	r3, [r3, #0]
 8004ed8:	4a5f      	ldr	r2, [pc, #380]	; (8005058 <main+0x2d8>)
 8004eda:	6013      	str	r3, [r2, #0]
		  }

		  PackageLastTimeReset_Motherboard = HAL_GetTick();
 8004edc:	f000 fed4 	bl	8005c88 <HAL_GetTick>
 8004ee0:	4603      	mov	r3, r0
 8004ee2:	4a54      	ldr	r2, [pc, #336]	; (8005034 <main+0x2b4>)
 8004ee4:	6013      	str	r3, [r2, #0]

		  switch (SerialControlWheelsResponce.ParameterNumber)
 8004ee6:	4b55      	ldr	r3, [pc, #340]	; (800503c <main+0x2bc>)
 8004ee8:	785b      	ldrb	r3, [r3, #1]
 8004eea:	2b07      	cmp	r3, #7
 8004eec:	f200 808a 	bhi.w	8005004 <main+0x284>
 8004ef0:	a201      	add	r2, pc, #4	; (adr r2, 8004ef8 <main+0x178>)
 8004ef2:	f852 f023 	ldr.w	pc, [r2, r3, lsl #2]
 8004ef6:	bf00      	nop
 8004ef8:	08004f19 	.word	0x08004f19
 8004efc:	08004faf 	.word	0x08004faf
 8004f00:	08004fbb 	.word	0x08004fbb
 8004f04:	08004fc7 	.word	0x08004fc7
 8004f08:	08004fd3 	.word	0x08004fd3
 8004f0c:	08004fdf 	.word	0x08004fdf
 8004f10:	08004feb 	.word	0x08004feb
 8004f14:	08004ff7 	.word	0x08004ff7
		  {
		  case 0:
			  Voltage = SerialControlWheelsResponce.ParameterValue;
 8004f18:	4b48      	ldr	r3, [pc, #288]	; (800503c <main+0x2bc>)
 8004f1a:	f8d3 3002 	ldr.w	r3, [r3, #2]
 8004f1e:	4a4f      	ldr	r2, [pc, #316]	; (800505c <main+0x2dc>)
 8004f20:	6013      	str	r3, [r2, #0]
			  Battery += ((Interpolation(Voltage, 28, 41) * 100.0) - Battery) * 0.01;
 8004f22:	4b4e      	ldr	r3, [pc, #312]	; (800505c <main+0x2dc>)
 8004f24:	edd3 7a00 	vldr	s15, [r3]
 8004f28:	ed9f 1a4d 	vldr	s2, [pc, #308]	; 8005060 <main+0x2e0>
 8004f2c:	eef3 0a0c 	vmov.f32	s1, #60	; 0x41e00000  28.0
 8004f30:	eeb0 0a67 	vmov.f32	s0, s15
 8004f34:	f7ff fee8 	bl	8004d08 <Interpolation>
 8004f38:	ee10 3a10 	vmov	r3, s0
 8004f3c:	4618      	mov	r0, r3
 8004f3e:	f7fb faa7 	bl	8000490 <__aeabi_f2d>
 8004f42:	f04f 0200 	mov.w	r2, #0
 8004f46:	4b47      	ldr	r3, [pc, #284]	; (8005064 <main+0x2e4>)
 8004f48:	f7fb fafa 	bl	8000540 <__aeabi_dmul>
 8004f4c:	4602      	mov	r2, r0
 8004f4e:	460b      	mov	r3, r1
 8004f50:	4614      	mov	r4, r2
 8004f52:	461d      	mov	r5, r3
 8004f54:	4b44      	ldr	r3, [pc, #272]	; (8005068 <main+0x2e8>)
 8004f56:	681b      	ldr	r3, [r3, #0]
 8004f58:	4618      	mov	r0, r3
 8004f5a:	f7fb fa99 	bl	8000490 <__aeabi_f2d>
 8004f5e:	4602      	mov	r2, r0
 8004f60:	460b      	mov	r3, r1
 8004f62:	4620      	mov	r0, r4
 8004f64:	4629      	mov	r1, r5
 8004f66:	f7fb f933 	bl	80001d0 <__aeabi_dsub>
 8004f6a:	4602      	mov	r2, r0
 8004f6c:	460b      	mov	r3, r1
 8004f6e:	4610      	mov	r0, r2
 8004f70:	4619      	mov	r1, r3
 8004f72:	a32d      	add	r3, pc, #180	; (adr r3, 8005028 <main+0x2a8>)
 8004f74:	e9d3 2300 	ldrd	r2, r3, [r3]
 8004f78:	f7fb fae2 	bl	8000540 <__aeabi_dmul>
 8004f7c:	4602      	mov	r2, r0
 8004f7e:	460b      	mov	r3, r1
 8004f80:	4614      	mov	r4, r2
 8004f82:	461d      	mov	r5, r3
 8004f84:	4b38      	ldr	r3, [pc, #224]	; (8005068 <main+0x2e8>)
 8004f86:	681b      	ldr	r3, [r3, #0]
 8004f88:	4618      	mov	r0, r3
 8004f8a:	f7fb fa81 	bl	8000490 <__aeabi_f2d>
 8004f8e:	4602      	mov	r2, r0
 8004f90:	460b      	mov	r3, r1
 8004f92:	4620      	mov	r0, r4
 8004f94:	4629      	mov	r1, r5
 8004f96:	f7fb f91d 	bl	80001d4 <__adddf3>
 8004f9a:	4602      	mov	r2, r0
 8004f9c:	460b      	mov	r3, r1
 8004f9e:	4610      	mov	r0, r2
 8004fa0:	4619      	mov	r1, r3
 8004fa2:	f7fb fd8f 	bl	8000ac4 <__aeabi_d2f>
 8004fa6:	4603      	mov	r3, r0
 8004fa8:	4a2f      	ldr	r2, [pc, #188]	; (8005068 <main+0x2e8>)
 8004faa:	6013      	str	r3, [r2, #0]
			  break;
 8004fac:	e02a      	b.n	8005004 <main+0x284>
		  case 1:
			  CurrentLeft = SerialControlWheelsResponce.ParameterValue;
 8004fae:	4b23      	ldr	r3, [pc, #140]	; (800503c <main+0x2bc>)
 8004fb0:	f8d3 3002 	ldr.w	r3, [r3, #2]
 8004fb4:	4a2d      	ldr	r2, [pc, #180]	; (800506c <main+0x2ec>)
 8004fb6:	6013      	str	r3, [r2, #0]
		      break;
 8004fb8:	e024      	b.n	8005004 <main+0x284>
		  case 2:
		      CurrentRight = SerialControlWheelsResponce.ParameterValue;
 8004fba:	4b20      	ldr	r3, [pc, #128]	; (800503c <main+0x2bc>)
 8004fbc:	f8d3 3002 	ldr.w	r3, [r3, #2]
 8004fc0:	4a2b      	ldr	r2, [pc, #172]	; (8005070 <main+0x2f0>)
 8004fc2:	6013      	str	r3, [r2, #0]
		      break;
 8004fc4:	e01e      	b.n	8005004 <main+0x284>
		  case 3:
		      RPSLeft = SerialControlWheelsResponce.ParameterValue;
 8004fc6:	4b1d      	ldr	r3, [pc, #116]	; (800503c <main+0x2bc>)
 8004fc8:	f8d3 3002 	ldr.w	r3, [r3, #2]
 8004fcc:	4a29      	ldr	r2, [pc, #164]	; (8005074 <main+0x2f4>)
 8004fce:	6013      	str	r3, [r2, #0]
		      break;
 8004fd0:	e018      	b.n	8005004 <main+0x284>
		  case 4:
		      RPSRight = SerialControlWheelsResponce.ParameterValue;
 8004fd2:	4b1a      	ldr	r3, [pc, #104]	; (800503c <main+0x2bc>)
 8004fd4:	f8d3 3002 	ldr.w	r3, [r3, #2]
 8004fd8:	4a27      	ldr	r2, [pc, #156]	; (8005078 <main+0x2f8>)
 8004fda:	6013      	str	r3, [r2, #0]
		      break;
 8004fdc:	e012      	b.n	8005004 <main+0x284>
		  case 5:
		      OverCurrCount = SerialControlWheelsResponce.ParameterValue;
 8004fde:	4b17      	ldr	r3, [pc, #92]	; (800503c <main+0x2bc>)
 8004fe0:	f8d3 3002 	ldr.w	r3, [r3, #2]
 8004fe4:	4a25      	ldr	r2, [pc, #148]	; (800507c <main+0x2fc>)
 8004fe6:	6013      	str	r3, [r2, #0]
		      break;
 8004fe8:	e00c      	b.n	8005004 <main+0x284>
		  case 6:
		      ConnErrCount = SerialControlWheelsResponce.ParameterValue;
 8004fea:	4b14      	ldr	r3, [pc, #80]	; (800503c <main+0x2bc>)
 8004fec:	f8d3 3002 	ldr.w	r3, [r3, #2]
 8004ff0:	4a23      	ldr	r2, [pc, #140]	; (8005080 <main+0x300>)
 8004ff2:	6013      	str	r3, [r2, #0]
		      break;
 8004ff4:	e006      	b.n	8005004 <main+0x284>
		  case 7:
		      CommTime = SerialControlWheelsResponce.ParameterValue;
 8004ff6:	4b11      	ldr	r3, [pc, #68]	; (800503c <main+0x2bc>)
 8004ff8:	f8d3 3002 	ldr.w	r3, [r3, #2]
 8004ffc:	4a21      	ldr	r2, [pc, #132]	; (8005084 <main+0x304>)
 8004ffe:	6013      	str	r3, [r2, #0]
		      break;
 8005000:	e000      	b.n	8005004 <main+0x284>
		  }
	  }
 8005002:	bf00      	nop
 		  HAL_UART_Transmit_DMA(&huart4, (uint8_t*)SerialOnBoardResponce.Buffer, ON_BOARD_CONTROL_RESPONCE_SIZE);

		  PackageLastTimeReset_OnBoardPC = HAL_GetTick();
	  }*/

	  BALANCE_Prepare();
 8005004:	f7ff f86c 	bl	80040e0 <BALANCE_Prepare>
	  BALANCE_Calculate_Speeds();
 8005008:	f7ff f976 	bl	80042f8 <BALANCE_Calculate_Speeds>
	  BALANCE_Speed_LinearControl();
 800500c:	f7ff faa4 	bl	8004558 <BALANCE_Speed_LinearControl>
	  BALANCE_Position_Angular_Control();
 8005010:	f7ff fc52 	bl	80048b8 <BALANCE_Position_Angular_Control>
	  BALANCE_LOOP();
 8005014:	f7ff fcf8 	bl	8004a08 <BALANCE_LOOP>
	  BALANCE_Result_Loop();
 8005018:	f7ff fdb2 	bl	8004b80 <BALANCE_Result_Loop>

	  SERIAL_CONTROL_LOOP();
 800501c:	f7ff f83c 	bl	8004098 <SERIAL_CONTROL_LOOP>
	  if (HAL_GetTick() - LastUpdateIMU > 100)
 8005020:	e6ce      	b.n	8004dc0 <main+0x40>
 8005022:	bf00      	nop
 8005024:	f3af 8000 	nop.w
 8005028:	47ae147b 	.word	0x47ae147b
 800502c:	3f847ae1 	.word	0x3f847ae1
 8005030:	20000184 	.word	0x20000184
 8005034:	20000294 	.word	0x20000294
 8005038:	200000cb 	.word	0x200000cb
 800503c:	2000018c 	.word	0x2000018c
 8005040:	200005f8 	.word	0x200005f8
 8005044:	40020c00 	.word	0x40020c00
 8005048:	200000f4 	.word	0x200000f4
 800504c:	42c80000 	.word	0x42c80000
 8005050:	20000188 	.word	0x20000188
 8005054:	200000f8 	.word	0x200000f8
 8005058:	20000264 	.word	0x20000264
 800505c:	200001b8 	.word	0x200001b8
 8005060:	42240000 	.word	0x42240000
 8005064:	40590000 	.word	0x40590000
 8005068:	20000230 	.word	0x20000230
 800506c:	20000164 	.word	0x20000164
 8005070:	2000022c 	.word	0x2000022c
 8005074:	200002c8 	.word	0x200002c8
 8005078:	20000298 	.word	0x20000298
 800507c:	20000174 	.word	0x20000174
 8005080:	20000290 	.word	0x20000290
 8005084:	200002cc 	.word	0x200002cc

08005088 <SystemClock_Config>:
/**
  * @brief System Clock Configuration
  * @retval None
  */
void SystemClock_Config(void)
{
 8005088:	b580      	push	{r7, lr}
 800508a:	b094      	sub	sp, #80	; 0x50
 800508c:	af00      	add	r7, sp, #0
  RCC_OscInitTypeDef RCC_OscInitStruct = {0};
 800508e:	f107 0320 	add.w	r3, r7, #32
 8005092:	2230      	movs	r2, #48	; 0x30
 8005094:	2100      	movs	r1, #0
 8005096:	4618      	mov	r0, r3
 8005098:	f006 f8ea 	bl	800b270 <memset>
  RCC_ClkInitTypeDef RCC_ClkInitStruct = {0};
 800509c:	f107 030c 	add.w	r3, r7, #12
 80050a0:	2200      	movs	r2, #0
 80050a2:	601a      	str	r2, [r3, #0]
 80050a4:	605a      	str	r2, [r3, #4]
 80050a6:	609a      	str	r2, [r3, #8]
 80050a8:	60da      	str	r2, [r3, #12]
 80050aa:	611a      	str	r2, [r3, #16]

  /** Configure the main internal regulator output voltage
  */
  __HAL_RCC_PWR_CLK_ENABLE();
 80050ac:	2300      	movs	r3, #0
 80050ae:	60bb      	str	r3, [r7, #8]
 80050b0:	4b28      	ldr	r3, [pc, #160]	; (8005154 <SystemClock_Config+0xcc>)
 80050b2:	6c1b      	ldr	r3, [r3, #64]	; 0x40
 80050b4:	4a27      	ldr	r2, [pc, #156]	; (8005154 <SystemClock_Config+0xcc>)
 80050b6:	f043 5380 	orr.w	r3, r3, #268435456	; 0x10000000
 80050ba:	6413      	str	r3, [r2, #64]	; 0x40
 80050bc:	4b25      	ldr	r3, [pc, #148]	; (8005154 <SystemClock_Config+0xcc>)
 80050be:	6c1b      	ldr	r3, [r3, #64]	; 0x40
 80050c0:	f003 5380 	and.w	r3, r3, #268435456	; 0x10000000
 80050c4:	60bb      	str	r3, [r7, #8]
 80050c6:	68bb      	ldr	r3, [r7, #8]
  __HAL_PWR_VOLTAGESCALING_CONFIG(PWR_REGULATOR_VOLTAGE_SCALE1);
 80050c8:	2300      	movs	r3, #0
 80050ca:	607b      	str	r3, [r7, #4]
 80050cc:	4b22      	ldr	r3, [pc, #136]	; (8005158 <SystemClock_Config+0xd0>)
 80050ce:	681b      	ldr	r3, [r3, #0]
 80050d0:	4a21      	ldr	r2, [pc, #132]	; (8005158 <SystemClock_Config+0xd0>)
 80050d2:	f443 4380 	orr.w	r3, r3, #16384	; 0x4000
 80050d6:	6013      	str	r3, [r2, #0]
 80050d8:	4b1f      	ldr	r3, [pc, #124]	; (8005158 <SystemClock_Config+0xd0>)
 80050da:	681b      	ldr	r3, [r3, #0]
 80050dc:	f403 4380 	and.w	r3, r3, #16384	; 0x4000
 80050e0:	607b      	str	r3, [r7, #4]
 80050e2:	687b      	ldr	r3, [r7, #4]
  /** Initializes the RCC Oscillators according to the specified parameters
  * in the RCC_OscInitTypeDef structure.
  */
  RCC_OscInitStruct.OscillatorType = RCC_OSCILLATORTYPE_HSE;
 80050e4:	2301      	movs	r3, #1
 80050e6:	623b      	str	r3, [r7, #32]
  RCC_OscInitStruct.HSEState = RCC_HSE_ON;
 80050e8:	f44f 3380 	mov.w	r3, #65536	; 0x10000
 80050ec:	627b      	str	r3, [r7, #36]	; 0x24
  RCC_OscInitStruct.PLL.PLLState = RCC_PLL_ON;
 80050ee:	2302      	movs	r3, #2
 80050f0:	63bb      	str	r3, [r7, #56]	; 0x38
  RCC_OscInitStruct.PLL.PLLSource = RCC_PLLSOURCE_HSE;
 80050f2:	f44f 0380 	mov.w	r3, #4194304	; 0x400000
 80050f6:	63fb      	str	r3, [r7, #60]	; 0x3c
  RCC_OscInitStruct.PLL.PLLM = 4;
 80050f8:	2304      	movs	r3, #4
 80050fa:	643b      	str	r3, [r7, #64]	; 0x40
  RCC_OscInitStruct.PLL.PLLN = 168;
 80050fc:	23a8      	movs	r3, #168	; 0xa8
 80050fe:	647b      	str	r3, [r7, #68]	; 0x44
  RCC_OscInitStruct.PLL.PLLP = RCC_PLLP_DIV2;
 8005100:	2302      	movs	r3, #2
 8005102:	64bb      	str	r3, [r7, #72]	; 0x48
  RCC_OscInitStruct.PLL.PLLQ = 4;
 8005104:	2304      	movs	r3, #4
 8005106:	64fb      	str	r3, [r7, #76]	; 0x4c
  if (HAL_RCC_OscConfig(&RCC_OscInitStruct) != HAL_OK)
 8005108:	f107 0320 	add.w	r3, r7, #32
 800510c:	4618      	mov	r0, r3
 800510e:	f001 ff31 	bl	8006f74 <HAL_RCC_OscConfig>
 8005112:	4603      	mov	r3, r0
 8005114:	2b00      	cmp	r3, #0
 8005116:	d001      	beq.n	800511c <SystemClock_Config+0x94>
  {
    Error_Handler();
 8005118:	f000 f820 	bl	800515c <Error_Handler>
  }
  /** Initializes the CPU, AHB and APB buses clocks
  */
  RCC_ClkInitStruct.ClockType = RCC_CLOCKTYPE_HCLK|RCC_CLOCKTYPE_SYSCLK
 800511c:	230f      	movs	r3, #15
 800511e:	60fb      	str	r3, [r7, #12]
                              |RCC_CLOCKTYPE_PCLK1|RCC_CLOCKTYPE_PCLK2;
  RCC_ClkInitStruct.SYSCLKSource = RCC_SYSCLKSOURCE_PLLCLK;
 8005120:	2302      	movs	r3, #2
 8005122:	613b      	str	r3, [r7, #16]
  RCC_ClkInitStruct.AHBCLKDivider = RCC_SYSCLK_DIV1;
 8005124:	2300      	movs	r3, #0
 8005126:	617b      	str	r3, [r7, #20]
  RCC_ClkInitStruct.APB1CLKDivider = RCC_HCLK_DIV4;
 8005128:	f44f 53a0 	mov.w	r3, #5120	; 0x1400
 800512c:	61bb      	str	r3, [r7, #24]
  RCC_ClkInitStruct.APB2CLKDivider = RCC_HCLK_DIV2;
 800512e:	f44f 5380 	mov.w	r3, #4096	; 0x1000
 8005132:	61fb      	str	r3, [r7, #28]

  if (HAL_RCC_ClockConfig(&RCC_ClkInitStruct, FLASH_LATENCY_5) != HAL_OK)
 8005134:	f107 030c 	add.w	r3, r7, #12
 8005138:	2105      	movs	r1, #5
 800513a:	4618      	mov	r0, r3
 800513c:	f002 f992 	bl	8007464 <HAL_RCC_ClockConfig>
 8005140:	4603      	mov	r3, r0
 8005142:	2b00      	cmp	r3, #0
 8005144:	d001      	beq.n	800514a <SystemClock_Config+0xc2>
  {
    Error_Handler();
 8005146:	f000 f809 	bl	800515c <Error_Handler>
  }
}
 800514a:	bf00      	nop
 800514c:	3750      	adds	r7, #80	; 0x50
 800514e:	46bd      	mov	sp, r7
 8005150:	bd80      	pop	{r7, pc}
 8005152:	bf00      	nop
 8005154:	40023800 	.word	0x40023800
 8005158:	40007000 	.word	0x40007000

0800515c <Error_Handler>:
/**
  * @brief  This function is executed in case of error occurrence.
  * @retval None
  */
void Error_Handler(void)
{
 800515c:	b480      	push	{r7}
 800515e:	af00      	add	r7, sp, #0
  \details Disables IRQ interrupts by setting the I-bit in the CPSR.
           Can only be executed in Privileged modes.
 */
__STATIC_FORCEINLINE void __disable_irq(void)
{
  __ASM volatile ("cpsid i" : : : "memory");
 8005160:	b672      	cpsid	i
}
 8005162:	bf00      	nop
  /* USER CODE BEGIN Error_Handler_Debug */
  /* User can add his own implementation to report the HAL error return state */
  __disable_irq();
  while (1)
 8005164:	e7fe      	b.n	8005164 <Error_Handler+0x8>
	...

08005168 <MX_SPI2_Init>:

SPI_HandleTypeDef hspi2;

/* SPI2 init function */
void MX_SPI2_Init(void)
{
 8005168:	b580      	push	{r7, lr}
 800516a:	af00      	add	r7, sp, #0
  /* USER CODE END SPI2_Init 0 */

  /* USER CODE BEGIN SPI2_Init 1 */

  /* USER CODE END SPI2_Init 1 */
  hspi2.Instance = SPI2;
 800516c:	4b17      	ldr	r3, [pc, #92]	; (80051cc <MX_SPI2_Init+0x64>)
 800516e:	4a18      	ldr	r2, [pc, #96]	; (80051d0 <MX_SPI2_Init+0x68>)
 8005170:	601a      	str	r2, [r3, #0]
  hspi2.Init.Mode = SPI_MODE_MASTER;
 8005172:	4b16      	ldr	r3, [pc, #88]	; (80051cc <MX_SPI2_Init+0x64>)
 8005174:	f44f 7282 	mov.w	r2, #260	; 0x104
 8005178:	605a      	str	r2, [r3, #4]
  hspi2.Init.Direction = SPI_DIRECTION_2LINES;
 800517a:	4b14      	ldr	r3, [pc, #80]	; (80051cc <MX_SPI2_Init+0x64>)
 800517c:	2200      	movs	r2, #0
 800517e:	609a      	str	r2, [r3, #8]
  hspi2.Init.DataSize = SPI_DATASIZE_8BIT;
 8005180:	4b12      	ldr	r3, [pc, #72]	; (80051cc <MX_SPI2_Init+0x64>)
 8005182:	2200      	movs	r2, #0
 8005184:	60da      	str	r2, [r3, #12]
  hspi2.Init.CLKPolarity = SPI_POLARITY_HIGH;
 8005186:	4b11      	ldr	r3, [pc, #68]	; (80051cc <MX_SPI2_Init+0x64>)
 8005188:	2202      	movs	r2, #2
 800518a:	611a      	str	r2, [r3, #16]
  hspi2.Init.CLKPhase = SPI_PHASE_2EDGE;
 800518c:	4b0f      	ldr	r3, [pc, #60]	; (80051cc <MX_SPI2_Init+0x64>)
 800518e:	2201      	movs	r2, #1
 8005190:	615a      	str	r2, [r3, #20]
  hspi2.Init.NSS = SPI_NSS_SOFT;
 8005192:	4b0e      	ldr	r3, [pc, #56]	; (80051cc <MX_SPI2_Init+0x64>)
 8005194:	f44f 7200 	mov.w	r2, #512	; 0x200
 8005198:	619a      	str	r2, [r3, #24]
  hspi2.Init.BaudRatePrescaler = SPI_BAUDRATEPRESCALER_8;
 800519a:	4b0c      	ldr	r3, [pc, #48]	; (80051cc <MX_SPI2_Init+0x64>)
 800519c:	2210      	movs	r2, #16
 800519e:	61da      	str	r2, [r3, #28]
  hspi2.Init.FirstBit = SPI_FIRSTBIT_MSB;
 80051a0:	4b0a      	ldr	r3, [pc, #40]	; (80051cc <MX_SPI2_Init+0x64>)
 80051a2:	2200      	movs	r2, #0
 80051a4:	621a      	str	r2, [r3, #32]
  hspi2.Init.TIMode = SPI_TIMODE_DISABLE;
 80051a6:	4b09      	ldr	r3, [pc, #36]	; (80051cc <MX_SPI2_Init+0x64>)
 80051a8:	2200      	movs	r2, #0
 80051aa:	625a      	str	r2, [r3, #36]	; 0x24
  hspi2.Init.CRCCalculation = SPI_CRCCALCULATION_DISABLE;
 80051ac:	4b07      	ldr	r3, [pc, #28]	; (80051cc <MX_SPI2_Init+0x64>)
 80051ae:	2200      	movs	r2, #0
 80051b0:	629a      	str	r2, [r3, #40]	; 0x28
  hspi2.Init.CRCPolynomial = 10;
 80051b2:	4b06      	ldr	r3, [pc, #24]	; (80051cc <MX_SPI2_Init+0x64>)
 80051b4:	220a      	movs	r2, #10
 80051b6:	62da      	str	r2, [r3, #44]	; 0x2c
  if (HAL_SPI_Init(&hspi2) != HAL_OK)
 80051b8:	4804      	ldr	r0, [pc, #16]	; (80051cc <MX_SPI2_Init+0x64>)
 80051ba:	f002 fb4f 	bl	800785c <HAL_SPI_Init>
 80051be:	4603      	mov	r3, r0
 80051c0:	2b00      	cmp	r3, #0
 80051c2:	d001      	beq.n	80051c8 <MX_SPI2_Init+0x60>
  {
    Error_Handler();
 80051c4:	f7ff ffca 	bl	800515c <Error_Handler>
  }
  /* USER CODE BEGIN SPI2_Init 2 */

  /* USER CODE END SPI2_Init 2 */

}
 80051c8:	bf00      	nop
 80051ca:	bd80      	pop	{r7, pc}
 80051cc:	2000031c 	.word	0x2000031c
 80051d0:	40003800 	.word	0x40003800

080051d4 <HAL_SPI_MspInit>:

void HAL_SPI_MspInit(SPI_HandleTypeDef* spiHandle)
{
 80051d4:	b580      	push	{r7, lr}
 80051d6:	b08a      	sub	sp, #40	; 0x28
 80051d8:	af00      	add	r7, sp, #0
 80051da:	6078      	str	r0, [r7, #4]

  GPIO_InitTypeDef GPIO_InitStruct = {0};
 80051dc:	f107 0314 	add.w	r3, r7, #20
 80051e0:	2200      	movs	r2, #0
 80051e2:	601a      	str	r2, [r3, #0]
 80051e4:	605a      	str	r2, [r3, #4]
 80051e6:	609a      	str	r2, [r3, #8]
 80051e8:	60da      	str	r2, [r3, #12]
 80051ea:	611a      	str	r2, [r3, #16]
  if(spiHandle->Instance==SPI2)
 80051ec:	687b      	ldr	r3, [r7, #4]
 80051ee:	681b      	ldr	r3, [r3, #0]
 80051f0:	4a19      	ldr	r2, [pc, #100]	; (8005258 <HAL_SPI_MspInit+0x84>)
 80051f2:	4293      	cmp	r3, r2
 80051f4:	d12c      	bne.n	8005250 <HAL_SPI_MspInit+0x7c>
  {
  /* USER CODE BEGIN SPI2_MspInit 0 */

  /* USER CODE END SPI2_MspInit 0 */
    /* SPI2 clock enable */
    __HAL_RCC_SPI2_CLK_ENABLE();
 80051f6:	2300      	movs	r3, #0
 80051f8:	613b      	str	r3, [r7, #16]
 80051fa:	4b18      	ldr	r3, [pc, #96]	; (800525c <HAL_SPI_MspInit+0x88>)
 80051fc:	6c1b      	ldr	r3, [r3, #64]	; 0x40
 80051fe:	4a17      	ldr	r2, [pc, #92]	; (800525c <HAL_SPI_MspInit+0x88>)
 8005200:	f443 4380 	orr.w	r3, r3, #16384	; 0x4000
 8005204:	6413      	str	r3, [r2, #64]	; 0x40
 8005206:	4b15      	ldr	r3, [pc, #84]	; (800525c <HAL_SPI_MspInit+0x88>)
 8005208:	6c1b      	ldr	r3, [r3, #64]	; 0x40
 800520a:	f403 4380 	and.w	r3, r3, #16384	; 0x4000
 800520e:	613b      	str	r3, [r7, #16]
 8005210:	693b      	ldr	r3, [r7, #16]

    __HAL_RCC_GPIOB_CLK_ENABLE();
 8005212:	2300      	movs	r3, #0
 8005214:	60fb      	str	r3, [r7, #12]
 8005216:	4b11      	ldr	r3, [pc, #68]	; (800525c <HAL_SPI_MspInit+0x88>)
 8005218:	6b1b      	ldr	r3, [r3, #48]	; 0x30
 800521a:	4a10      	ldr	r2, [pc, #64]	; (800525c <HAL_SPI_MspInit+0x88>)
 800521c:	f043 0302 	orr.w	r3, r3, #2
 8005220:	6313      	str	r3, [r2, #48]	; 0x30
 8005222:	4b0e      	ldr	r3, [pc, #56]	; (800525c <HAL_SPI_MspInit+0x88>)
 8005224:	6b1b      	ldr	r3, [r3, #48]	; 0x30
 8005226:	f003 0302 	and.w	r3, r3, #2
 800522a:	60fb      	str	r3, [r7, #12]
 800522c:	68fb      	ldr	r3, [r7, #12]
    /**SPI2 GPIO Configuration
    PB13     ------> SPI2_SCK
    PB14     ------> SPI2_MISO
    PB15     ------> SPI2_MOSI
    */
    GPIO_InitStruct.Pin = ICM20948_SCK_Pin|ICM20948_MISO_Pin|ICM20948_MOSI_Pin;
 800522e:	f44f 4360 	mov.w	r3, #57344	; 0xe000
 8005232:	617b      	str	r3, [r7, #20]
    GPIO_InitStruct.Mode = GPIO_MODE_AF_PP;
 8005234:	2302      	movs	r3, #2
 8005236:	61bb      	str	r3, [r7, #24]
    GPIO_InitStruct.Pull = GPIO_NOPULL;
 8005238:	2300      	movs	r3, #0
 800523a:	61fb      	str	r3, [r7, #28]
    GPIO_InitStruct.Speed = GPIO_SPEED_FREQ_VERY_HIGH;
 800523c:	2303      	movs	r3, #3
 800523e:	623b      	str	r3, [r7, #32]
    GPIO_InitStruct.Alternate = GPIO_AF5_SPI2;
 8005240:	2305      	movs	r3, #5
 8005242:	627b      	str	r3, [r7, #36]	; 0x24
    HAL_GPIO_Init(GPIOB, &GPIO_InitStruct);
 8005244:	f107 0314 	add.w	r3, r7, #20
 8005248:	4619      	mov	r1, r3
 800524a:	4805      	ldr	r0, [pc, #20]	; (8005260 <HAL_SPI_MspInit+0x8c>)
 800524c:	f001 fcc2 	bl	8006bd4 <HAL_GPIO_Init>

  /* USER CODE BEGIN SPI2_MspInit 1 */

  /* USER CODE END SPI2_MspInit 1 */
  }
}
 8005250:	bf00      	nop
 8005252:	3728      	adds	r7, #40	; 0x28
 8005254:	46bd      	mov	sp, r7
 8005256:	bd80      	pop	{r7, pc}
 8005258:	40003800 	.word	0x40003800
 800525c:	40023800 	.word	0x40023800
 8005260:	40020400 	.word	0x40020400

08005264 <HAL_MspInit>:
/* USER CODE END 0 */
/**
  * Initializes the Global MSP.
  */
void HAL_MspInit(void)
{
 8005264:	b480      	push	{r7}
 8005266:	b083      	sub	sp, #12
 8005268:	af00      	add	r7, sp, #0
  /* USER CODE BEGIN MspInit 0 */

  /* USER CODE END MspInit 0 */

  __HAL_RCC_SYSCFG_CLK_ENABLE();
 800526a:	2300      	movs	r3, #0
 800526c:	607b      	str	r3, [r7, #4]
 800526e:	4b10      	ldr	r3, [pc, #64]	; (80052b0 <HAL_MspInit+0x4c>)
 8005270:	6c5b      	ldr	r3, [r3, #68]	; 0x44
 8005272:	4a0f      	ldr	r2, [pc, #60]	; (80052b0 <HAL_MspInit+0x4c>)
 8005274:	f443 4380 	orr.w	r3, r3, #16384	; 0x4000
 8005278:	6453      	str	r3, [r2, #68]	; 0x44
 800527a:	4b0d      	ldr	r3, [pc, #52]	; (80052b0 <HAL_MspInit+0x4c>)
 800527c:	6c5b      	ldr	r3, [r3, #68]	; 0x44
 800527e:	f403 4380 	and.w	r3, r3, #16384	; 0x4000
 8005282:	607b      	str	r3, [r7, #4]
 8005284:	687b      	ldr	r3, [r7, #4]
  __HAL_RCC_PWR_CLK_ENABLE();
 8005286:	2300      	movs	r3, #0
 8005288:	603b      	str	r3, [r7, #0]
 800528a:	4b09      	ldr	r3, [pc, #36]	; (80052b0 <HAL_MspInit+0x4c>)
 800528c:	6c1b      	ldr	r3, [r3, #64]	; 0x40
 800528e:	4a08      	ldr	r2, [pc, #32]	; (80052b0 <HAL_MspInit+0x4c>)
 8005290:	f043 5380 	orr.w	r3, r3, #268435456	; 0x10000000
 8005294:	6413      	str	r3, [r2, #64]	; 0x40
 8005296:	4b06      	ldr	r3, [pc, #24]	; (80052b0 <HAL_MspInit+0x4c>)
 8005298:	6c1b      	ldr	r3, [r3, #64]	; 0x40
 800529a:	f003 5380 	and.w	r3, r3, #268435456	; 0x10000000
 800529e:	603b      	str	r3, [r7, #0]
 80052a0:	683b      	ldr	r3, [r7, #0]
  /* System interrupt init*/

  /* USER CODE BEGIN MspInit 1 */

  /* USER CODE END MspInit 1 */
}
 80052a2:	bf00      	nop
 80052a4:	370c      	adds	r7, #12
 80052a6:	46bd      	mov	sp, r7
 80052a8:	f85d 7b04 	ldr.w	r7, [sp], #4
 80052ac:	4770      	bx	lr
 80052ae:	bf00      	nop
 80052b0:	40023800 	.word	0x40023800

080052b4 <NMI_Handler>:
/******************************************************************************/
/**
  * @brief This function handles Non maskable interrupt.
  */
void NMI_Handler(void)
{
 80052b4:	b480      	push	{r7}
 80052b6:	af00      	add	r7, sp, #0
  /* USER CODE BEGIN NonMaskableInt_IRQn 0 */

  /* USER CODE END NonMaskableInt_IRQn 0 */
  /* USER CODE BEGIN NonMaskableInt_IRQn 1 */
  while (1)
 80052b8:	e7fe      	b.n	80052b8 <NMI_Handler+0x4>

080052ba <HardFault_Handler>:

/**
  * @brief This function handles Hard fault interrupt.
  */
void HardFault_Handler(void)
{
 80052ba:	b480      	push	{r7}
 80052bc:	af00      	add	r7, sp, #0
  /* USER CODE BEGIN HardFault_IRQn 0 */

  /* USER CODE END HardFault_IRQn 0 */
  while (1)
 80052be:	e7fe      	b.n	80052be <HardFault_Handler+0x4>

080052c0 <MemManage_Handler>:

/**
  * @brief This function handles Memory management fault.
  */
void MemManage_Handler(void)
{
 80052c0:	b480      	push	{r7}
 80052c2:	af00      	add	r7, sp, #0
  /* USER CODE BEGIN MemoryManagement_IRQn 0 */

  /* USER CODE END MemoryManagement_IRQn 0 */
  while (1)
 80052c4:	e7fe      	b.n	80052c4 <MemManage_Handler+0x4>

080052c6 <BusFault_Handler>:

/**
  * @brief This function handles Pre-fetch fault, memory access fault.
  */
void BusFault_Handler(void)
{
 80052c6:	b480      	push	{r7}
 80052c8:	af00      	add	r7, sp, #0
  /* USER CODE BEGIN BusFault_IRQn 0 */

  /* USER CODE END BusFault_IRQn 0 */
  while (1)
 80052ca:	e7fe      	b.n	80052ca <BusFault_Handler+0x4>

080052cc <UsageFault_Handler>:

/**
  * @brief This function handles Undefined instruction or illegal state.
  */
void UsageFault_Handler(void)
{
 80052cc:	b480      	push	{r7}
 80052ce:	af00      	add	r7, sp, #0
  /* USER CODE BEGIN UsageFault_IRQn 0 */

  /* USER CODE END UsageFault_IRQn 0 */
  while (1)
 80052d0:	e7fe      	b.n	80052d0 <UsageFault_Handler+0x4>

080052d2 <SVC_Handler>:

/**
  * @brief This function handles System service call via SWI instruction.
  */
void SVC_Handler(void)
{
 80052d2:	b480      	push	{r7}
 80052d4:	af00      	add	r7, sp, #0

  /* USER CODE END SVCall_IRQn 0 */
  /* USER CODE BEGIN SVCall_IRQn 1 */

  /* USER CODE END SVCall_IRQn 1 */
}
 80052d6:	bf00      	nop
 80052d8:	46bd      	mov	sp, r7
 80052da:	f85d 7b04 	ldr.w	r7, [sp], #4
 80052de:	4770      	bx	lr

080052e0 <DebugMon_Handler>:

/**
  * @brief This function handles Debug monitor.
  */
void DebugMon_Handler(void)
{
 80052e0:	b480      	push	{r7}
 80052e2:	af00      	add	r7, sp, #0

  /* USER CODE END DebugMonitor_IRQn 0 */
  /* USER CODE BEGIN DebugMonitor_IRQn 1 */

  /* USER CODE END DebugMonitor_IRQn 1 */
}
 80052e4:	bf00      	nop
 80052e6:	46bd      	mov	sp, r7
 80052e8:	f85d 7b04 	ldr.w	r7, [sp], #4
 80052ec:	4770      	bx	lr

080052ee <PendSV_Handler>:

/**
  * @brief This function handles Pendable request for system service.
  */
void PendSV_Handler(void)
{
 80052ee:	b480      	push	{r7}
 80052f0:	af00      	add	r7, sp, #0

  /* USER CODE END PendSV_IRQn 0 */
  /* USER CODE BEGIN PendSV_IRQn 1 */

  /* USER CODE END PendSV_IRQn 1 */
}
 80052f2:	bf00      	nop
 80052f4:	46bd      	mov	sp, r7
 80052f6:	f85d 7b04 	ldr.w	r7, [sp], #4
 80052fa:	4770      	bx	lr

080052fc <SysTick_Handler>:

/**
  * @brief This function handles System tick timer.
  */
void SysTick_Handler(void)
{
 80052fc:	b580      	push	{r7, lr}
 80052fe:	af00      	add	r7, sp, #0
  /* USER CODE BEGIN SysTick_IRQn 0 */

  /* USER CODE END SysTick_IRQn 0 */
  HAL_IncTick();
 8005300:	f000 fcae 	bl	8005c60 <HAL_IncTick>
  /* USER CODE BEGIN SysTick_IRQn 1 */

  /* USER CODE END SysTick_IRQn 1 */
}
 8005304:	bf00      	nop
 8005306:	bd80      	pop	{r7, pc}

08005308 <DMA1_Stream2_IRQHandler>:

/**
  * @brief This function handles DMA1 stream2 global interrupt.
  */
void DMA1_Stream2_IRQHandler(void)
{
 8005308:	b580      	push	{r7, lr}
 800530a:	af00      	add	r7, sp, #0
  /* USER CODE BEGIN DMA1_Stream2_IRQn 0 */

  /* USER CODE END DMA1_Stream2_IRQn 0 */
  HAL_DMA_IRQHandler(&hdma_uart4_rx);
 800530c:	4802      	ldr	r0, [pc, #8]	; (8005318 <DMA1_Stream2_IRQHandler+0x10>)
 800530e:	f001 f9f7 	bl	8006700 <HAL_DMA_IRQHandler>
  /* USER CODE BEGIN DMA1_Stream2_IRQn 1 */

  /* USER CODE END DMA1_Stream2_IRQn 1 */
}
 8005312:	bf00      	nop
 8005314:	bd80      	pop	{r7, pc}
 8005316:	bf00      	nop
 8005318:	20000494 	.word	0x20000494

0800531c <DMA1_Stream4_IRQHandler>:

/**
  * @brief This function handles DMA1 stream4 global interrupt.
  */
void DMA1_Stream4_IRQHandler(void)
{
 800531c:	b580      	push	{r7, lr}
 800531e:	af00      	add	r7, sp, #0
  /* USER CODE BEGIN DMA1_Stream4_IRQn 0 */

  /* USER CODE END DMA1_Stream4_IRQn 0 */
  HAL_DMA_IRQHandler(&hdma_uart4_tx);
 8005320:	4802      	ldr	r0, [pc, #8]	; (800532c <DMA1_Stream4_IRQHandler+0x10>)
 8005322:	f001 f9ed 	bl	8006700 <HAL_DMA_IRQHandler>
  /* USER CODE BEGIN DMA1_Stream4_IRQn 1 */

  /* USER CODE END DMA1_Stream4_IRQn 1 */
}
 8005326:	bf00      	nop
 8005328:	bd80      	pop	{r7, pc}
 800532a:	bf00      	nop
 800532c:	2000063c 	.word	0x2000063c

08005330 <DMA1_Stream5_IRQHandler>:

/**
  * @brief This function handles DMA1 stream5 global interrupt.
  */
void DMA1_Stream5_IRQHandler(void)
{
 8005330:	b580      	push	{r7, lr}
 8005332:	af00      	add	r7, sp, #0
  /* USER CODE BEGIN DMA1_Stream5_IRQn 0 */

  /* USER CODE END DMA1_Stream5_IRQn 0 */
  HAL_DMA_IRQHandler(&hdma_usart2_rx);
 8005334:	4802      	ldr	r0, [pc, #8]	; (8005340 <DMA1_Stream5_IRQHandler+0x10>)
 8005336:	f001 f9e3 	bl	8006700 <HAL_DMA_IRQHandler>
  /* USER CODE BEGIN DMA1_Stream5_IRQn 1 */

  /* USER CODE END DMA1_Stream5_IRQn 1 */
}
 800533a:	bf00      	nop
 800533c:	bd80      	pop	{r7, pc}
 800533e:	bf00      	nop
 8005340:	200004f4 	.word	0x200004f4

08005344 <DMA1_Stream6_IRQHandler>:

/**
  * @brief This function handles DMA1 stream6 global interrupt.
  */
void DMA1_Stream6_IRQHandler(void)
{
 8005344:	b580      	push	{r7, lr}
 8005346:	af00      	add	r7, sp, #0
  /* USER CODE BEGIN DMA1_Stream6_IRQn 0 */

  /* USER CODE END DMA1_Stream6_IRQn 0 */
  HAL_DMA_IRQHandler(&hdma_usart2_tx);
 8005348:	4802      	ldr	r0, [pc, #8]	; (8005354 <DMA1_Stream6_IRQHandler+0x10>)
 800534a:	f001 f9d9 	bl	8006700 <HAL_DMA_IRQHandler>
  /* USER CODE BEGIN DMA1_Stream6_IRQn 1 */

  /* USER CODE END DMA1_Stream6_IRQn 1 */
}
 800534e:	bf00      	nop
 8005350:	bd80      	pop	{r7, pc}
 8005352:	bf00      	nop
 8005354:	20000554 	.word	0x20000554

08005358 <USART2_IRQHandler>:

/**
  * @brief This function handles USART2 global interrupt.
  */
void USART2_IRQHandler(void)
{
 8005358:	b580      	push	{r7, lr}
 800535a:	af00      	add	r7, sp, #0
  /* USER CODE BEGIN USART2_IRQn 0 */

  /* USER CODE END USART2_IRQn 0 */
  HAL_UART_IRQHandler(&huart2);
 800535c:	4802      	ldr	r0, [pc, #8]	; (8005368 <USART2_IRQHandler+0x10>)
 800535e:	f003 feb9 	bl	80090d4 <HAL_UART_IRQHandler>
  /* USER CODE BEGIN USART2_IRQn 1 */

  /* USER CODE END USART2_IRQn 1 */
}
 8005362:	bf00      	nop
 8005364:	bd80      	pop	{r7, pc}
 8005366:	bf00      	nop
 8005368:	200005f8 	.word	0x200005f8

0800536c <UART4_IRQHandler>:

/**
  * @brief This function handles UART4 global interrupt.
  */
void UART4_IRQHandler(void)
{
 800536c:	b580      	push	{r7, lr}
 800536e:	af00      	add	r7, sp, #0
  /* USER CODE BEGIN UART4_IRQn 0 */

  /* USER CODE END UART4_IRQn 0 */
  HAL_UART_IRQHandler(&huart4);
 8005370:	4802      	ldr	r0, [pc, #8]	; (800537c <UART4_IRQHandler+0x10>)
 8005372:	f003 feaf 	bl	80090d4 <HAL_UART_IRQHandler>
  /* USER CODE BEGIN UART4_IRQn 1 */

  /* USER CODE END UART4_IRQn 1 */
}
 8005376:	bf00      	nop
 8005378:	bd80      	pop	{r7, pc}
 800537a:	bf00      	nop
 800537c:	200005b4 	.word	0x200005b4

08005380 <SystemInit>:
  *         configuration.
  * @param  None
  * @retval None
  */
void SystemInit(void)
{
 8005380:	b480      	push	{r7}
 8005382:	af00      	add	r7, sp, #0
  /* FPU settings ------------------------------------------------------------*/
  #if (__FPU_PRESENT == 1) && (__FPU_USED == 1)
    SCB->CPACR |= ((3UL << 10*2)|(3UL << 11*2));  /* set CP10 and CP11 Full Access */
 8005384:	4b06      	ldr	r3, [pc, #24]	; (80053a0 <SystemInit+0x20>)
 8005386:	f8d3 3088 	ldr.w	r3, [r3, #136]	; 0x88
 800538a:	4a05      	ldr	r2, [pc, #20]	; (80053a0 <SystemInit+0x20>)
 800538c:	f443 0370 	orr.w	r3, r3, #15728640	; 0xf00000
 8005390:	f8c2 3088 	str.w	r3, [r2, #136]	; 0x88

  /* Configure the Vector Table location -------------------------------------*/
#if defined(USER_VECT_TAB_ADDRESS)
  SCB->VTOR = VECT_TAB_BASE_ADDRESS | VECT_TAB_OFFSET; /* Vector Table Relocation in Internal SRAM */
#endif /* USER_VECT_TAB_ADDRESS */
}
 8005394:	bf00      	nop
 8005396:	46bd      	mov	sp, r7
 8005398:	f85d 7b04 	ldr.w	r7, [sp], #4
 800539c:	4770      	bx	lr
 800539e:	bf00      	nop
 80053a0:	e000ed00 	.word	0xe000ed00

080053a4 <MX_TIM2_Init>:
TIM_HandleTypeDef htim7;
TIM_HandleTypeDef htim14;

/* TIM2 init function */
void MX_TIM2_Init(void)
{
 80053a4:	b580      	push	{r7, lr}
 80053a6:	b08e      	sub	sp, #56	; 0x38
 80053a8:	af00      	add	r7, sp, #0

  /* USER CODE BEGIN TIM2_Init 0 */

  /* USER CODE END TIM2_Init 0 */

  TIM_ClockConfigTypeDef sClockSourceConfig = {0};
 80053aa:	f107 0328 	add.w	r3, r7, #40	; 0x28
 80053ae:	2200      	movs	r2, #0
 80053b0:	601a      	str	r2, [r3, #0]
 80053b2:	605a      	str	r2, [r3, #4]
 80053b4:	609a      	str	r2, [r3, #8]
 80053b6:	60da      	str	r2, [r3, #12]
  TIM_MasterConfigTypeDef sMasterConfig = {0};
 80053b8:	f107 0320 	add.w	r3, r7, #32
 80053bc:	2200      	movs	r2, #0
 80053be:	601a      	str	r2, [r3, #0]
 80053c0:	605a      	str	r2, [r3, #4]
  TIM_OC_InitTypeDef sConfigOC = {0};
 80053c2:	1d3b      	adds	r3, r7, #4
 80053c4:	2200      	movs	r2, #0
 80053c6:	601a      	str	r2, [r3, #0]
 80053c8:	605a      	str	r2, [r3, #4]
 80053ca:	609a      	str	r2, [r3, #8]
 80053cc:	60da      	str	r2, [r3, #12]
 80053ce:	611a      	str	r2, [r3, #16]
 80053d0:	615a      	str	r2, [r3, #20]
 80053d2:	619a      	str	r2, [r3, #24]

  /* USER CODE BEGIN TIM2_Init 1 */

  /* USER CODE END TIM2_Init 1 */
  htim2.Instance = TIM2;
 80053d4:	4b3d      	ldr	r3, [pc, #244]	; (80054cc <MX_TIM2_Init+0x128>)
 80053d6:	f04f 4280 	mov.w	r2, #1073741824	; 0x40000000
 80053da:	601a      	str	r2, [r3, #0]
  htim2.Init.Prescaler = 0;
 80053dc:	4b3b      	ldr	r3, [pc, #236]	; (80054cc <MX_TIM2_Init+0x128>)
 80053de:	2200      	movs	r2, #0
 80053e0:	605a      	str	r2, [r3, #4]
  htim2.Init.CounterMode = TIM_COUNTERMODE_UP;
 80053e2:	4b3a      	ldr	r3, [pc, #232]	; (80054cc <MX_TIM2_Init+0x128>)
 80053e4:	2200      	movs	r2, #0
 80053e6:	609a      	str	r2, [r3, #8]
  htim2.Init.Period = 89;
 80053e8:	4b38      	ldr	r3, [pc, #224]	; (80054cc <MX_TIM2_Init+0x128>)
 80053ea:	2259      	movs	r2, #89	; 0x59
 80053ec:	60da      	str	r2, [r3, #12]
  htim2.Init.ClockDivision = TIM_CLOCKDIVISION_DIV1;
 80053ee:	4b37      	ldr	r3, [pc, #220]	; (80054cc <MX_TIM2_Init+0x128>)
 80053f0:	2200      	movs	r2, #0
 80053f2:	611a      	str	r2, [r3, #16]
  htim2.Init.AutoReloadPreload = TIM_AUTORELOAD_PRELOAD_DISABLE;
 80053f4:	4b35      	ldr	r3, [pc, #212]	; (80054cc <MX_TIM2_Init+0x128>)
 80053f6:	2200      	movs	r2, #0
 80053f8:	619a      	str	r2, [r3, #24]
  if (HAL_TIM_Base_Init(&htim2) != HAL_OK)
 80053fa:	4834      	ldr	r0, [pc, #208]	; (80054cc <MX_TIM2_Init+0x128>)
 80053fc:	f002 ffd6 	bl	80083ac <HAL_TIM_Base_Init>
 8005400:	4603      	mov	r3, r0
 8005402:	2b00      	cmp	r3, #0
 8005404:	d001      	beq.n	800540a <MX_TIM2_Init+0x66>
  {
    Error_Handler();
 8005406:	f7ff fea9 	bl	800515c <Error_Handler>
  }
  sClockSourceConfig.ClockSource = TIM_CLOCKSOURCE_INTERNAL;
 800540a:	f44f 5380 	mov.w	r3, #4096	; 0x1000
 800540e:	62bb      	str	r3, [r7, #40]	; 0x28
  if (HAL_TIM_ConfigClockSource(&htim2, &sClockSourceConfig) != HAL_OK)
 8005410:	f107 0328 	add.w	r3, r7, #40	; 0x28
 8005414:	4619      	mov	r1, r3
 8005416:	482d      	ldr	r0, [pc, #180]	; (80054cc <MX_TIM2_Init+0x128>)
 8005418:	f003 f932 	bl	8008680 <HAL_TIM_ConfigClockSource>
 800541c:	4603      	mov	r3, r0
 800541e:	2b00      	cmp	r3, #0
 8005420:	d001      	beq.n	8005426 <MX_TIM2_Init+0x82>
  {
    Error_Handler();
 8005422:	f7ff fe9b 	bl	800515c <Error_Handler>
  }
  if (HAL_TIM_PWM_Init(&htim2) != HAL_OK)
 8005426:	4829      	ldr	r0, [pc, #164]	; (80054cc <MX_TIM2_Init+0x128>)
 8005428:	f003 f80f 	bl	800844a <HAL_TIM_PWM_Init>
 800542c:	4603      	mov	r3, r0
 800542e:	2b00      	cmp	r3, #0
 8005430:	d001      	beq.n	8005436 <MX_TIM2_Init+0x92>
  {
    Error_Handler();
 8005432:	f7ff fe93 	bl	800515c <Error_Handler>
  }
  sMasterConfig.MasterOutputTrigger = TIM_TRGO_RESET;
 8005436:	2300      	movs	r3, #0
 8005438:	623b      	str	r3, [r7, #32]
  sMasterConfig.MasterSlaveMode = TIM_MASTERSLAVEMODE_DISABLE;
 800543a:	2300      	movs	r3, #0
 800543c:	627b      	str	r3, [r7, #36]	; 0x24
  if (HAL_TIMEx_MasterConfigSynchronization(&htim2, &sMasterConfig) != HAL_OK)
 800543e:	f107 0320 	add.w	r3, r7, #32
 8005442:	4619      	mov	r1, r3
 8005444:	4821      	ldr	r0, [pc, #132]	; (80054cc <MX_TIM2_Init+0x128>)
 8005446:	f003 fccd 	bl	8008de4 <HAL_TIMEx_MasterConfigSynchronization>
 800544a:	4603      	mov	r3, r0
 800544c:	2b00      	cmp	r3, #0
 800544e:	d001      	beq.n	8005454 <MX_TIM2_Init+0xb0>
  {
    Error_Handler();
 8005450:	f7ff fe84 	bl	800515c <Error_Handler>
  }
  sConfigOC.OCMode = TIM_OCMODE_PWM1;
 8005454:	2360      	movs	r3, #96	; 0x60
 8005456:	607b      	str	r3, [r7, #4]
  sConfigOC.Pulse = 0;
 8005458:	2300      	movs	r3, #0
 800545a:	60bb      	str	r3, [r7, #8]
  sConfigOC.OCPolarity = TIM_OCPOLARITY_HIGH;
 800545c:	2300      	movs	r3, #0
 800545e:	60fb      	str	r3, [r7, #12]
  sConfigOC.OCFastMode = TIM_OCFAST_DISABLE;
 8005460:	2300      	movs	r3, #0
 8005462:	617b      	str	r3, [r7, #20]
  if (HAL_TIM_PWM_ConfigChannel(&htim2, &sConfigOC, TIM_CHANNEL_1) != HAL_OK)
 8005464:	1d3b      	adds	r3, r7, #4
 8005466:	2200      	movs	r2, #0
 8005468:	4619      	mov	r1, r3
 800546a:	4818      	ldr	r0, [pc, #96]	; (80054cc <MX_TIM2_Init+0x128>)
 800546c:	f003 f846 	bl	80084fc <HAL_TIM_PWM_ConfigChannel>
 8005470:	4603      	mov	r3, r0
 8005472:	2b00      	cmp	r3, #0
 8005474:	d001      	beq.n	800547a <MX_TIM2_Init+0xd6>
  {
    Error_Handler();
 8005476:	f7ff fe71 	bl	800515c <Error_Handler>
  }
  if (HAL_TIM_PWM_ConfigChannel(&htim2, &sConfigOC, TIM_CHANNEL_2) != HAL_OK)
 800547a:	1d3b      	adds	r3, r7, #4
 800547c:	2204      	movs	r2, #4
 800547e:	4619      	mov	r1, r3
 8005480:	4812      	ldr	r0, [pc, #72]	; (80054cc <MX_TIM2_Init+0x128>)
 8005482:	f003 f83b 	bl	80084fc <HAL_TIM_PWM_ConfigChannel>
 8005486:	4603      	mov	r3, r0
 8005488:	2b00      	cmp	r3, #0
 800548a:	d001      	beq.n	8005490 <MX_TIM2_Init+0xec>
  {
    Error_Handler();
 800548c:	f7ff fe66 	bl	800515c <Error_Handler>
  }
  if (HAL_TIM_PWM_ConfigChannel(&htim2, &sConfigOC, TIM_CHANNEL_3) != HAL_OK)
 8005490:	1d3b      	adds	r3, r7, #4
 8005492:	2208      	movs	r2, #8
 8005494:	4619      	mov	r1, r3
 8005496:	480d      	ldr	r0, [pc, #52]	; (80054cc <MX_TIM2_Init+0x128>)
 8005498:	f003 f830 	bl	80084fc <HAL_TIM_PWM_ConfigChannel>
 800549c:	4603      	mov	r3, r0
 800549e:	2b00      	cmp	r3, #0
 80054a0:	d001      	beq.n	80054a6 <MX_TIM2_Init+0x102>
  {
    Error_Handler();
 80054a2:	f7ff fe5b 	bl	800515c <Error_Handler>
  }
  if (HAL_TIM_PWM_ConfigChannel(&htim2, &sConfigOC, TIM_CHANNEL_4) != HAL_OK)
 80054a6:	1d3b      	adds	r3, r7, #4
 80054a8:	220c      	movs	r2, #12
 80054aa:	4619      	mov	r1, r3
 80054ac:	4807      	ldr	r0, [pc, #28]	; (80054cc <MX_TIM2_Init+0x128>)
 80054ae:	f003 f825 	bl	80084fc <HAL_TIM_PWM_ConfigChannel>
 80054b2:	4603      	mov	r3, r0
 80054b4:	2b00      	cmp	r3, #0
 80054b6:	d001      	beq.n	80054bc <MX_TIM2_Init+0x118>
  {
    Error_Handler();
 80054b8:	f7ff fe50 	bl	800515c <Error_Handler>
  }
  /* USER CODE BEGIN TIM2_Init 2 */

  /* USER CODE END TIM2_Init 2 */
  HAL_TIM_MspPostInit(&htim2);
 80054bc:	4803      	ldr	r0, [pc, #12]	; (80054cc <MX_TIM2_Init+0x128>)
 80054be:	f000 f923 	bl	8005708 <HAL_TIM_MspPostInit>

}
 80054c2:	bf00      	nop
 80054c4:	3738      	adds	r7, #56	; 0x38
 80054c6:	46bd      	mov	sp, r7
 80054c8:	bd80      	pop	{r7, pc}
 80054ca:	bf00      	nop
 80054cc:	200003bc 	.word	0x200003bc

080054d0 <MX_TIM6_Init>:
/* TIM6 init function */
void MX_TIM6_Init(void)
{
 80054d0:	b580      	push	{r7, lr}
 80054d2:	b082      	sub	sp, #8
 80054d4:	af00      	add	r7, sp, #0

  /* USER CODE BEGIN TIM6_Init 0 */

  /* USER CODE END TIM6_Init 0 */

  TIM_MasterConfigTypeDef sMasterConfig = {0};
 80054d6:	463b      	mov	r3, r7
 80054d8:	2200      	movs	r2, #0
 80054da:	601a      	str	r2, [r3, #0]
 80054dc:	605a      	str	r2, [r3, #4]

  /* USER CODE BEGIN TIM6_Init 1 */

  /* USER CODE END TIM6_Init 1 */
  htim6.Instance = TIM6;
 80054de:	4b15      	ldr	r3, [pc, #84]	; (8005534 <MX_TIM6_Init+0x64>)
 80054e0:	4a15      	ldr	r2, [pc, #84]	; (8005538 <MX_TIM6_Init+0x68>)
 80054e2:	601a      	str	r2, [r3, #0]
  htim6.Init.Prescaler = 0;
 80054e4:	4b13      	ldr	r3, [pc, #76]	; (8005534 <MX_TIM6_Init+0x64>)
 80054e6:	2200      	movs	r2, #0
 80054e8:	605a      	str	r2, [r3, #4]
  htim6.Init.CounterMode = TIM_COUNTERMODE_UP;
 80054ea:	4b12      	ldr	r3, [pc, #72]	; (8005534 <MX_TIM6_Init+0x64>)
 80054ec:	2200      	movs	r2, #0
 80054ee:	609a      	str	r2, [r3, #8]
  htim6.Init.Period = 65535;
 80054f0:	4b10      	ldr	r3, [pc, #64]	; (8005534 <MX_TIM6_Init+0x64>)
 80054f2:	f64f 72ff 	movw	r2, #65535	; 0xffff
 80054f6:	60da      	str	r2, [r3, #12]
  htim6.Init.AutoReloadPreload = TIM_AUTORELOAD_PRELOAD_DISABLE;
 80054f8:	4b0e      	ldr	r3, [pc, #56]	; (8005534 <MX_TIM6_Init+0x64>)
 80054fa:	2200      	movs	r2, #0
 80054fc:	619a      	str	r2, [r3, #24]
  if (HAL_TIM_Base_Init(&htim6) != HAL_OK)
 80054fe:	480d      	ldr	r0, [pc, #52]	; (8005534 <MX_TIM6_Init+0x64>)
 8005500:	f002 ff54 	bl	80083ac <HAL_TIM_Base_Init>
 8005504:	4603      	mov	r3, r0
 8005506:	2b00      	cmp	r3, #0
 8005508:	d001      	beq.n	800550e <MX_TIM6_Init+0x3e>
  {
    Error_Handler();
 800550a:	f7ff fe27 	bl	800515c <Error_Handler>
  }
  sMasterConfig.MasterOutputTrigger = TIM_TRGO_RESET;
 800550e:	2300      	movs	r3, #0
 8005510:	603b      	str	r3, [r7, #0]
  sMasterConfig.MasterSlaveMode = TIM_MASTERSLAVEMODE_DISABLE;
 8005512:	2300      	movs	r3, #0
 8005514:	607b      	str	r3, [r7, #4]
  if (HAL_TIMEx_MasterConfigSynchronization(&htim6, &sMasterConfig) != HAL_OK)
 8005516:	463b      	mov	r3, r7
 8005518:	4619      	mov	r1, r3
 800551a:	4806      	ldr	r0, [pc, #24]	; (8005534 <MX_TIM6_Init+0x64>)
 800551c:	f003 fc62 	bl	8008de4 <HAL_TIMEx_MasterConfigSynchronization>
 8005520:	4603      	mov	r3, r0
 8005522:	2b00      	cmp	r3, #0
 8005524:	d001      	beq.n	800552a <MX_TIM6_Init+0x5a>
  {
    Error_Handler();
 8005526:	f7ff fe19 	bl	800515c <Error_Handler>
  }
  /* USER CODE BEGIN TIM6_Init 2 */

  /* USER CODE END TIM6_Init 2 */

}
 800552a:	bf00      	nop
 800552c:	3708      	adds	r7, #8
 800552e:	46bd      	mov	sp, r7
 8005530:	bd80      	pop	{r7, pc}
 8005532:	bf00      	nop
 8005534:	20000374 	.word	0x20000374
 8005538:	40001000 	.word	0x40001000

0800553c <MX_TIM7_Init>:
/* TIM7 init function */
void MX_TIM7_Init(void)
{
 800553c:	b580      	push	{r7, lr}
 800553e:	b082      	sub	sp, #8
 8005540:	af00      	add	r7, sp, #0

  /* USER CODE BEGIN TIM7_Init 0 */

  /* USER CODE END TIM7_Init 0 */

  TIM_MasterConfigTypeDef sMasterConfig = {0};
 8005542:	463b      	mov	r3, r7
 8005544:	2200      	movs	r2, #0
 8005546:	601a      	str	r2, [r3, #0]
 8005548:	605a      	str	r2, [r3, #4]

  /* USER CODE BEGIN TIM7_Init 1 */

  /* USER CODE END TIM7_Init 1 */
  htim7.Instance = TIM7;
 800554a:	4b15      	ldr	r3, [pc, #84]	; (80055a0 <MX_TIM7_Init+0x64>)
 800554c:	4a15      	ldr	r2, [pc, #84]	; (80055a4 <MX_TIM7_Init+0x68>)
 800554e:	601a      	str	r2, [r3, #0]
  htim7.Init.Prescaler = 0;
 8005550:	4b13      	ldr	r3, [pc, #76]	; (80055a0 <MX_TIM7_Init+0x64>)
 8005552:	2200      	movs	r2, #0
 8005554:	605a      	str	r2, [r3, #4]
  htim7.Init.CounterMode = TIM_COUNTERMODE_UP;
 8005556:	4b12      	ldr	r3, [pc, #72]	; (80055a0 <MX_TIM7_Init+0x64>)
 8005558:	2200      	movs	r2, #0
 800555a:	609a      	str	r2, [r3, #8]
  htim7.Init.Period = 65535;
 800555c:	4b10      	ldr	r3, [pc, #64]	; (80055a0 <MX_TIM7_Init+0x64>)
 800555e:	f64f 72ff 	movw	r2, #65535	; 0xffff
 8005562:	60da      	str	r2, [r3, #12]
  htim7.Init.AutoReloadPreload = TIM_AUTORELOAD_PRELOAD_DISABLE;
 8005564:	4b0e      	ldr	r3, [pc, #56]	; (80055a0 <MX_TIM7_Init+0x64>)
 8005566:	2200      	movs	r2, #0
 8005568:	619a      	str	r2, [r3, #24]
  if (HAL_TIM_Base_Init(&htim7) != HAL_OK)
 800556a:	480d      	ldr	r0, [pc, #52]	; (80055a0 <MX_TIM7_Init+0x64>)
 800556c:	f002 ff1e 	bl	80083ac <HAL_TIM_Base_Init>
 8005570:	4603      	mov	r3, r0
 8005572:	2b00      	cmp	r3, #0
 8005574:	d001      	beq.n	800557a <MX_TIM7_Init+0x3e>
  {
    Error_Handler();
 8005576:	f7ff fdf1 	bl	800515c <Error_Handler>
  }
  sMasterConfig.MasterOutputTrigger = TIM_TRGO_RESET;
 800557a:	2300      	movs	r3, #0
 800557c:	603b      	str	r3, [r7, #0]
  sMasterConfig.MasterSlaveMode = TIM_MASTERSLAVEMODE_DISABLE;
 800557e:	2300      	movs	r3, #0
 8005580:	607b      	str	r3, [r7, #4]
  if (HAL_TIMEx_MasterConfigSynchronization(&htim7, &sMasterConfig) != HAL_OK)
 8005582:	463b      	mov	r3, r7
 8005584:	4619      	mov	r1, r3
 8005586:	4806      	ldr	r0, [pc, #24]	; (80055a0 <MX_TIM7_Init+0x64>)
 8005588:	f003 fc2c 	bl	8008de4 <HAL_TIMEx_MasterConfigSynchronization>
 800558c:	4603      	mov	r3, r0
 800558e:	2b00      	cmp	r3, #0
 8005590:	d001      	beq.n	8005596 <MX_TIM7_Init+0x5a>
  {
    Error_Handler();
 8005592:	f7ff fde3 	bl	800515c <Error_Handler>
  }
  /* USER CODE BEGIN TIM7_Init 2 */

  /* USER CODE END TIM7_Init 2 */

}
 8005596:	bf00      	nop
 8005598:	3708      	adds	r7, #8
 800559a:	46bd      	mov	sp, r7
 800559c:	bd80      	pop	{r7, pc}
 800559e:	bf00      	nop
 80055a0:	2000044c 	.word	0x2000044c
 80055a4:	40001400 	.word	0x40001400

080055a8 <MX_TIM14_Init>:
/* TIM14 init function */
void MX_TIM14_Init(void)
{
 80055a8:	b580      	push	{r7, lr}
 80055aa:	b088      	sub	sp, #32
 80055ac:	af00      	add	r7, sp, #0

  /* USER CODE BEGIN TIM14_Init 0 */

  /* USER CODE END TIM14_Init 0 */

  TIM_OC_InitTypeDef sConfigOC = {0};
 80055ae:	1d3b      	adds	r3, r7, #4
 80055b0:	2200      	movs	r2, #0
 80055b2:	601a      	str	r2, [r3, #0]
 80055b4:	605a      	str	r2, [r3, #4]
 80055b6:	609a      	str	r2, [r3, #8]
 80055b8:	60da      	str	r2, [r3, #12]
 80055ba:	611a      	str	r2, [r3, #16]
 80055bc:	615a      	str	r2, [r3, #20]
 80055be:	619a      	str	r2, [r3, #24]

  /* USER CODE BEGIN TIM14_Init 1 */

  /* USER CODE END TIM14_Init 1 */
  htim14.Instance = TIM14;
 80055c0:	4b1e      	ldr	r3, [pc, #120]	; (800563c <MX_TIM14_Init+0x94>)
 80055c2:	4a1f      	ldr	r2, [pc, #124]	; (8005640 <MX_TIM14_Init+0x98>)
 80055c4:	601a      	str	r2, [r3, #0]
  htim14.Init.Prescaler = 720;
 80055c6:	4b1d      	ldr	r3, [pc, #116]	; (800563c <MX_TIM14_Init+0x94>)
 80055c8:	f44f 7234 	mov.w	r2, #720	; 0x2d0
 80055cc:	605a      	str	r2, [r3, #4]
  htim14.Init.CounterMode = TIM_COUNTERMODE_UP;
 80055ce:	4b1b      	ldr	r3, [pc, #108]	; (800563c <MX_TIM14_Init+0x94>)
 80055d0:	2200      	movs	r2, #0
 80055d2:	609a      	str	r2, [r3, #8]
  htim14.Init.Period = 2000;
 80055d4:	4b19      	ldr	r3, [pc, #100]	; (800563c <MX_TIM14_Init+0x94>)
 80055d6:	f44f 62fa 	mov.w	r2, #2000	; 0x7d0
 80055da:	60da      	str	r2, [r3, #12]
  htim14.Init.ClockDivision = TIM_CLOCKDIVISION_DIV1;
 80055dc:	4b17      	ldr	r3, [pc, #92]	; (800563c <MX_TIM14_Init+0x94>)
 80055de:	2200      	movs	r2, #0
 80055e0:	611a      	str	r2, [r3, #16]
  htim14.Init.AutoReloadPreload = TIM_AUTORELOAD_PRELOAD_DISABLE;
 80055e2:	4b16      	ldr	r3, [pc, #88]	; (800563c <MX_TIM14_Init+0x94>)
 80055e4:	2200      	movs	r2, #0
 80055e6:	619a      	str	r2, [r3, #24]
  if (HAL_TIM_Base_Init(&htim14) != HAL_OK)
 80055e8:	4814      	ldr	r0, [pc, #80]	; (800563c <MX_TIM14_Init+0x94>)
 80055ea:	f002 fedf 	bl	80083ac <HAL_TIM_Base_Init>
 80055ee:	4603      	mov	r3, r0
 80055f0:	2b00      	cmp	r3, #0
 80055f2:	d001      	beq.n	80055f8 <MX_TIM14_Init+0x50>
  {
    Error_Handler();
 80055f4:	f7ff fdb2 	bl	800515c <Error_Handler>
  }
  if (HAL_TIM_PWM_Init(&htim14) != HAL_OK)
 80055f8:	4810      	ldr	r0, [pc, #64]	; (800563c <MX_TIM14_Init+0x94>)
 80055fa:	f002 ff26 	bl	800844a <HAL_TIM_PWM_Init>
 80055fe:	4603      	mov	r3, r0
 8005600:	2b00      	cmp	r3, #0
 8005602:	d001      	beq.n	8005608 <MX_TIM14_Init+0x60>
  {
    Error_Handler();
 8005604:	f7ff fdaa 	bl	800515c <Error_Handler>
  }
  sConfigOC.OCMode = TIM_OCMODE_PWM1;
 8005608:	2360      	movs	r3, #96	; 0x60
 800560a:	607b      	str	r3, [r7, #4]
  sConfigOC.Pulse = 50;
 800560c:	2332      	movs	r3, #50	; 0x32
 800560e:	60bb      	str	r3, [r7, #8]
  sConfigOC.OCPolarity = TIM_OCPOLARITY_HIGH;
 8005610:	2300      	movs	r3, #0
 8005612:	60fb      	str	r3, [r7, #12]
  sConfigOC.OCFastMode = TIM_OCFAST_DISABLE;
 8005614:	2300      	movs	r3, #0
 8005616:	617b      	str	r3, [r7, #20]
  if (HAL_TIM_PWM_ConfigChannel(&htim14, &sConfigOC, TIM_CHANNEL_1) != HAL_OK)
 8005618:	1d3b      	adds	r3, r7, #4
 800561a:	2200      	movs	r2, #0
 800561c:	4619      	mov	r1, r3
 800561e:	4807      	ldr	r0, [pc, #28]	; (800563c <MX_TIM14_Init+0x94>)
 8005620:	f002 ff6c 	bl	80084fc <HAL_TIM_PWM_ConfigChannel>
 8005624:	4603      	mov	r3, r0
 8005626:	2b00      	cmp	r3, #0
 8005628:	d001      	beq.n	800562e <MX_TIM14_Init+0x86>
  {
    Error_Handler();
 800562a:	f7ff fd97 	bl	800515c <Error_Handler>
  }
  /* USER CODE BEGIN TIM14_Init 2 */

  /* USER CODE END TIM14_Init 2 */
  HAL_TIM_MspPostInit(&htim14);
 800562e:	4803      	ldr	r0, [pc, #12]	; (800563c <MX_TIM14_Init+0x94>)
 8005630:	f000 f86a 	bl	8005708 <HAL_TIM_MspPostInit>

}
 8005634:	bf00      	nop
 8005636:	3720      	adds	r7, #32
 8005638:	46bd      	mov	sp, r7
 800563a:	bd80      	pop	{r7, pc}
 800563c:	20000404 	.word	0x20000404
 8005640:	40002000 	.word	0x40002000

08005644 <HAL_TIM_Base_MspInit>:

void HAL_TIM_Base_MspInit(TIM_HandleTypeDef* tim_baseHandle)
{
 8005644:	b480      	push	{r7}
 8005646:	b087      	sub	sp, #28
 8005648:	af00      	add	r7, sp, #0
 800564a:	6078      	str	r0, [r7, #4]

  if(tim_baseHandle->Instance==TIM2)
 800564c:	687b      	ldr	r3, [r7, #4]
 800564e:	681b      	ldr	r3, [r3, #0]
 8005650:	f1b3 4f80 	cmp.w	r3, #1073741824	; 0x40000000
 8005654:	d10e      	bne.n	8005674 <HAL_TIM_Base_MspInit+0x30>
  {
  /* USER CODE BEGIN TIM2_MspInit 0 */

  /* USER CODE END TIM2_MspInit 0 */
    /* TIM2 clock enable */
    __HAL_RCC_TIM2_CLK_ENABLE();
 8005656:	2300      	movs	r3, #0
 8005658:	617b      	str	r3, [r7, #20]
 800565a:	4b27      	ldr	r3, [pc, #156]	; (80056f8 <HAL_TIM_Base_MspInit+0xb4>)
 800565c:	6c1b      	ldr	r3, [r3, #64]	; 0x40
 800565e:	4a26      	ldr	r2, [pc, #152]	; (80056f8 <HAL_TIM_Base_MspInit+0xb4>)
 8005660:	f043 0301 	orr.w	r3, r3, #1
 8005664:	6413      	str	r3, [r2, #64]	; 0x40
 8005666:	4b24      	ldr	r3, [pc, #144]	; (80056f8 <HAL_TIM_Base_MspInit+0xb4>)
 8005668:	6c1b      	ldr	r3, [r3, #64]	; 0x40
 800566a:	f003 0301 	and.w	r3, r3, #1
 800566e:	617b      	str	r3, [r7, #20]
 8005670:	697b      	ldr	r3, [r7, #20]
    __HAL_RCC_TIM14_CLK_ENABLE();
  /* USER CODE BEGIN TIM14_MspInit 1 */

  /* USER CODE END TIM14_MspInit 1 */
  }
}
 8005672:	e03a      	b.n	80056ea <HAL_TIM_Base_MspInit+0xa6>
  else if(tim_baseHandle->Instance==TIM6)
 8005674:	687b      	ldr	r3, [r7, #4]
 8005676:	681b      	ldr	r3, [r3, #0]
 8005678:	4a20      	ldr	r2, [pc, #128]	; (80056fc <HAL_TIM_Base_MspInit+0xb8>)
 800567a:	4293      	cmp	r3, r2
 800567c:	d10e      	bne.n	800569c <HAL_TIM_Base_MspInit+0x58>
    __HAL_RCC_TIM6_CLK_ENABLE();
 800567e:	2300      	movs	r3, #0
 8005680:	613b      	str	r3, [r7, #16]
 8005682:	4b1d      	ldr	r3, [pc, #116]	; (80056f8 <HAL_TIM_Base_MspInit+0xb4>)
 8005684:	6c1b      	ldr	r3, [r3, #64]	; 0x40
 8005686:	4a1c      	ldr	r2, [pc, #112]	; (80056f8 <HAL_TIM_Base_MspInit+0xb4>)
 8005688:	f043 0310 	orr.w	r3, r3, #16
 800568c:	6413      	str	r3, [r2, #64]	; 0x40
 800568e:	4b1a      	ldr	r3, [pc, #104]	; (80056f8 <HAL_TIM_Base_MspInit+0xb4>)
 8005690:	6c1b      	ldr	r3, [r3, #64]	; 0x40
 8005692:	f003 0310 	and.w	r3, r3, #16
 8005696:	613b      	str	r3, [r7, #16]
 8005698:	693b      	ldr	r3, [r7, #16]
}
 800569a:	e026      	b.n	80056ea <HAL_TIM_Base_MspInit+0xa6>
  else if(tim_baseHandle->Instance==TIM7)
 800569c:	687b      	ldr	r3, [r7, #4]
 800569e:	681b      	ldr	r3, [r3, #0]
 80056a0:	4a17      	ldr	r2, [pc, #92]	; (8005700 <HAL_TIM_Base_MspInit+0xbc>)
 80056a2:	4293      	cmp	r3, r2
 80056a4:	d10e      	bne.n	80056c4 <HAL_TIM_Base_MspInit+0x80>
    __HAL_RCC_TIM7_CLK_ENABLE();
 80056a6:	2300      	movs	r3, #0
 80056a8:	60fb      	str	r3, [r7, #12]
 80056aa:	4b13      	ldr	r3, [pc, #76]	; (80056f8 <HAL_TIM_Base_MspInit+0xb4>)
 80056ac:	6c1b      	ldr	r3, [r3, #64]	; 0x40
 80056ae:	4a12      	ldr	r2, [pc, #72]	; (80056f8 <HAL_TIM_Base_MspInit+0xb4>)
 80056b0:	f043 0320 	orr.w	r3, r3, #32
 80056b4:	6413      	str	r3, [r2, #64]	; 0x40
 80056b6:	4b10      	ldr	r3, [pc, #64]	; (80056f8 <HAL_TIM_Base_MspInit+0xb4>)
 80056b8:	6c1b      	ldr	r3, [r3, #64]	; 0x40
 80056ba:	f003 0320 	and.w	r3, r3, #32
 80056be:	60fb      	str	r3, [r7, #12]
 80056c0:	68fb      	ldr	r3, [r7, #12]
}
 80056c2:	e012      	b.n	80056ea <HAL_TIM_Base_MspInit+0xa6>
  else if(tim_baseHandle->Instance==TIM14)
 80056c4:	687b      	ldr	r3, [r7, #4]
 80056c6:	681b      	ldr	r3, [r3, #0]
 80056c8:	4a0e      	ldr	r2, [pc, #56]	; (8005704 <HAL_TIM_Base_MspInit+0xc0>)
 80056ca:	4293      	cmp	r3, r2
 80056cc:	d10d      	bne.n	80056ea <HAL_TIM_Base_MspInit+0xa6>
    __HAL_RCC_TIM14_CLK_ENABLE();
 80056ce:	2300      	movs	r3, #0
 80056d0:	60bb      	str	r3, [r7, #8]
 80056d2:	4b09      	ldr	r3, [pc, #36]	; (80056f8 <HAL_TIM_Base_MspInit+0xb4>)
 80056d4:	6c1b      	ldr	r3, [r3, #64]	; 0x40
 80056d6:	4a08      	ldr	r2, [pc, #32]	; (80056f8 <HAL_TIM_Base_MspInit+0xb4>)
 80056d8:	f443 7380 	orr.w	r3, r3, #256	; 0x100
 80056dc:	6413      	str	r3, [r2, #64]	; 0x40
 80056de:	4b06      	ldr	r3, [pc, #24]	; (80056f8 <HAL_TIM_Base_MspInit+0xb4>)
 80056e0:	6c1b      	ldr	r3, [r3, #64]	; 0x40
 80056e2:	f403 7380 	and.w	r3, r3, #256	; 0x100
 80056e6:	60bb      	str	r3, [r7, #8]
 80056e8:	68bb      	ldr	r3, [r7, #8]
}
 80056ea:	bf00      	nop
 80056ec:	371c      	adds	r7, #28
 80056ee:	46bd      	mov	sp, r7
 80056f0:	f85d 7b04 	ldr.w	r7, [sp], #4
 80056f4:	4770      	bx	lr
 80056f6:	bf00      	nop
 80056f8:	40023800 	.word	0x40023800
 80056fc:	40001000 	.word	0x40001000
 8005700:	40001400 	.word	0x40001400
 8005704:	40002000 	.word	0x40002000

08005708 <HAL_TIM_MspPostInit>:
void HAL_TIM_MspPostInit(TIM_HandleTypeDef* timHandle)
{
 8005708:	b580      	push	{r7, lr}
 800570a:	b08a      	sub	sp, #40	; 0x28
 800570c:	af00      	add	r7, sp, #0
 800570e:	6078      	str	r0, [r7, #4]

  GPIO_InitTypeDef GPIO_InitStruct = {0};
 8005710:	f107 0314 	add.w	r3, r7, #20
 8005714:	2200      	movs	r2, #0
 8005716:	601a      	str	r2, [r3, #0]
 8005718:	605a      	str	r2, [r3, #4]
 800571a:	609a      	str	r2, [r3, #8]
 800571c:	60da      	str	r2, [r3, #12]
 800571e:	611a      	str	r2, [r3, #16]
  if(timHandle->Instance==TIM2)
 8005720:	687b      	ldr	r3, [r7, #4]
 8005722:	681b      	ldr	r3, [r3, #0]
 8005724:	f1b3 4f80 	cmp.w	r3, #1073741824	; 0x40000000
 8005728:	d13e      	bne.n	80057a8 <HAL_TIM_MspPostInit+0xa0>
  {
  /* USER CODE BEGIN TIM2_MspPostInit 0 */

  /* USER CODE END TIM2_MspPostInit 0 */
    __HAL_RCC_GPIOA_CLK_ENABLE();
 800572a:	2300      	movs	r3, #0
 800572c:	613b      	str	r3, [r7, #16]
 800572e:	4b32      	ldr	r3, [pc, #200]	; (80057f8 <HAL_TIM_MspPostInit+0xf0>)
 8005730:	6b1b      	ldr	r3, [r3, #48]	; 0x30
 8005732:	4a31      	ldr	r2, [pc, #196]	; (80057f8 <HAL_TIM_MspPostInit+0xf0>)
 8005734:	f043 0301 	orr.w	r3, r3, #1
 8005738:	6313      	str	r3, [r2, #48]	; 0x30
 800573a:	4b2f      	ldr	r3, [pc, #188]	; (80057f8 <HAL_TIM_MspPostInit+0xf0>)
 800573c:	6b1b      	ldr	r3, [r3, #48]	; 0x30
 800573e:	f003 0301 	and.w	r3, r3, #1
 8005742:	613b      	str	r3, [r7, #16]
 8005744:	693b      	ldr	r3, [r7, #16]
    __HAL_RCC_GPIOB_CLK_ENABLE();
 8005746:	2300      	movs	r3, #0
 8005748:	60fb      	str	r3, [r7, #12]
 800574a:	4b2b      	ldr	r3, [pc, #172]	; (80057f8 <HAL_TIM_MspPostInit+0xf0>)
 800574c:	6b1b      	ldr	r3, [r3, #48]	; 0x30
 800574e:	4a2a      	ldr	r2, [pc, #168]	; (80057f8 <HAL_TIM_MspPostInit+0xf0>)
 8005750:	f043 0302 	orr.w	r3, r3, #2
 8005754:	6313      	str	r3, [r2, #48]	; 0x30
 8005756:	4b28      	ldr	r3, [pc, #160]	; (80057f8 <HAL_TIM_MspPostInit+0xf0>)
 8005758:	6b1b      	ldr	r3, [r3, #48]	; 0x30
 800575a:	f003 0302 	and.w	r3, r3, #2
 800575e:	60fb      	str	r3, [r7, #12]
 8005760:	68fb      	ldr	r3, [r7, #12]
    PA1     ------> TIM2_CH2
    PB10     ------> TIM2_CH3
    PB11     ------> TIM2_CH4
    PA15     ------> TIM2_CH1
    */
    GPIO_InitStruct.Pin = LED_PWM_2_Pin|LED_PWM_1_Pin;
 8005762:	f248 0302 	movw	r3, #32770	; 0x8002
 8005766:	617b      	str	r3, [r7, #20]
    GPIO_InitStruct.Mode = GPIO_MODE_AF_PP;
 8005768:	2302      	movs	r3, #2
 800576a:	61bb      	str	r3, [r7, #24]
    GPIO_InitStruct.Pull = GPIO_NOPULL;
 800576c:	2300      	movs	r3, #0
 800576e:	61fb      	str	r3, [r7, #28]
    GPIO_InitStruct.Speed = GPIO_SPEED_FREQ_LOW;
 8005770:	2300      	movs	r3, #0
 8005772:	623b      	str	r3, [r7, #32]
    GPIO_InitStruct.Alternate = GPIO_AF1_TIM2;
 8005774:	2301      	movs	r3, #1
 8005776:	627b      	str	r3, [r7, #36]	; 0x24
    HAL_GPIO_Init(GPIOA, &GPIO_InitStruct);
 8005778:	f107 0314 	add.w	r3, r7, #20
 800577c:	4619      	mov	r1, r3
 800577e:	481f      	ldr	r0, [pc, #124]	; (80057fc <HAL_TIM_MspPostInit+0xf4>)
 8005780:	f001 fa28 	bl	8006bd4 <HAL_GPIO_Init>

    GPIO_InitStruct.Pin = LED_PWM_3_Pin|LED_PWM_4_Pin;
 8005784:	f44f 6340 	mov.w	r3, #3072	; 0xc00
 8005788:	617b      	str	r3, [r7, #20]
    GPIO_InitStruct.Mode = GPIO_MODE_AF_PP;
 800578a:	2302      	movs	r3, #2
 800578c:	61bb      	str	r3, [r7, #24]
    GPIO_InitStruct.Pull = GPIO_NOPULL;
 800578e:	2300      	movs	r3, #0
 8005790:	61fb      	str	r3, [r7, #28]
    GPIO_InitStruct.Speed = GPIO_SPEED_FREQ_LOW;
 8005792:	2300      	movs	r3, #0
 8005794:	623b      	str	r3, [r7, #32]
    GPIO_InitStruct.Alternate = GPIO_AF1_TIM2;
 8005796:	2301      	movs	r3, #1
 8005798:	627b      	str	r3, [r7, #36]	; 0x24
    HAL_GPIO_Init(GPIOB, &GPIO_InitStruct);
 800579a:	f107 0314 	add.w	r3, r7, #20
 800579e:	4619      	mov	r1, r3
 80057a0:	4817      	ldr	r0, [pc, #92]	; (8005800 <HAL_TIM_MspPostInit+0xf8>)
 80057a2:	f001 fa17 	bl	8006bd4 <HAL_GPIO_Init>
  /* USER CODE BEGIN TIM14_MspPostInit 1 */

  /* USER CODE END TIM14_MspPostInit 1 */
  }

}
 80057a6:	e022      	b.n	80057ee <HAL_TIM_MspPostInit+0xe6>
  else if(timHandle->Instance==TIM14)
 80057a8:	687b      	ldr	r3, [r7, #4]
 80057aa:	681b      	ldr	r3, [r3, #0]
 80057ac:	4a15      	ldr	r2, [pc, #84]	; (8005804 <HAL_TIM_MspPostInit+0xfc>)
 80057ae:	4293      	cmp	r3, r2
 80057b0:	d11d      	bne.n	80057ee <HAL_TIM_MspPostInit+0xe6>
    __HAL_RCC_GPIOA_CLK_ENABLE();
 80057b2:	2300      	movs	r3, #0
 80057b4:	60bb      	str	r3, [r7, #8]
 80057b6:	4b10      	ldr	r3, [pc, #64]	; (80057f8 <HAL_TIM_MspPostInit+0xf0>)
 80057b8:	6b1b      	ldr	r3, [r3, #48]	; 0x30
 80057ba:	4a0f      	ldr	r2, [pc, #60]	; (80057f8 <HAL_TIM_MspPostInit+0xf0>)
 80057bc:	f043 0301 	orr.w	r3, r3, #1
 80057c0:	6313      	str	r3, [r2, #48]	; 0x30
 80057c2:	4b0d      	ldr	r3, [pc, #52]	; (80057f8 <HAL_TIM_MspPostInit+0xf0>)
 80057c4:	6b1b      	ldr	r3, [r3, #48]	; 0x30
 80057c6:	f003 0301 	and.w	r3, r3, #1
 80057ca:	60bb      	str	r3, [r7, #8]
 80057cc:	68bb      	ldr	r3, [r7, #8]
    GPIO_InitStruct.Pin = SERVO_PWM_Pin;
 80057ce:	2380      	movs	r3, #128	; 0x80
 80057d0:	617b      	str	r3, [r7, #20]
    GPIO_InitStruct.Mode = GPIO_MODE_AF_PP;
 80057d2:	2302      	movs	r3, #2
 80057d4:	61bb      	str	r3, [r7, #24]
    GPIO_InitStruct.Pull = GPIO_NOPULL;
 80057d6:	2300      	movs	r3, #0
 80057d8:	61fb      	str	r3, [r7, #28]
    GPIO_InitStruct.Speed = GPIO_SPEED_FREQ_LOW;
 80057da:	2300      	movs	r3, #0
 80057dc:	623b      	str	r3, [r7, #32]
    GPIO_InitStruct.Alternate = GPIO_AF9_TIM14;
 80057de:	2309      	movs	r3, #9
 80057e0:	627b      	str	r3, [r7, #36]	; 0x24
    HAL_GPIO_Init(SERVO_PWM_GPIO_Port, &GPIO_InitStruct);
 80057e2:	f107 0314 	add.w	r3, r7, #20
 80057e6:	4619      	mov	r1, r3
 80057e8:	4804      	ldr	r0, [pc, #16]	; (80057fc <HAL_TIM_MspPostInit+0xf4>)
 80057ea:	f001 f9f3 	bl	8006bd4 <HAL_GPIO_Init>
}
 80057ee:	bf00      	nop
 80057f0:	3728      	adds	r7, #40	; 0x28
 80057f2:	46bd      	mov	sp, r7
 80057f4:	bd80      	pop	{r7, pc}
 80057f6:	bf00      	nop
 80057f8:	40023800 	.word	0x40023800
 80057fc:	40020000 	.word	0x40020000
 8005800:	40020400 	.word	0x40020400
 8005804:	40002000 	.word	0x40002000

08005808 <MX_UART4_Init>:
DMA_HandleTypeDef hdma_usart2_rx;
DMA_HandleTypeDef hdma_usart2_tx;

/* UART4 init function */
void MX_UART4_Init(void)
{
 8005808:	b580      	push	{r7, lr}
 800580a:	af00      	add	r7, sp, #0
  /* USER CODE END UART4_Init 0 */

  /* USER CODE BEGIN UART4_Init 1 */

  /* USER CODE END UART4_Init 1 */
  huart4.Instance = UART4;
 800580c:	4b11      	ldr	r3, [pc, #68]	; (8005854 <MX_UART4_Init+0x4c>)
 800580e:	4a12      	ldr	r2, [pc, #72]	; (8005858 <MX_UART4_Init+0x50>)
 8005810:	601a      	str	r2, [r3, #0]
  huart4.Init.BaudRate = 115200;
 8005812:	4b10      	ldr	r3, [pc, #64]	; (8005854 <MX_UART4_Init+0x4c>)
 8005814:	f44f 32e1 	mov.w	r2, #115200	; 0x1c200
 8005818:	605a      	str	r2, [r3, #4]
  huart4.Init.WordLength = UART_WORDLENGTH_8B;
 800581a:	4b0e      	ldr	r3, [pc, #56]	; (8005854 <MX_UART4_Init+0x4c>)
 800581c:	2200      	movs	r2, #0
 800581e:	609a      	str	r2, [r3, #8]
  huart4.Init.StopBits = UART_STOPBITS_1;
 8005820:	4b0c      	ldr	r3, [pc, #48]	; (8005854 <MX_UART4_Init+0x4c>)
 8005822:	2200      	movs	r2, #0
 8005824:	60da      	str	r2, [r3, #12]
  huart4.Init.Parity = UART_PARITY_NONE;
 8005826:	4b0b      	ldr	r3, [pc, #44]	; (8005854 <MX_UART4_Init+0x4c>)
 8005828:	2200      	movs	r2, #0
 800582a:	611a      	str	r2, [r3, #16]
  huart4.Init.Mode = UART_MODE_TX_RX;
 800582c:	4b09      	ldr	r3, [pc, #36]	; (8005854 <MX_UART4_Init+0x4c>)
 800582e:	220c      	movs	r2, #12
 8005830:	615a      	str	r2, [r3, #20]
  huart4.Init.HwFlowCtl = UART_HWCONTROL_NONE;
 8005832:	4b08      	ldr	r3, [pc, #32]	; (8005854 <MX_UART4_Init+0x4c>)
 8005834:	2200      	movs	r2, #0
 8005836:	619a      	str	r2, [r3, #24]
  huart4.Init.OverSampling = UART_OVERSAMPLING_16;
 8005838:	4b06      	ldr	r3, [pc, #24]	; (8005854 <MX_UART4_Init+0x4c>)
 800583a:	2200      	movs	r2, #0
 800583c:	61da      	str	r2, [r3, #28]
  if (HAL_UART_Init(&huart4) != HAL_OK)
 800583e:	4805      	ldr	r0, [pc, #20]	; (8005854 <MX_UART4_Init+0x4c>)
 8005840:	f003 fb4c 	bl	8008edc <HAL_UART_Init>
 8005844:	4603      	mov	r3, r0
 8005846:	2b00      	cmp	r3, #0
 8005848:	d001      	beq.n	800584e <MX_UART4_Init+0x46>
  {
    Error_Handler();
 800584a:	f7ff fc87 	bl	800515c <Error_Handler>
  }
  /* USER CODE BEGIN UART4_Init 2 */

  /* USER CODE END UART4_Init 2 */

}
 800584e:	bf00      	nop
 8005850:	bd80      	pop	{r7, pc}
 8005852:	bf00      	nop
 8005854:	200005b4 	.word	0x200005b4
 8005858:	40004c00 	.word	0x40004c00

0800585c <MX_USART2_UART_Init>:
/* USART2 init function */

void MX_USART2_UART_Init(void)
{
 800585c:	b580      	push	{r7, lr}
 800585e:	af00      	add	r7, sp, #0
  /* USER CODE END USART2_Init 0 */

  /* USER CODE BEGIN USART2_Init 1 */

  /* USER CODE END USART2_Init 1 */
  huart2.Instance = USART2;
 8005860:	4b11      	ldr	r3, [pc, #68]	; (80058a8 <MX_USART2_UART_Init+0x4c>)
 8005862:	4a12      	ldr	r2, [pc, #72]	; (80058ac <MX_USART2_UART_Init+0x50>)
 8005864:	601a      	str	r2, [r3, #0]
  huart2.Init.BaudRate = 38400;
 8005866:	4b10      	ldr	r3, [pc, #64]	; (80058a8 <MX_USART2_UART_Init+0x4c>)
 8005868:	f44f 4216 	mov.w	r2, #38400	; 0x9600
 800586c:	605a      	str	r2, [r3, #4]
  huart2.Init.WordLength = UART_WORDLENGTH_8B;
 800586e:	4b0e      	ldr	r3, [pc, #56]	; (80058a8 <MX_USART2_UART_Init+0x4c>)
 8005870:	2200      	movs	r2, #0
 8005872:	609a      	str	r2, [r3, #8]
  huart2.Init.StopBits = UART_STOPBITS_1;
 8005874:	4b0c      	ldr	r3, [pc, #48]	; (80058a8 <MX_USART2_UART_Init+0x4c>)
 8005876:	2200      	movs	r2, #0
 8005878:	60da      	str	r2, [r3, #12]
  huart2.Init.Parity = UART_PARITY_NONE;
 800587a:	4b0b      	ldr	r3, [pc, #44]	; (80058a8 <MX_USART2_UART_Init+0x4c>)
 800587c:	2200      	movs	r2, #0
 800587e:	611a      	str	r2, [r3, #16]
  huart2.Init.Mode = UART_MODE_TX_RX;
 8005880:	4b09      	ldr	r3, [pc, #36]	; (80058a8 <MX_USART2_UART_Init+0x4c>)
 8005882:	220c      	movs	r2, #12
 8005884:	615a      	str	r2, [r3, #20]
  huart2.Init.HwFlowCtl = UART_HWCONTROL_NONE;
 8005886:	4b08      	ldr	r3, [pc, #32]	; (80058a8 <MX_USART2_UART_Init+0x4c>)
 8005888:	2200      	movs	r2, #0
 800588a:	619a      	str	r2, [r3, #24]
  huart2.Init.OverSampling = UART_OVERSAMPLING_16;
 800588c:	4b06      	ldr	r3, [pc, #24]	; (80058a8 <MX_USART2_UART_Init+0x4c>)
 800588e:	2200      	movs	r2, #0
 8005890:	61da      	str	r2, [r3, #28]
  if (HAL_UART_Init(&huart2) != HAL_OK)
 8005892:	4805      	ldr	r0, [pc, #20]	; (80058a8 <MX_USART2_UART_Init+0x4c>)
 8005894:	f003 fb22 	bl	8008edc <HAL_UART_Init>
 8005898:	4603      	mov	r3, r0
 800589a:	2b00      	cmp	r3, #0
 800589c:	d001      	beq.n	80058a2 <MX_USART2_UART_Init+0x46>
  {
    Error_Handler();
 800589e:	f7ff fc5d 	bl	800515c <Error_Handler>
  }
  /* USER CODE BEGIN USART2_Init 2 */

  /* USER CODE END USART2_Init 2 */

}
 80058a2:	bf00      	nop
 80058a4:	bd80      	pop	{r7, pc}
 80058a6:	bf00      	nop
 80058a8:	200005f8 	.word	0x200005f8
 80058ac:	40004400 	.word	0x40004400

080058b0 <HAL_UART_MspInit>:

void HAL_UART_MspInit(UART_HandleTypeDef* uartHandle)
{
 80058b0:	b580      	push	{r7, lr}
 80058b2:	b08c      	sub	sp, #48	; 0x30
 80058b4:	af00      	add	r7, sp, #0
 80058b6:	6078      	str	r0, [r7, #4]

  GPIO_InitTypeDef GPIO_InitStruct = {0};
 80058b8:	f107 031c 	add.w	r3, r7, #28
 80058bc:	2200      	movs	r2, #0
 80058be:	601a      	str	r2, [r3, #0]
 80058c0:	605a      	str	r2, [r3, #4]
 80058c2:	609a      	str	r2, [r3, #8]
 80058c4:	60da      	str	r2, [r3, #12]
 80058c6:	611a      	str	r2, [r3, #16]
  if(uartHandle->Instance==UART4)
 80058c8:	687b      	ldr	r3, [r7, #4]
 80058ca:	681b      	ldr	r3, [r3, #0]
 80058cc:	4a99      	ldr	r2, [pc, #612]	; (8005b34 <HAL_UART_MspInit+0x284>)
 80058ce:	4293      	cmp	r3, r2
 80058d0:	f040 8094 	bne.w	80059fc <HAL_UART_MspInit+0x14c>
  {
  /* USER CODE BEGIN UART4_MspInit 0 */

  /* USER CODE END UART4_MspInit 0 */
    /* UART4 clock enable */
    __HAL_RCC_UART4_CLK_ENABLE();
 80058d4:	2300      	movs	r3, #0
 80058d6:	61bb      	str	r3, [r7, #24]
 80058d8:	4b97      	ldr	r3, [pc, #604]	; (8005b38 <HAL_UART_MspInit+0x288>)
 80058da:	6c1b      	ldr	r3, [r3, #64]	; 0x40
 80058dc:	4a96      	ldr	r2, [pc, #600]	; (8005b38 <HAL_UART_MspInit+0x288>)
 80058de:	f443 2300 	orr.w	r3, r3, #524288	; 0x80000
 80058e2:	6413      	str	r3, [r2, #64]	; 0x40
 80058e4:	4b94      	ldr	r3, [pc, #592]	; (8005b38 <HAL_UART_MspInit+0x288>)
 80058e6:	6c1b      	ldr	r3, [r3, #64]	; 0x40
 80058e8:	f403 2300 	and.w	r3, r3, #524288	; 0x80000
 80058ec:	61bb      	str	r3, [r7, #24]
 80058ee:	69bb      	ldr	r3, [r7, #24]

    __HAL_RCC_GPIOC_CLK_ENABLE();
 80058f0:	2300      	movs	r3, #0
 80058f2:	617b      	str	r3, [r7, #20]
 80058f4:	4b90      	ldr	r3, [pc, #576]	; (8005b38 <HAL_UART_MspInit+0x288>)
 80058f6:	6b1b      	ldr	r3, [r3, #48]	; 0x30
 80058f8:	4a8f      	ldr	r2, [pc, #572]	; (8005b38 <HAL_UART_MspInit+0x288>)
 80058fa:	f043 0304 	orr.w	r3, r3, #4
 80058fe:	6313      	str	r3, [r2, #48]	; 0x30
 8005900:	4b8d      	ldr	r3, [pc, #564]	; (8005b38 <HAL_UART_MspInit+0x288>)
 8005902:	6b1b      	ldr	r3, [r3, #48]	; 0x30
 8005904:	f003 0304 	and.w	r3, r3, #4
 8005908:	617b      	str	r3, [r7, #20]
 800590a:	697b      	ldr	r3, [r7, #20]
    /**UART4 GPIO Configuration
    PC10     ------> UART4_TX
    PC11     ------> UART4_RX
    */
    GPIO_InitStruct.Pin = JETSON_TX_Pin|JETSON_RX_Pin;
 800590c:	f44f 6340 	mov.w	r3, #3072	; 0xc00
 8005910:	61fb      	str	r3, [r7, #28]
    GPIO_InitStruct.Mode = GPIO_MODE_AF_PP;
 8005912:	2302      	movs	r3, #2
 8005914:	623b      	str	r3, [r7, #32]
    GPIO_InitStruct.Pull = GPIO_NOPULL;
 8005916:	2300      	movs	r3, #0
 8005918:	627b      	str	r3, [r7, #36]	; 0x24
    GPIO_InitStruct.Speed = GPIO_SPEED_FREQ_VERY_HIGH;
 800591a:	2303      	movs	r3, #3
 800591c:	62bb      	str	r3, [r7, #40]	; 0x28
    GPIO_InitStruct.Alternate = GPIO_AF8_UART4;
 800591e:	2308      	movs	r3, #8
 8005920:	62fb      	str	r3, [r7, #44]	; 0x2c
    HAL_GPIO_Init(GPIOC, &GPIO_InitStruct);
 8005922:	f107 031c 	add.w	r3, r7, #28
 8005926:	4619      	mov	r1, r3
 8005928:	4884      	ldr	r0, [pc, #528]	; (8005b3c <HAL_UART_MspInit+0x28c>)
 800592a:	f001 f953 	bl	8006bd4 <HAL_GPIO_Init>

    /* UART4 DMA Init */
    /* UART4_RX Init */
    hdma_uart4_rx.Instance = DMA1_Stream2;
 800592e:	4b84      	ldr	r3, [pc, #528]	; (8005b40 <HAL_UART_MspInit+0x290>)
 8005930:	4a84      	ldr	r2, [pc, #528]	; (8005b44 <HAL_UART_MspInit+0x294>)
 8005932:	601a      	str	r2, [r3, #0]
    hdma_uart4_rx.Init.Channel = DMA_CHANNEL_4;
 8005934:	4b82      	ldr	r3, [pc, #520]	; (8005b40 <HAL_UART_MspInit+0x290>)
 8005936:	f04f 6200 	mov.w	r2, #134217728	; 0x8000000
 800593a:	605a      	str	r2, [r3, #4]
    hdma_uart4_rx.Init.Direction = DMA_PERIPH_TO_MEMORY;
 800593c:	4b80      	ldr	r3, [pc, #512]	; (8005b40 <HAL_UART_MspInit+0x290>)
 800593e:	2200      	movs	r2, #0
 8005940:	609a      	str	r2, [r3, #8]
    hdma_uart4_rx.Init.PeriphInc = DMA_PINC_DISABLE;
 8005942:	4b7f      	ldr	r3, [pc, #508]	; (8005b40 <HAL_UART_MspInit+0x290>)
 8005944:	2200      	movs	r2, #0
 8005946:	60da      	str	r2, [r3, #12]
    hdma_uart4_rx.Init.MemInc = DMA_MINC_ENABLE;
 8005948:	4b7d      	ldr	r3, [pc, #500]	; (8005b40 <HAL_UART_MspInit+0x290>)
 800594a:	f44f 6280 	mov.w	r2, #1024	; 0x400
 800594e:	611a      	str	r2, [r3, #16]
    hdma_uart4_rx.Init.PeriphDataAlignment = DMA_PDATAALIGN_BYTE;
 8005950:	4b7b      	ldr	r3, [pc, #492]	; (8005b40 <HAL_UART_MspInit+0x290>)
 8005952:	2200      	movs	r2, #0
 8005954:	615a      	str	r2, [r3, #20]
    hdma_uart4_rx.Init.MemDataAlignment = DMA_MDATAALIGN_BYTE;
 8005956:	4b7a      	ldr	r3, [pc, #488]	; (8005b40 <HAL_UART_MspInit+0x290>)
 8005958:	2200      	movs	r2, #0
 800595a:	619a      	str	r2, [r3, #24]
    hdma_uart4_rx.Init.Mode = DMA_NORMAL;
 800595c:	4b78      	ldr	r3, [pc, #480]	; (8005b40 <HAL_UART_MspInit+0x290>)
 800595e:	2200      	movs	r2, #0
 8005960:	61da      	str	r2, [r3, #28]
    hdma_uart4_rx.Init.Priority = DMA_PRIORITY_HIGH;
 8005962:	4b77      	ldr	r3, [pc, #476]	; (8005b40 <HAL_UART_MspInit+0x290>)
 8005964:	f44f 3200 	mov.w	r2, #131072	; 0x20000
 8005968:	621a      	str	r2, [r3, #32]
    hdma_uart4_rx.Init.FIFOMode = DMA_FIFOMODE_DISABLE;
 800596a:	4b75      	ldr	r3, [pc, #468]	; (8005b40 <HAL_UART_MspInit+0x290>)
 800596c:	2200      	movs	r2, #0
 800596e:	625a      	str	r2, [r3, #36]	; 0x24
    if (HAL_DMA_Init(&hdma_uart4_rx) != HAL_OK)
 8005970:	4873      	ldr	r0, [pc, #460]	; (8005b40 <HAL_UART_MspInit+0x290>)
 8005972:	f000 fd2d 	bl	80063d0 <HAL_DMA_Init>
 8005976:	4603      	mov	r3, r0
 8005978:	2b00      	cmp	r3, #0
 800597a:	d001      	beq.n	8005980 <HAL_UART_MspInit+0xd0>
    {
      Error_Handler();
 800597c:	f7ff fbee 	bl	800515c <Error_Handler>
    }

    __HAL_LINKDMA(uartHandle,hdmarx,hdma_uart4_rx);
 8005980:	687b      	ldr	r3, [r7, #4]
 8005982:	4a6f      	ldr	r2, [pc, #444]	; (8005b40 <HAL_UART_MspInit+0x290>)
 8005984:	639a      	str	r2, [r3, #56]	; 0x38
 8005986:	4a6e      	ldr	r2, [pc, #440]	; (8005b40 <HAL_UART_MspInit+0x290>)
 8005988:	687b      	ldr	r3, [r7, #4]
 800598a:	6393      	str	r3, [r2, #56]	; 0x38

    /* UART4_TX Init */
    hdma_uart4_tx.Instance = DMA1_Stream4;
 800598c:	4b6e      	ldr	r3, [pc, #440]	; (8005b48 <HAL_UART_MspInit+0x298>)
 800598e:	4a6f      	ldr	r2, [pc, #444]	; (8005b4c <HAL_UART_MspInit+0x29c>)
 8005990:	601a      	str	r2, [r3, #0]
    hdma_uart4_tx.Init.Channel = DMA_CHANNEL_4;
 8005992:	4b6d      	ldr	r3, [pc, #436]	; (8005b48 <HAL_UART_MspInit+0x298>)
 8005994:	f04f 6200 	mov.w	r2, #134217728	; 0x8000000
 8005998:	605a      	str	r2, [r3, #4]
    hdma_uart4_tx.Init.Direction = DMA_MEMORY_TO_PERIPH;
 800599a:	4b6b      	ldr	r3, [pc, #428]	; (8005b48 <HAL_UART_MspInit+0x298>)
 800599c:	2240      	movs	r2, #64	; 0x40
 800599e:	609a      	str	r2, [r3, #8]
    hdma_uart4_tx.Init.PeriphInc = DMA_PINC_DISABLE;
 80059a0:	4b69      	ldr	r3, [pc, #420]	; (8005b48 <HAL_UART_MspInit+0x298>)
 80059a2:	2200      	movs	r2, #0
 80059a4:	60da      	str	r2, [r3, #12]
    hdma_uart4_tx.Init.MemInc = DMA_MINC_ENABLE;
 80059a6:	4b68      	ldr	r3, [pc, #416]	; (8005b48 <HAL_UART_MspInit+0x298>)
 80059a8:	f44f 6280 	mov.w	r2, #1024	; 0x400
 80059ac:	611a      	str	r2, [r3, #16]
    hdma_uart4_tx.Init.PeriphDataAlignment = DMA_PDATAALIGN_BYTE;
 80059ae:	4b66      	ldr	r3, [pc, #408]	; (8005b48 <HAL_UART_MspInit+0x298>)
 80059b0:	2200      	movs	r2, #0
 80059b2:	615a      	str	r2, [r3, #20]
    hdma_uart4_tx.Init.MemDataAlignment = DMA_MDATAALIGN_BYTE;
 80059b4:	4b64      	ldr	r3, [pc, #400]	; (8005b48 <HAL_UART_MspInit+0x298>)
 80059b6:	2200      	movs	r2, #0
 80059b8:	619a      	str	r2, [r3, #24]
    hdma_uart4_tx.Init.Mode = DMA_NORMAL;
 80059ba:	4b63      	ldr	r3, [pc, #396]	; (8005b48 <HAL_UART_MspInit+0x298>)
 80059bc:	2200      	movs	r2, #0
 80059be:	61da      	str	r2, [r3, #28]
    hdma_uart4_tx.Init.Priority = DMA_PRIORITY_HIGH;
 80059c0:	4b61      	ldr	r3, [pc, #388]	; (8005b48 <HAL_UART_MspInit+0x298>)
 80059c2:	f44f 3200 	mov.w	r2, #131072	; 0x20000
 80059c6:	621a      	str	r2, [r3, #32]
    hdma_uart4_tx.Init.FIFOMode = DMA_FIFOMODE_DISABLE;
 80059c8:	4b5f      	ldr	r3, [pc, #380]	; (8005b48 <HAL_UART_MspInit+0x298>)
 80059ca:	2200      	movs	r2, #0
 80059cc:	625a      	str	r2, [r3, #36]	; 0x24
    if (HAL_DMA_Init(&hdma_uart4_tx) != HAL_OK)
 80059ce:	485e      	ldr	r0, [pc, #376]	; (8005b48 <HAL_UART_MspInit+0x298>)
 80059d0:	f000 fcfe 	bl	80063d0 <HAL_DMA_Init>
 80059d4:	4603      	mov	r3, r0
 80059d6:	2b00      	cmp	r3, #0
 80059d8:	d001      	beq.n	80059de <HAL_UART_MspInit+0x12e>
    {
      Error_Handler();
 80059da:	f7ff fbbf 	bl	800515c <Error_Handler>
    }

    __HAL_LINKDMA(uartHandle,hdmatx,hdma_uart4_tx);
 80059de:	687b      	ldr	r3, [r7, #4]
 80059e0:	4a59      	ldr	r2, [pc, #356]	; (8005b48 <HAL_UART_MspInit+0x298>)
 80059e2:	635a      	str	r2, [r3, #52]	; 0x34
 80059e4:	4a58      	ldr	r2, [pc, #352]	; (8005b48 <HAL_UART_MspInit+0x298>)
 80059e6:	687b      	ldr	r3, [r7, #4]
 80059e8:	6393      	str	r3, [r2, #56]	; 0x38

    /* UART4 interrupt Init */
    HAL_NVIC_SetPriority(UART4_IRQn, 0, 0);
 80059ea:	2200      	movs	r2, #0
 80059ec:	2100      	movs	r1, #0
 80059ee:	2034      	movs	r0, #52	; 0x34
 80059f0:	f000 fcb7 	bl	8006362 <HAL_NVIC_SetPriority>
    HAL_NVIC_EnableIRQ(UART4_IRQn);
 80059f4:	2034      	movs	r0, #52	; 0x34
 80059f6:	f000 fcd0 	bl	800639a <HAL_NVIC_EnableIRQ>
    HAL_NVIC_EnableIRQ(USART2_IRQn);
  /* USER CODE BEGIN USART2_MspInit 1 */

  /* USER CODE END USART2_MspInit 1 */
  }
}
 80059fa:	e097      	b.n	8005b2c <HAL_UART_MspInit+0x27c>
  else if(uartHandle->Instance==USART2)
 80059fc:	687b      	ldr	r3, [r7, #4]
 80059fe:	681b      	ldr	r3, [r3, #0]
 8005a00:	4a53      	ldr	r2, [pc, #332]	; (8005b50 <HAL_UART_MspInit+0x2a0>)
 8005a02:	4293      	cmp	r3, r2
 8005a04:	f040 8092 	bne.w	8005b2c <HAL_UART_MspInit+0x27c>
    __HAL_RCC_USART2_CLK_ENABLE();
 8005a08:	2300      	movs	r3, #0
 8005a0a:	613b      	str	r3, [r7, #16]
 8005a0c:	4b4a      	ldr	r3, [pc, #296]	; (8005b38 <HAL_UART_MspInit+0x288>)
 8005a0e:	6c1b      	ldr	r3, [r3, #64]	; 0x40
 8005a10:	4a49      	ldr	r2, [pc, #292]	; (8005b38 <HAL_UART_MspInit+0x288>)
 8005a12:	f443 3300 	orr.w	r3, r3, #131072	; 0x20000
 8005a16:	6413      	str	r3, [r2, #64]	; 0x40
 8005a18:	4b47      	ldr	r3, [pc, #284]	; (8005b38 <HAL_UART_MspInit+0x288>)
 8005a1a:	6c1b      	ldr	r3, [r3, #64]	; 0x40
 8005a1c:	f403 3300 	and.w	r3, r3, #131072	; 0x20000
 8005a20:	613b      	str	r3, [r7, #16]
 8005a22:	693b      	ldr	r3, [r7, #16]
    __HAL_RCC_GPIOD_CLK_ENABLE();
 8005a24:	2300      	movs	r3, #0
 8005a26:	60fb      	str	r3, [r7, #12]
 8005a28:	4b43      	ldr	r3, [pc, #268]	; (8005b38 <HAL_UART_MspInit+0x288>)
 8005a2a:	6b1b      	ldr	r3, [r3, #48]	; 0x30
 8005a2c:	4a42      	ldr	r2, [pc, #264]	; (8005b38 <HAL_UART_MspInit+0x288>)
 8005a2e:	f043 0308 	orr.w	r3, r3, #8
 8005a32:	6313      	str	r3, [r2, #48]	; 0x30
 8005a34:	4b40      	ldr	r3, [pc, #256]	; (8005b38 <HAL_UART_MspInit+0x288>)
 8005a36:	6b1b      	ldr	r3, [r3, #48]	; 0x30
 8005a38:	f003 0308 	and.w	r3, r3, #8
 8005a3c:	60fb      	str	r3, [r7, #12]
 8005a3e:	68fb      	ldr	r3, [r7, #12]
    GPIO_InitStruct.Pin = GYROSCOOTER_TX_Pin|GYROSCOOTER_RX_Pin;
 8005a40:	2360      	movs	r3, #96	; 0x60
 8005a42:	61fb      	str	r3, [r7, #28]
    GPIO_InitStruct.Mode = GPIO_MODE_AF_PP;
 8005a44:	2302      	movs	r3, #2
 8005a46:	623b      	str	r3, [r7, #32]
    GPIO_InitStruct.Pull = GPIO_NOPULL;
 8005a48:	2300      	movs	r3, #0
 8005a4a:	627b      	str	r3, [r7, #36]	; 0x24
    GPIO_InitStruct.Speed = GPIO_SPEED_FREQ_VERY_HIGH;
 8005a4c:	2303      	movs	r3, #3
 8005a4e:	62bb      	str	r3, [r7, #40]	; 0x28
    GPIO_InitStruct.Alternate = GPIO_AF7_USART2;
 8005a50:	2307      	movs	r3, #7
 8005a52:	62fb      	str	r3, [r7, #44]	; 0x2c
    HAL_GPIO_Init(GPIOD, &GPIO_InitStruct);
 8005a54:	f107 031c 	add.w	r3, r7, #28
 8005a58:	4619      	mov	r1, r3
 8005a5a:	483e      	ldr	r0, [pc, #248]	; (8005b54 <HAL_UART_MspInit+0x2a4>)
 8005a5c:	f001 f8ba 	bl	8006bd4 <HAL_GPIO_Init>
    hdma_usart2_rx.Instance = DMA1_Stream5;
 8005a60:	4b3d      	ldr	r3, [pc, #244]	; (8005b58 <HAL_UART_MspInit+0x2a8>)
 8005a62:	4a3e      	ldr	r2, [pc, #248]	; (8005b5c <HAL_UART_MspInit+0x2ac>)
 8005a64:	601a      	str	r2, [r3, #0]
    hdma_usart2_rx.Init.Channel = DMA_CHANNEL_4;
 8005a66:	4b3c      	ldr	r3, [pc, #240]	; (8005b58 <HAL_UART_MspInit+0x2a8>)
 8005a68:	f04f 6200 	mov.w	r2, #134217728	; 0x8000000
 8005a6c:	605a      	str	r2, [r3, #4]
    hdma_usart2_rx.Init.Direction = DMA_PERIPH_TO_MEMORY;
 8005a6e:	4b3a      	ldr	r3, [pc, #232]	; (8005b58 <HAL_UART_MspInit+0x2a8>)
 8005a70:	2200      	movs	r2, #0
 8005a72:	609a      	str	r2, [r3, #8]
    hdma_usart2_rx.Init.PeriphInc = DMA_PINC_DISABLE;
 8005a74:	4b38      	ldr	r3, [pc, #224]	; (8005b58 <HAL_UART_MspInit+0x2a8>)
 8005a76:	2200      	movs	r2, #0
 8005a78:	60da      	str	r2, [r3, #12]
    hdma_usart2_rx.Init.MemInc = DMA_MINC_ENABLE;
 8005a7a:	4b37      	ldr	r3, [pc, #220]	; (8005b58 <HAL_UART_MspInit+0x2a8>)
 8005a7c:	f44f 6280 	mov.w	r2, #1024	; 0x400
 8005a80:	611a      	str	r2, [r3, #16]
    hdma_usart2_rx.Init.PeriphDataAlignment = DMA_PDATAALIGN_BYTE;
 8005a82:	4b35      	ldr	r3, [pc, #212]	; (8005b58 <HAL_UART_MspInit+0x2a8>)
 8005a84:	2200      	movs	r2, #0
 8005a86:	615a      	str	r2, [r3, #20]
    hdma_usart2_rx.Init.MemDataAlignment = DMA_MDATAALIGN_BYTE;
 8005a88:	4b33      	ldr	r3, [pc, #204]	; (8005b58 <HAL_UART_MspInit+0x2a8>)
 8005a8a:	2200      	movs	r2, #0
 8005a8c:	619a      	str	r2, [r3, #24]
    hdma_usart2_rx.Init.Mode = DMA_NORMAL;
 8005a8e:	4b32      	ldr	r3, [pc, #200]	; (8005b58 <HAL_UART_MspInit+0x2a8>)
 8005a90:	2200      	movs	r2, #0
 8005a92:	61da      	str	r2, [r3, #28]
    hdma_usart2_rx.Init.Priority = DMA_PRIORITY_HIGH;
 8005a94:	4b30      	ldr	r3, [pc, #192]	; (8005b58 <HAL_UART_MspInit+0x2a8>)
 8005a96:	f44f 3200 	mov.w	r2, #131072	; 0x20000
 8005a9a:	621a      	str	r2, [r3, #32]
    hdma_usart2_rx.Init.FIFOMode = DMA_FIFOMODE_DISABLE;
 8005a9c:	4b2e      	ldr	r3, [pc, #184]	; (8005b58 <HAL_UART_MspInit+0x2a8>)
 8005a9e:	2200      	movs	r2, #0
 8005aa0:	625a      	str	r2, [r3, #36]	; 0x24
    if (HAL_DMA_Init(&hdma_usart2_rx) != HAL_OK)
 8005aa2:	482d      	ldr	r0, [pc, #180]	; (8005b58 <HAL_UART_MspInit+0x2a8>)
 8005aa4:	f000 fc94 	bl	80063d0 <HAL_DMA_Init>
 8005aa8:	4603      	mov	r3, r0
 8005aaa:	2b00      	cmp	r3, #0
 8005aac:	d001      	beq.n	8005ab2 <HAL_UART_MspInit+0x202>
      Error_Handler();
 8005aae:	f7ff fb55 	bl	800515c <Error_Handler>
    __HAL_LINKDMA(uartHandle,hdmarx,hdma_usart2_rx);
 8005ab2:	687b      	ldr	r3, [r7, #4]
 8005ab4:	4a28      	ldr	r2, [pc, #160]	; (8005b58 <HAL_UART_MspInit+0x2a8>)
 8005ab6:	639a      	str	r2, [r3, #56]	; 0x38
 8005ab8:	4a27      	ldr	r2, [pc, #156]	; (8005b58 <HAL_UART_MspInit+0x2a8>)
 8005aba:	687b      	ldr	r3, [r7, #4]
 8005abc:	6393      	str	r3, [r2, #56]	; 0x38
    hdma_usart2_tx.Instance = DMA1_Stream6;
 8005abe:	4b28      	ldr	r3, [pc, #160]	; (8005b60 <HAL_UART_MspInit+0x2b0>)
 8005ac0:	4a28      	ldr	r2, [pc, #160]	; (8005b64 <HAL_UART_MspInit+0x2b4>)
 8005ac2:	601a      	str	r2, [r3, #0]
    hdma_usart2_tx.Init.Channel = DMA_CHANNEL_4;
 8005ac4:	4b26      	ldr	r3, [pc, #152]	; (8005b60 <HAL_UART_MspInit+0x2b0>)
 8005ac6:	f04f 6200 	mov.w	r2, #134217728	; 0x8000000
 8005aca:	605a      	str	r2, [r3, #4]
    hdma_usart2_tx.Init.Direction = DMA_MEMORY_TO_PERIPH;
 8005acc:	4b24      	ldr	r3, [pc, #144]	; (8005b60 <HAL_UART_MspInit+0x2b0>)
 8005ace:	2240      	movs	r2, #64	; 0x40
 8005ad0:	609a      	str	r2, [r3, #8]
    hdma_usart2_tx.Init.PeriphInc = DMA_PINC_DISABLE;
 8005ad2:	4b23      	ldr	r3, [pc, #140]	; (8005b60 <HAL_UART_MspInit+0x2b0>)
 8005ad4:	2200      	movs	r2, #0
 8005ad6:	60da      	str	r2, [r3, #12]
    hdma_usart2_tx.Init.MemInc = DMA_MINC_ENABLE;
 8005ad8:	4b21      	ldr	r3, [pc, #132]	; (8005b60 <HAL_UART_MspInit+0x2b0>)
 8005ada:	f44f 6280 	mov.w	r2, #1024	; 0x400
 8005ade:	611a      	str	r2, [r3, #16]
    hdma_usart2_tx.Init.PeriphDataAlignment = DMA_PDATAALIGN_BYTE;
 8005ae0:	4b1f      	ldr	r3, [pc, #124]	; (8005b60 <HAL_UART_MspInit+0x2b0>)
 8005ae2:	2200      	movs	r2, #0
 8005ae4:	615a      	str	r2, [r3, #20]
    hdma_usart2_tx.Init.MemDataAlignment = DMA_MDATAALIGN_BYTE;
 8005ae6:	4b1e      	ldr	r3, [pc, #120]	; (8005b60 <HAL_UART_MspInit+0x2b0>)
 8005ae8:	2200      	movs	r2, #0
 8005aea:	619a      	str	r2, [r3, #24]
    hdma_usart2_tx.Init.Mode = DMA_NORMAL;
 8005aec:	4b1c      	ldr	r3, [pc, #112]	; (8005b60 <HAL_UART_MspInit+0x2b0>)
 8005aee:	2200      	movs	r2, #0
 8005af0:	61da      	str	r2, [r3, #28]
    hdma_usart2_tx.Init.Priority = DMA_PRIORITY_HIGH;
 8005af2:	4b1b      	ldr	r3, [pc, #108]	; (8005b60 <HAL_UART_MspInit+0x2b0>)
 8005af4:	f44f 3200 	mov.w	r2, #131072	; 0x20000
 8005af8:	621a      	str	r2, [r3, #32]
    hdma_usart2_tx.Init.FIFOMode = DMA_FIFOMODE_DISABLE;
 8005afa:	4b19      	ldr	r3, [pc, #100]	; (8005b60 <HAL_UART_MspInit+0x2b0>)
 8005afc:	2200      	movs	r2, #0
 8005afe:	625a      	str	r2, [r3, #36]	; 0x24
    if (HAL_DMA_Init(&hdma_usart2_tx) != HAL_OK)
 8005b00:	4817      	ldr	r0, [pc, #92]	; (8005b60 <HAL_UART_MspInit+0x2b0>)
 8005b02:	f000 fc65 	bl	80063d0 <HAL_DMA_Init>
 8005b06:	4603      	mov	r3, r0
 8005b08:	2b00      	cmp	r3, #0
 8005b0a:	d001      	beq.n	8005b10 <HAL_UART_MspInit+0x260>
      Error_Handler();
 8005b0c:	f7ff fb26 	bl	800515c <Error_Handler>
    __HAL_LINKDMA(uartHandle,hdmatx,hdma_usart2_tx);
 8005b10:	687b      	ldr	r3, [r7, #4]
 8005b12:	4a13      	ldr	r2, [pc, #76]	; (8005b60 <HAL_UART_MspInit+0x2b0>)
 8005b14:	635a      	str	r2, [r3, #52]	; 0x34
 8005b16:	4a12      	ldr	r2, [pc, #72]	; (8005b60 <HAL_UART_MspInit+0x2b0>)
 8005b18:	687b      	ldr	r3, [r7, #4]
 8005b1a:	6393      	str	r3, [r2, #56]	; 0x38
    HAL_NVIC_SetPriority(USART2_IRQn, 0, 0);
 8005b1c:	2200      	movs	r2, #0
 8005b1e:	2100      	movs	r1, #0
 8005b20:	2026      	movs	r0, #38	; 0x26
 8005b22:	f000 fc1e 	bl	8006362 <HAL_NVIC_SetPriority>
    HAL_NVIC_EnableIRQ(USART2_IRQn);
 8005b26:	2026      	movs	r0, #38	; 0x26
 8005b28:	f000 fc37 	bl	800639a <HAL_NVIC_EnableIRQ>
}
 8005b2c:	bf00      	nop
 8005b2e:	3730      	adds	r7, #48	; 0x30
 8005b30:	46bd      	mov	sp, r7
 8005b32:	bd80      	pop	{r7, pc}
 8005b34:	40004c00 	.word	0x40004c00
 8005b38:	40023800 	.word	0x40023800
 8005b3c:	40020800 	.word	0x40020800
 8005b40:	20000494 	.word	0x20000494
 8005b44:	40026040 	.word	0x40026040
 8005b48:	2000063c 	.word	0x2000063c
 8005b4c:	40026070 	.word	0x40026070
 8005b50:	40004400 	.word	0x40004400
 8005b54:	40020c00 	.word	0x40020c00
 8005b58:	200004f4 	.word	0x200004f4
 8005b5c:	40026088 	.word	0x40026088
 8005b60:	20000554 	.word	0x20000554
 8005b64:	400260a0 	.word	0x400260a0

08005b68 <Reset_Handler>:

    .section  .text.Reset_Handler
  .weak  Reset_Handler
  .type  Reset_Handler, %function
Reset_Handler:  
  ldr   sp, =_estack     /* set stack pointer */
 8005b68:	f8df d034 	ldr.w	sp, [pc, #52]	; 8005ba0 <LoopFillZerobss+0x12>

/* Copy the data segment initializers from flash to SRAM */  
  ldr r0, =_sdata
 8005b6c:	480d      	ldr	r0, [pc, #52]	; (8005ba4 <LoopFillZerobss+0x16>)
  ldr r1, =_edata
 8005b6e:	490e      	ldr	r1, [pc, #56]	; (8005ba8 <LoopFillZerobss+0x1a>)
  ldr r2, =_sidata
 8005b70:	4a0e      	ldr	r2, [pc, #56]	; (8005bac <LoopFillZerobss+0x1e>)
  movs r3, #0
 8005b72:	2300      	movs	r3, #0
  b LoopCopyDataInit
 8005b74:	e002      	b.n	8005b7c <LoopCopyDataInit>

08005b76 <CopyDataInit>:

CopyDataInit:
  ldr r4, [r2, r3]
 8005b76:	58d4      	ldr	r4, [r2, r3]
  str r4, [r0, r3]
 8005b78:	50c4      	str	r4, [r0, r3]
  adds r3, r3, #4
 8005b7a:	3304      	adds	r3, #4

08005b7c <LoopCopyDataInit>:

LoopCopyDataInit:
  adds r4, r0, r3
 8005b7c:	18c4      	adds	r4, r0, r3
  cmp r4, r1
 8005b7e:	428c      	cmp	r4, r1
  bcc CopyDataInit
 8005b80:	d3f9      	bcc.n	8005b76 <CopyDataInit>
  
/* Zero fill the bss segment. */
  ldr r2, =_sbss
 8005b82:	4a0b      	ldr	r2, [pc, #44]	; (8005bb0 <LoopFillZerobss+0x22>)
  ldr r4, =_ebss
 8005b84:	4c0b      	ldr	r4, [pc, #44]	; (8005bb4 <LoopFillZerobss+0x26>)
  movs r3, #0
 8005b86:	2300      	movs	r3, #0
  b LoopFillZerobss
 8005b88:	e001      	b.n	8005b8e <LoopFillZerobss>

08005b8a <FillZerobss>:

FillZerobss:
  str  r3, [r2]
 8005b8a:	6013      	str	r3, [r2, #0]
  adds r2, r2, #4
 8005b8c:	3204      	adds	r2, #4

08005b8e <LoopFillZerobss>:

LoopFillZerobss:
  cmp r2, r4
 8005b8e:	42a2      	cmp	r2, r4
  bcc FillZerobss
 8005b90:	d3fb      	bcc.n	8005b8a <FillZerobss>

/* Call the clock system intitialization function.*/
  bl  SystemInit   
 8005b92:	f7ff fbf5 	bl	8005380 <SystemInit>
/* Call static constructors */
    bl __libc_init_array
 8005b96:	f005 fb47 	bl	800b228 <__libc_init_array>
/* Call the application's entry point.*/
  bl  main
 8005b9a:	f7ff f8f1 	bl	8004d80 <main>
  bx  lr    
 8005b9e:	4770      	bx	lr
  ldr   sp, =_estack     /* set stack pointer */
 8005ba0:	20020000 	.word	0x20020000
  ldr r0, =_sdata
 8005ba4:	20000000 	.word	0x20000000
  ldr r1, =_edata
 8005ba8:	200000a0 	.word	0x200000a0
  ldr r2, =_sidata
 8005bac:	0800b6fc 	.word	0x0800b6fc
  ldr r2, =_sbss
 8005bb0:	200000a0 	.word	0x200000a0
  ldr r4, =_ebss
 8005bb4:	200006a0 	.word	0x200006a0

08005bb8 <ADC_IRQHandler>:
 * @retval None       
*/
    .section  .text.Default_Handler,"ax",%progbits
Default_Handler:
Infinite_Loop:
  b  Infinite_Loop
 8005bb8:	e7fe      	b.n	8005bb8 <ADC_IRQHandler>
	...

08005bbc <HAL_Init>:
  *         need to ensure that the SysTick time base is always set to 1 millisecond
  *         to have correct HAL operation.
  * @retval HAL status
  */
HAL_StatusTypeDef HAL_Init(void)
{
 8005bbc:	b580      	push	{r7, lr}
 8005bbe:	af00      	add	r7, sp, #0
  /* Configure Flash prefetch, Instruction cache, Data cache */ 
#if (INSTRUCTION_CACHE_ENABLE != 0U)
  __HAL_FLASH_INSTRUCTION_CACHE_ENABLE();
 8005bc0:	4b0e      	ldr	r3, [pc, #56]	; (8005bfc <HAL_Init+0x40>)
 8005bc2:	681b      	ldr	r3, [r3, #0]
 8005bc4:	4a0d      	ldr	r2, [pc, #52]	; (8005bfc <HAL_Init+0x40>)
 8005bc6:	f443 7300 	orr.w	r3, r3, #512	; 0x200
 8005bca:	6013      	str	r3, [r2, #0]
#endif /* INSTRUCTION_CACHE_ENABLE */

#if (DATA_CACHE_ENABLE != 0U)
  __HAL_FLASH_DATA_CACHE_ENABLE();
 8005bcc:	4b0b      	ldr	r3, [pc, #44]	; (8005bfc <HAL_Init+0x40>)
 8005bce:	681b      	ldr	r3, [r3, #0]
 8005bd0:	4a0a      	ldr	r2, [pc, #40]	; (8005bfc <HAL_Init+0x40>)
 8005bd2:	f443 6380 	orr.w	r3, r3, #1024	; 0x400
 8005bd6:	6013      	str	r3, [r2, #0]
#endif /* DATA_CACHE_ENABLE */

#if (PREFETCH_ENABLE != 0U)
  __HAL_FLASH_PREFETCH_BUFFER_ENABLE();
 8005bd8:	4b08      	ldr	r3, [pc, #32]	; (8005bfc <HAL_Init+0x40>)
 8005bda:	681b      	ldr	r3, [r3, #0]
 8005bdc:	4a07      	ldr	r2, [pc, #28]	; (8005bfc <HAL_Init+0x40>)
 8005bde:	f443 7380 	orr.w	r3, r3, #256	; 0x100
 8005be2:	6013      	str	r3, [r2, #0]
#endif /* PREFETCH_ENABLE */

  /* Set Interrupt Group Priority */
  HAL_NVIC_SetPriorityGrouping(NVIC_PRIORITYGROUP_4);
 8005be4:	2003      	movs	r0, #3
 8005be6:	f000 fbb1 	bl	800634c <HAL_NVIC_SetPriorityGrouping>

  /* Use systick as time base source and configure 1ms tick (default clock after Reset is HSI) */
  HAL_InitTick(TICK_INT_PRIORITY);
 8005bea:	200f      	movs	r0, #15
 8005bec:	f000 f808 	bl	8005c00 <HAL_InitTick>

  /* Init the low level hardware */
  HAL_MspInit();
 8005bf0:	f7ff fb38 	bl	8005264 <HAL_MspInit>

  /* Return function status */
  return HAL_OK;
 8005bf4:	2300      	movs	r3, #0
}
 8005bf6:	4618      	mov	r0, r3
 8005bf8:	bd80      	pop	{r7, pc}
 8005bfa:	bf00      	nop
 8005bfc:	40023c00 	.word	0x40023c00

08005c00 <HAL_InitTick>:
  *       implementation  in user file.
  * @param TickPriority Tick interrupt priority.
  * @retval HAL status
  */
__weak HAL_StatusTypeDef HAL_InitTick(uint32_t TickPriority)
{
 8005c00:	b580      	push	{r7, lr}
 8005c02:	b082      	sub	sp, #8
 8005c04:	af00      	add	r7, sp, #0
 8005c06:	6078      	str	r0, [r7, #4]
  /* Configure the SysTick to have interrupt in 1ms time basis*/
  if (HAL_SYSTICK_Config(SystemCoreClock / (1000U / uwTickFreq)) > 0U)
 8005c08:	4b12      	ldr	r3, [pc, #72]	; (8005c54 <HAL_InitTick+0x54>)
 8005c0a:	681a      	ldr	r2, [r3, #0]
 8005c0c:	4b12      	ldr	r3, [pc, #72]	; (8005c58 <HAL_InitTick+0x58>)
 8005c0e:	781b      	ldrb	r3, [r3, #0]
 8005c10:	4619      	mov	r1, r3
 8005c12:	f44f 737a 	mov.w	r3, #1000	; 0x3e8
 8005c16:	fbb3 f3f1 	udiv	r3, r3, r1
 8005c1a:	fbb2 f3f3 	udiv	r3, r2, r3
 8005c1e:	4618      	mov	r0, r3
 8005c20:	f000 fbc9 	bl	80063b6 <HAL_SYSTICK_Config>
 8005c24:	4603      	mov	r3, r0
 8005c26:	2b00      	cmp	r3, #0
 8005c28:	d001      	beq.n	8005c2e <HAL_InitTick+0x2e>
  {
    return HAL_ERROR;
 8005c2a:	2301      	movs	r3, #1
 8005c2c:	e00e      	b.n	8005c4c <HAL_InitTick+0x4c>
  }

  /* Configure the SysTick IRQ priority */
  if (TickPriority < (1UL << __NVIC_PRIO_BITS))
 8005c2e:	687b      	ldr	r3, [r7, #4]
 8005c30:	2b0f      	cmp	r3, #15
 8005c32:	d80a      	bhi.n	8005c4a <HAL_InitTick+0x4a>
  {
    HAL_NVIC_SetPriority(SysTick_IRQn, TickPriority, 0U);
 8005c34:	2200      	movs	r2, #0
 8005c36:	6879      	ldr	r1, [r7, #4]
 8005c38:	f04f 30ff 	mov.w	r0, #4294967295
 8005c3c:	f000 fb91 	bl	8006362 <HAL_NVIC_SetPriority>
    uwTickPrio = TickPriority;
 8005c40:	4a06      	ldr	r2, [pc, #24]	; (8005c5c <HAL_InitTick+0x5c>)
 8005c42:	687b      	ldr	r3, [r7, #4]
 8005c44:	6013      	str	r3, [r2, #0]
  {
    return HAL_ERROR;
  }

  /* Return function status */
  return HAL_OK;
 8005c46:	2300      	movs	r3, #0
 8005c48:	e000      	b.n	8005c4c <HAL_InitTick+0x4c>
    return HAL_ERROR;
 8005c4a:	2301      	movs	r3, #1
}
 8005c4c:	4618      	mov	r0, r3
 8005c4e:	3708      	adds	r7, #8
 8005c50:	46bd      	mov	sp, r7
 8005c52:	bd80      	pop	{r7, pc}
 8005c54:	20000030 	.word	0x20000030
 8005c58:	20000038 	.word	0x20000038
 8005c5c:	20000034 	.word	0x20000034

08005c60 <HAL_IncTick>:
 * @note This function is declared as __weak to be overwritten in case of other 
  *      implementations in user file.
  * @retval None
  */
__weak void HAL_IncTick(void)
{
 8005c60:	b480      	push	{r7}
 8005c62:	af00      	add	r7, sp, #0
  uwTick += uwTickFreq;
 8005c64:	4b06      	ldr	r3, [pc, #24]	; (8005c80 <HAL_IncTick+0x20>)
 8005c66:	781b      	ldrb	r3, [r3, #0]
 8005c68:	461a      	mov	r2, r3
 8005c6a:	4b06      	ldr	r3, [pc, #24]	; (8005c84 <HAL_IncTick+0x24>)
 8005c6c:	681b      	ldr	r3, [r3, #0]
 8005c6e:	4413      	add	r3, r2
 8005c70:	4a04      	ldr	r2, [pc, #16]	; (8005c84 <HAL_IncTick+0x24>)
 8005c72:	6013      	str	r3, [r2, #0]
}
 8005c74:	bf00      	nop
 8005c76:	46bd      	mov	sp, r7
 8005c78:	f85d 7b04 	ldr.w	r7, [sp], #4
 8005c7c:	4770      	bx	lr
 8005c7e:	bf00      	nop
 8005c80:	20000038 	.word	0x20000038
 8005c84:	2000069c 	.word	0x2000069c

08005c88 <HAL_GetTick>:
  * @note This function is declared as __weak to be overwritten in case of other 
  *       implementations in user file.
  * @retval tick value
  */
__weak uint32_t HAL_GetTick(void)
{
 8005c88:	b480      	push	{r7}
 8005c8a:	af00      	add	r7, sp, #0
  return uwTick;
 8005c8c:	4b03      	ldr	r3, [pc, #12]	; (8005c9c <HAL_GetTick+0x14>)
 8005c8e:	681b      	ldr	r3, [r3, #0]
}
 8005c90:	4618      	mov	r0, r3
 8005c92:	46bd      	mov	sp, r7
 8005c94:	f85d 7b04 	ldr.w	r7, [sp], #4
 8005c98:	4770      	bx	lr
 8005c9a:	bf00      	nop
 8005c9c:	2000069c 	.word	0x2000069c

08005ca0 <HAL_Delay>:
  *       implementations in user file.
  * @param Delay specifies the delay time length, in milliseconds.
  * @retval None
  */
__weak void HAL_Delay(uint32_t Delay)
{
 8005ca0:	b580      	push	{r7, lr}
 8005ca2:	b084      	sub	sp, #16
 8005ca4:	af00      	add	r7, sp, #0
 8005ca6:	6078      	str	r0, [r7, #4]
  uint32_t tickstart = HAL_GetTick();
 8005ca8:	f7ff ffee 	bl	8005c88 <HAL_GetTick>
 8005cac:	60b8      	str	r0, [r7, #8]
  uint32_t wait = Delay;
 8005cae:	687b      	ldr	r3, [r7, #4]
 8005cb0:	60fb      	str	r3, [r7, #12]

  /* Add a freq to guarantee minimum wait */
  if (wait < HAL_MAX_DELAY)
 8005cb2:	68fb      	ldr	r3, [r7, #12]
 8005cb4:	f1b3 3fff 	cmp.w	r3, #4294967295
 8005cb8:	d005      	beq.n	8005cc6 <HAL_Delay+0x26>
  {
    wait += (uint32_t)(uwTickFreq);
 8005cba:	4b0a      	ldr	r3, [pc, #40]	; (8005ce4 <HAL_Delay+0x44>)
 8005cbc:	781b      	ldrb	r3, [r3, #0]
 8005cbe:	461a      	mov	r2, r3
 8005cc0:	68fb      	ldr	r3, [r7, #12]
 8005cc2:	4413      	add	r3, r2
 8005cc4:	60fb      	str	r3, [r7, #12]
  }

  while((HAL_GetTick() - tickstart) < wait)
 8005cc6:	bf00      	nop
 8005cc8:	f7ff ffde 	bl	8005c88 <HAL_GetTick>
 8005ccc:	4602      	mov	r2, r0
 8005cce:	68bb      	ldr	r3, [r7, #8]
 8005cd0:	1ad3      	subs	r3, r2, r3
 8005cd2:	68fa      	ldr	r2, [r7, #12]
 8005cd4:	429a      	cmp	r2, r3
 8005cd6:	d8f7      	bhi.n	8005cc8 <HAL_Delay+0x28>
  {
  }
}
 8005cd8:	bf00      	nop
 8005cda:	bf00      	nop
 8005cdc:	3710      	adds	r7, #16
 8005cde:	46bd      	mov	sp, r7
 8005ce0:	bd80      	pop	{r7, pc}
 8005ce2:	bf00      	nop
 8005ce4:	20000038 	.word	0x20000038

08005ce8 <HAL_ADC_Init>:
  * @param  hadc pointer to a ADC_HandleTypeDef structure that contains
  *         the configuration information for the specified ADC.  
  * @retval HAL status
  */
HAL_StatusTypeDef HAL_ADC_Init(ADC_HandleTypeDef* hadc)
{
 8005ce8:	b580      	push	{r7, lr}
 8005cea:	b084      	sub	sp, #16
 8005cec:	af00      	add	r7, sp, #0
 8005cee:	6078      	str	r0, [r7, #4]
  HAL_StatusTypeDef tmp_hal_status = HAL_OK;
 8005cf0:	2300      	movs	r3, #0
 8005cf2:	73fb      	strb	r3, [r7, #15]
  
  /* Check ADC handle */
  if(hadc == NULL)
 8005cf4:	687b      	ldr	r3, [r7, #4]
 8005cf6:	2b00      	cmp	r3, #0
 8005cf8:	d101      	bne.n	8005cfe <HAL_ADC_Init+0x16>
  {
    return HAL_ERROR;
 8005cfa:	2301      	movs	r3, #1
 8005cfc:	e033      	b.n	8005d66 <HAL_ADC_Init+0x7e>
  if(hadc->Init.ExternalTrigConv != ADC_SOFTWARE_START)
  {
    assert_param(IS_ADC_EXT_TRIG_EDGE(hadc->Init.ExternalTrigConvEdge));
  }
  
  if(hadc->State == HAL_ADC_STATE_RESET)
 8005cfe:	687b      	ldr	r3, [r7, #4]
 8005d00:	6c1b      	ldr	r3, [r3, #64]	; 0x40
 8005d02:	2b00      	cmp	r3, #0
 8005d04:	d109      	bne.n	8005d1a <HAL_ADC_Init+0x32>

    /* Init the low level hardware */
    hadc->MspInitCallback(hadc);
#else
    /* Init the low level hardware */
    HAL_ADC_MspInit(hadc);
 8005d06:	6878      	ldr	r0, [r7, #4]
 8005d08:	f7fd fada 	bl	80032c0 <HAL_ADC_MspInit>
#endif /* USE_HAL_ADC_REGISTER_CALLBACKS */

    /* Initialize ADC error code */
    ADC_CLEAR_ERRORCODE(hadc);
 8005d0c:	687b      	ldr	r3, [r7, #4]
 8005d0e:	2200      	movs	r2, #0
 8005d10:	645a      	str	r2, [r3, #68]	; 0x44
    
    /* Allocate lock resource and initialize it */
    hadc->Lock = HAL_UNLOCKED;
 8005d12:	687b      	ldr	r3, [r7, #4]
 8005d14:	2200      	movs	r2, #0
 8005d16:	f883 203c 	strb.w	r2, [r3, #60]	; 0x3c
  }
  
  /* Configuration of ADC parameters if previous preliminary actions are      */ 
  /* correctly completed.                                                     */
  if (HAL_IS_BIT_CLR(hadc->State, HAL_ADC_STATE_ERROR_INTERNAL))
 8005d1a:	687b      	ldr	r3, [r7, #4]
 8005d1c:	6c1b      	ldr	r3, [r3, #64]	; 0x40
 8005d1e:	f003 0310 	and.w	r3, r3, #16
 8005d22:	2b00      	cmp	r3, #0
 8005d24:	d118      	bne.n	8005d58 <HAL_ADC_Init+0x70>
  {
    /* Set ADC state */
    ADC_STATE_CLR_SET(hadc->State,
 8005d26:	687b      	ldr	r3, [r7, #4]
 8005d28:	6c1b      	ldr	r3, [r3, #64]	; 0x40
 8005d2a:	f423 5388 	bic.w	r3, r3, #4352	; 0x1100
 8005d2e:	f023 0302 	bic.w	r3, r3, #2
 8005d32:	f043 0202 	orr.w	r2, r3, #2
 8005d36:	687b      	ldr	r3, [r7, #4]
 8005d38:	641a      	str	r2, [r3, #64]	; 0x40
                      HAL_ADC_STATE_REG_BUSY | HAL_ADC_STATE_INJ_BUSY,
                      HAL_ADC_STATE_BUSY_INTERNAL);
    
    /* Set ADC parameters */
    ADC_Init(hadc);
 8005d3a:	6878      	ldr	r0, [r7, #4]
 8005d3c:	f000 f93a 	bl	8005fb4 <ADC_Init>
    
    /* Set ADC error code to none */
    ADC_CLEAR_ERRORCODE(hadc);
 8005d40:	687b      	ldr	r3, [r7, #4]
 8005d42:	2200      	movs	r2, #0
 8005d44:	645a      	str	r2, [r3, #68]	; 0x44
    
    /* Set the ADC state */
    ADC_STATE_CLR_SET(hadc->State,
 8005d46:	687b      	ldr	r3, [r7, #4]
 8005d48:	6c1b      	ldr	r3, [r3, #64]	; 0x40
 8005d4a:	f023 0303 	bic.w	r3, r3, #3
 8005d4e:	f043 0201 	orr.w	r2, r3, #1
 8005d52:	687b      	ldr	r3, [r7, #4]
 8005d54:	641a      	str	r2, [r3, #64]	; 0x40
 8005d56:	e001      	b.n	8005d5c <HAL_ADC_Init+0x74>
                      HAL_ADC_STATE_BUSY_INTERNAL,
                      HAL_ADC_STATE_READY);
  }
  else
  {
    tmp_hal_status = HAL_ERROR;
 8005d58:	2301      	movs	r3, #1
 8005d5a:	73fb      	strb	r3, [r7, #15]
  }
  
  /* Release Lock */
  __HAL_UNLOCK(hadc);
 8005d5c:	687b      	ldr	r3, [r7, #4]
 8005d5e:	2200      	movs	r2, #0
 8005d60:	f883 203c 	strb.w	r2, [r3, #60]	; 0x3c

  /* Return function status */
  return tmp_hal_status;
 8005d64:	7bfb      	ldrb	r3, [r7, #15]
}
 8005d66:	4618      	mov	r0, r3
 8005d68:	3710      	adds	r7, #16
 8005d6a:	46bd      	mov	sp, r7
 8005d6c:	bd80      	pop	{r7, pc}
	...

08005d70 <HAL_ADC_ConfigChannel>:
  *         the configuration information for the specified ADC.
  * @param  sConfig ADC configuration structure. 
  * @retval HAL status
  */
HAL_StatusTypeDef HAL_ADC_ConfigChannel(ADC_HandleTypeDef* hadc, ADC_ChannelConfTypeDef* sConfig)
{
 8005d70:	b480      	push	{r7}
 8005d72:	b085      	sub	sp, #20
 8005d74:	af00      	add	r7, sp, #0
 8005d76:	6078      	str	r0, [r7, #4]
 8005d78:	6039      	str	r1, [r7, #0]
  __IO uint32_t counter = 0U;
 8005d7a:	2300      	movs	r3, #0
 8005d7c:	60bb      	str	r3, [r7, #8]
  assert_param(IS_ADC_CHANNEL(sConfig->Channel));
  assert_param(IS_ADC_REGULAR_RANK(sConfig->Rank));
  assert_param(IS_ADC_SAMPLE_TIME(sConfig->SamplingTime));
  
  /* Process locked */
  __HAL_LOCK(hadc);
 8005d7e:	687b      	ldr	r3, [r7, #4]
 8005d80:	f893 303c 	ldrb.w	r3, [r3, #60]	; 0x3c
 8005d84:	2b01      	cmp	r3, #1
 8005d86:	d101      	bne.n	8005d8c <HAL_ADC_ConfigChannel+0x1c>
 8005d88:	2302      	movs	r3, #2
 8005d8a:	e105      	b.n	8005f98 <HAL_ADC_ConfigChannel+0x228>
 8005d8c:	687b      	ldr	r3, [r7, #4]
 8005d8e:	2201      	movs	r2, #1
 8005d90:	f883 203c 	strb.w	r2, [r3, #60]	; 0x3c
    
  /* if ADC_Channel_10 ... ADC_Channel_18 is selected */
  if (sConfig->Channel > ADC_CHANNEL_9)
 8005d94:	683b      	ldr	r3, [r7, #0]
 8005d96:	681b      	ldr	r3, [r3, #0]
 8005d98:	2b09      	cmp	r3, #9
 8005d9a:	d925      	bls.n	8005de8 <HAL_ADC_ConfigChannel+0x78>
  {
    /* Clear the old sample time */
    hadc->Instance->SMPR1 &= ~ADC_SMPR1(ADC_SMPR1_SMP10, sConfig->Channel);
 8005d9c:	687b      	ldr	r3, [r7, #4]
 8005d9e:	681b      	ldr	r3, [r3, #0]
 8005da0:	68d9      	ldr	r1, [r3, #12]
 8005da2:	683b      	ldr	r3, [r7, #0]
 8005da4:	681b      	ldr	r3, [r3, #0]
 8005da6:	b29b      	uxth	r3, r3
 8005da8:	461a      	mov	r2, r3
 8005daa:	4613      	mov	r3, r2
 8005dac:	005b      	lsls	r3, r3, #1
 8005dae:	4413      	add	r3, r2
 8005db0:	3b1e      	subs	r3, #30
 8005db2:	2207      	movs	r2, #7
 8005db4:	fa02 f303 	lsl.w	r3, r2, r3
 8005db8:	43da      	mvns	r2, r3
 8005dba:	687b      	ldr	r3, [r7, #4]
 8005dbc:	681b      	ldr	r3, [r3, #0]
 8005dbe:	400a      	ands	r2, r1
 8005dc0:	60da      	str	r2, [r3, #12]
    
    /* Set the new sample time */
    hadc->Instance->SMPR1 |= ADC_SMPR1(sConfig->SamplingTime, sConfig->Channel);
 8005dc2:	687b      	ldr	r3, [r7, #4]
 8005dc4:	681b      	ldr	r3, [r3, #0]
 8005dc6:	68d9      	ldr	r1, [r3, #12]
 8005dc8:	683b      	ldr	r3, [r7, #0]
 8005dca:	689a      	ldr	r2, [r3, #8]
 8005dcc:	683b      	ldr	r3, [r7, #0]
 8005dce:	681b      	ldr	r3, [r3, #0]
 8005dd0:	b29b      	uxth	r3, r3
 8005dd2:	4618      	mov	r0, r3
 8005dd4:	4603      	mov	r3, r0
 8005dd6:	005b      	lsls	r3, r3, #1
 8005dd8:	4403      	add	r3, r0
 8005dda:	3b1e      	subs	r3, #30
 8005ddc:	409a      	lsls	r2, r3
 8005dde:	687b      	ldr	r3, [r7, #4]
 8005de0:	681b      	ldr	r3, [r3, #0]
 8005de2:	430a      	orrs	r2, r1
 8005de4:	60da      	str	r2, [r3, #12]
 8005de6:	e022      	b.n	8005e2e <HAL_ADC_ConfigChannel+0xbe>
  }
  else /* ADC_Channel include in ADC_Channel_[0..9] */
  {
    /* Clear the old sample time */
    hadc->Instance->SMPR2 &= ~ADC_SMPR2(ADC_SMPR2_SMP0, sConfig->Channel);
 8005de8:	687b      	ldr	r3, [r7, #4]
 8005dea:	681b      	ldr	r3, [r3, #0]
 8005dec:	6919      	ldr	r1, [r3, #16]
 8005dee:	683b      	ldr	r3, [r7, #0]
 8005df0:	681b      	ldr	r3, [r3, #0]
 8005df2:	b29b      	uxth	r3, r3
 8005df4:	461a      	mov	r2, r3
 8005df6:	4613      	mov	r3, r2
 8005df8:	005b      	lsls	r3, r3, #1
 8005dfa:	4413      	add	r3, r2
 8005dfc:	2207      	movs	r2, #7
 8005dfe:	fa02 f303 	lsl.w	r3, r2, r3
 8005e02:	43da      	mvns	r2, r3
 8005e04:	687b      	ldr	r3, [r7, #4]
 8005e06:	681b      	ldr	r3, [r3, #0]
 8005e08:	400a      	ands	r2, r1
 8005e0a:	611a      	str	r2, [r3, #16]
    
    /* Set the new sample time */
    hadc->Instance->SMPR2 |= ADC_SMPR2(sConfig->SamplingTime, sConfig->Channel);
 8005e0c:	687b      	ldr	r3, [r7, #4]
 8005e0e:	681b      	ldr	r3, [r3, #0]
 8005e10:	6919      	ldr	r1, [r3, #16]
 8005e12:	683b      	ldr	r3, [r7, #0]
 8005e14:	689a      	ldr	r2, [r3, #8]
 8005e16:	683b      	ldr	r3, [r7, #0]
 8005e18:	681b      	ldr	r3, [r3, #0]
 8005e1a:	b29b      	uxth	r3, r3
 8005e1c:	4618      	mov	r0, r3
 8005e1e:	4603      	mov	r3, r0
 8005e20:	005b      	lsls	r3, r3, #1
 8005e22:	4403      	add	r3, r0
 8005e24:	409a      	lsls	r2, r3
 8005e26:	687b      	ldr	r3, [r7, #4]
 8005e28:	681b      	ldr	r3, [r3, #0]
 8005e2a:	430a      	orrs	r2, r1
 8005e2c:	611a      	str	r2, [r3, #16]
  }
  
  /* For Rank 1 to 6 */
  if (sConfig->Rank < 7U)
 8005e2e:	683b      	ldr	r3, [r7, #0]
 8005e30:	685b      	ldr	r3, [r3, #4]
 8005e32:	2b06      	cmp	r3, #6
 8005e34:	d824      	bhi.n	8005e80 <HAL_ADC_ConfigChannel+0x110>
  {
    /* Clear the old SQx bits for the selected rank */
    hadc->Instance->SQR3 &= ~ADC_SQR3_RK(ADC_SQR3_SQ1, sConfig->Rank);
 8005e36:	687b      	ldr	r3, [r7, #4]
 8005e38:	681b      	ldr	r3, [r3, #0]
 8005e3a:	6b59      	ldr	r1, [r3, #52]	; 0x34
 8005e3c:	683b      	ldr	r3, [r7, #0]
 8005e3e:	685a      	ldr	r2, [r3, #4]
 8005e40:	4613      	mov	r3, r2
 8005e42:	009b      	lsls	r3, r3, #2
 8005e44:	4413      	add	r3, r2
 8005e46:	3b05      	subs	r3, #5
 8005e48:	221f      	movs	r2, #31
 8005e4a:	fa02 f303 	lsl.w	r3, r2, r3
 8005e4e:	43da      	mvns	r2, r3
 8005e50:	687b      	ldr	r3, [r7, #4]
 8005e52:	681b      	ldr	r3, [r3, #0]
 8005e54:	400a      	ands	r2, r1
 8005e56:	635a      	str	r2, [r3, #52]	; 0x34
    
    /* Set the SQx bits for the selected rank */
    hadc->Instance->SQR3 |= ADC_SQR3_RK(sConfig->Channel, sConfig->Rank);
 8005e58:	687b      	ldr	r3, [r7, #4]
 8005e5a:	681b      	ldr	r3, [r3, #0]
 8005e5c:	6b59      	ldr	r1, [r3, #52]	; 0x34
 8005e5e:	683b      	ldr	r3, [r7, #0]
 8005e60:	681b      	ldr	r3, [r3, #0]
 8005e62:	b29b      	uxth	r3, r3
 8005e64:	4618      	mov	r0, r3
 8005e66:	683b      	ldr	r3, [r7, #0]
 8005e68:	685a      	ldr	r2, [r3, #4]
 8005e6a:	4613      	mov	r3, r2
 8005e6c:	009b      	lsls	r3, r3, #2
 8005e6e:	4413      	add	r3, r2
 8005e70:	3b05      	subs	r3, #5
 8005e72:	fa00 f203 	lsl.w	r2, r0, r3
 8005e76:	687b      	ldr	r3, [r7, #4]
 8005e78:	681b      	ldr	r3, [r3, #0]
 8005e7a:	430a      	orrs	r2, r1
 8005e7c:	635a      	str	r2, [r3, #52]	; 0x34
 8005e7e:	e04c      	b.n	8005f1a <HAL_ADC_ConfigChannel+0x1aa>
  }
  /* For Rank 7 to 12 */
  else if (sConfig->Rank < 13U)
 8005e80:	683b      	ldr	r3, [r7, #0]
 8005e82:	685b      	ldr	r3, [r3, #4]
 8005e84:	2b0c      	cmp	r3, #12
 8005e86:	d824      	bhi.n	8005ed2 <HAL_ADC_ConfigChannel+0x162>
  {
    /* Clear the old SQx bits for the selected rank */
    hadc->Instance->SQR2 &= ~ADC_SQR2_RK(ADC_SQR2_SQ7, sConfig->Rank);
 8005e88:	687b      	ldr	r3, [r7, #4]
 8005e8a:	681b      	ldr	r3, [r3, #0]
 8005e8c:	6b19      	ldr	r1, [r3, #48]	; 0x30
 8005e8e:	683b      	ldr	r3, [r7, #0]
 8005e90:	685a      	ldr	r2, [r3, #4]
 8005e92:	4613      	mov	r3, r2
 8005e94:	009b      	lsls	r3, r3, #2
 8005e96:	4413      	add	r3, r2
 8005e98:	3b23      	subs	r3, #35	; 0x23
 8005e9a:	221f      	movs	r2, #31
 8005e9c:	fa02 f303 	lsl.w	r3, r2, r3
 8005ea0:	43da      	mvns	r2, r3
 8005ea2:	687b      	ldr	r3, [r7, #4]
 8005ea4:	681b      	ldr	r3, [r3, #0]
 8005ea6:	400a      	ands	r2, r1
 8005ea8:	631a      	str	r2, [r3, #48]	; 0x30
    
    /* Set the SQx bits for the selected rank */
    hadc->Instance->SQR2 |= ADC_SQR2_RK(sConfig->Channel, sConfig->Rank);
 8005eaa:	687b      	ldr	r3, [r7, #4]
 8005eac:	681b      	ldr	r3, [r3, #0]
 8005eae:	6b19      	ldr	r1, [r3, #48]	; 0x30
 8005eb0:	683b      	ldr	r3, [r7, #0]
 8005eb2:	681b      	ldr	r3, [r3, #0]
 8005eb4:	b29b      	uxth	r3, r3
 8005eb6:	4618      	mov	r0, r3
 8005eb8:	683b      	ldr	r3, [r7, #0]
 8005eba:	685a      	ldr	r2, [r3, #4]
 8005ebc:	4613      	mov	r3, r2
 8005ebe:	009b      	lsls	r3, r3, #2
 8005ec0:	4413      	add	r3, r2
 8005ec2:	3b23      	subs	r3, #35	; 0x23
 8005ec4:	fa00 f203 	lsl.w	r2, r0, r3
 8005ec8:	687b      	ldr	r3, [r7, #4]
 8005eca:	681b      	ldr	r3, [r3, #0]
 8005ecc:	430a      	orrs	r2, r1
 8005ece:	631a      	str	r2, [r3, #48]	; 0x30
 8005ed0:	e023      	b.n	8005f1a <HAL_ADC_ConfigChannel+0x1aa>
  }
  /* For Rank 13 to 16 */
  else
  {
    /* Clear the old SQx bits for the selected rank */
    hadc->Instance->SQR1 &= ~ADC_SQR1_RK(ADC_SQR1_SQ13, sConfig->Rank);
 8005ed2:	687b      	ldr	r3, [r7, #4]
 8005ed4:	681b      	ldr	r3, [r3, #0]
 8005ed6:	6ad9      	ldr	r1, [r3, #44]	; 0x2c
 8005ed8:	683b      	ldr	r3, [r7, #0]
 8005eda:	685a      	ldr	r2, [r3, #4]
 8005edc:	4613      	mov	r3, r2
 8005ede:	009b      	lsls	r3, r3, #2
 8005ee0:	4413      	add	r3, r2
 8005ee2:	3b41      	subs	r3, #65	; 0x41
 8005ee4:	221f      	movs	r2, #31
 8005ee6:	fa02 f303 	lsl.w	r3, r2, r3
 8005eea:	43da      	mvns	r2, r3
 8005eec:	687b      	ldr	r3, [r7, #4]
 8005eee:	681b      	ldr	r3, [r3, #0]
 8005ef0:	400a      	ands	r2, r1
 8005ef2:	62da      	str	r2, [r3, #44]	; 0x2c
    
    /* Set the SQx bits for the selected rank */
    hadc->Instance->SQR1 |= ADC_SQR1_RK(sConfig->Channel, sConfig->Rank);
 8005ef4:	687b      	ldr	r3, [r7, #4]
 8005ef6:	681b      	ldr	r3, [r3, #0]
 8005ef8:	6ad9      	ldr	r1, [r3, #44]	; 0x2c
 8005efa:	683b      	ldr	r3, [r7, #0]
 8005efc:	681b      	ldr	r3, [r3, #0]
 8005efe:	b29b      	uxth	r3, r3
 8005f00:	4618      	mov	r0, r3
 8005f02:	683b      	ldr	r3, [r7, #0]
 8005f04:	685a      	ldr	r2, [r3, #4]
 8005f06:	4613      	mov	r3, r2
 8005f08:	009b      	lsls	r3, r3, #2
 8005f0a:	4413      	add	r3, r2
 8005f0c:	3b41      	subs	r3, #65	; 0x41
 8005f0e:	fa00 f203 	lsl.w	r2, r0, r3
 8005f12:	687b      	ldr	r3, [r7, #4]
 8005f14:	681b      	ldr	r3, [r3, #0]
 8005f16:	430a      	orrs	r2, r1
 8005f18:	62da      	str	r2, [r3, #44]	; 0x2c
  }

    /* Pointer to the common control register to which is belonging hadc    */
    /* (Depending on STM32F4 product, there may be up to 3 ADCs and 1 common */
    /* control register)                                                    */
    tmpADC_Common = ADC_COMMON_REGISTER(hadc);
 8005f1a:	4b22      	ldr	r3, [pc, #136]	; (8005fa4 <HAL_ADC_ConfigChannel+0x234>)
 8005f1c:	60fb      	str	r3, [r7, #12]

  /* if ADC1 Channel_18 is selected for VBAT Channel ennable VBATE */
  if ((hadc->Instance == ADC1) && (sConfig->Channel == ADC_CHANNEL_VBAT))
 8005f1e:	687b      	ldr	r3, [r7, #4]
 8005f20:	681b      	ldr	r3, [r3, #0]
 8005f22:	4a21      	ldr	r2, [pc, #132]	; (8005fa8 <HAL_ADC_ConfigChannel+0x238>)
 8005f24:	4293      	cmp	r3, r2
 8005f26:	d109      	bne.n	8005f3c <HAL_ADC_ConfigChannel+0x1cc>
 8005f28:	683b      	ldr	r3, [r7, #0]
 8005f2a:	681b      	ldr	r3, [r3, #0]
 8005f2c:	2b12      	cmp	r3, #18
 8005f2e:	d105      	bne.n	8005f3c <HAL_ADC_ConfigChannel+0x1cc>
    if ((uint16_t)ADC_CHANNEL_TEMPSENSOR == (uint16_t)ADC_CHANNEL_VBAT)
    {
      tmpADC_Common->CCR &= ~ADC_CCR_TSVREFE;
    }
    /* Enable the VBAT channel*/
    tmpADC_Common->CCR |= ADC_CCR_VBATE;
 8005f30:	68fb      	ldr	r3, [r7, #12]
 8005f32:	685b      	ldr	r3, [r3, #4]
 8005f34:	f443 0280 	orr.w	r2, r3, #4194304	; 0x400000
 8005f38:	68fb      	ldr	r3, [r7, #12]
 8005f3a:	605a      	str	r2, [r3, #4]
  }
  
  /* if ADC1 Channel_16 or Channel_18 is selected for Temperature sensor or 
     Channel_17 is selected for VREFINT enable TSVREFE */
  if ((hadc->Instance == ADC1) && ((sConfig->Channel == ADC_CHANNEL_TEMPSENSOR) || (sConfig->Channel == ADC_CHANNEL_VREFINT)))
 8005f3c:	687b      	ldr	r3, [r7, #4]
 8005f3e:	681b      	ldr	r3, [r3, #0]
 8005f40:	4a19      	ldr	r2, [pc, #100]	; (8005fa8 <HAL_ADC_ConfigChannel+0x238>)
 8005f42:	4293      	cmp	r3, r2
 8005f44:	d123      	bne.n	8005f8e <HAL_ADC_ConfigChannel+0x21e>
 8005f46:	683b      	ldr	r3, [r7, #0]
 8005f48:	681b      	ldr	r3, [r3, #0]
 8005f4a:	2b10      	cmp	r3, #16
 8005f4c:	d003      	beq.n	8005f56 <HAL_ADC_ConfigChannel+0x1e6>
 8005f4e:	683b      	ldr	r3, [r7, #0]
 8005f50:	681b      	ldr	r3, [r3, #0]
 8005f52:	2b11      	cmp	r3, #17
 8005f54:	d11b      	bne.n	8005f8e <HAL_ADC_ConfigChannel+0x21e>
    if ((uint16_t)ADC_CHANNEL_TEMPSENSOR == (uint16_t)ADC_CHANNEL_VBAT)
    {
      tmpADC_Common->CCR &= ~ADC_CCR_VBATE;
    }
    /* Enable the Temperature sensor and VREFINT channel*/
    tmpADC_Common->CCR |= ADC_CCR_TSVREFE;
 8005f56:	68fb      	ldr	r3, [r7, #12]
 8005f58:	685b      	ldr	r3, [r3, #4]
 8005f5a:	f443 0200 	orr.w	r2, r3, #8388608	; 0x800000
 8005f5e:	68fb      	ldr	r3, [r7, #12]
 8005f60:	605a      	str	r2, [r3, #4]
    
    if(sConfig->Channel == ADC_CHANNEL_TEMPSENSOR)
 8005f62:	683b      	ldr	r3, [r7, #0]
 8005f64:	681b      	ldr	r3, [r3, #0]
 8005f66:	2b10      	cmp	r3, #16
 8005f68:	d111      	bne.n	8005f8e <HAL_ADC_ConfigChannel+0x21e>
    {
      /* Delay for temperature sensor stabilization time */
      /* Compute number of CPU cycles to wait for */
      counter = (ADC_TEMPSENSOR_DELAY_US * (SystemCoreClock / 1000000U));
 8005f6a:	4b10      	ldr	r3, [pc, #64]	; (8005fac <HAL_ADC_ConfigChannel+0x23c>)
 8005f6c:	681b      	ldr	r3, [r3, #0]
 8005f6e:	4a10      	ldr	r2, [pc, #64]	; (8005fb0 <HAL_ADC_ConfigChannel+0x240>)
 8005f70:	fba2 2303 	umull	r2, r3, r2, r3
 8005f74:	0c9a      	lsrs	r2, r3, #18
 8005f76:	4613      	mov	r3, r2
 8005f78:	009b      	lsls	r3, r3, #2
 8005f7a:	4413      	add	r3, r2
 8005f7c:	005b      	lsls	r3, r3, #1
 8005f7e:	60bb      	str	r3, [r7, #8]
      while(counter != 0U)
 8005f80:	e002      	b.n	8005f88 <HAL_ADC_ConfigChannel+0x218>
      {
        counter--;
 8005f82:	68bb      	ldr	r3, [r7, #8]
 8005f84:	3b01      	subs	r3, #1
 8005f86:	60bb      	str	r3, [r7, #8]
      while(counter != 0U)
 8005f88:	68bb      	ldr	r3, [r7, #8]
 8005f8a:	2b00      	cmp	r3, #0
 8005f8c:	d1f9      	bne.n	8005f82 <HAL_ADC_ConfigChannel+0x212>
      }
    }
  }
  
  /* Process unlocked */
  __HAL_UNLOCK(hadc);
 8005f8e:	687b      	ldr	r3, [r7, #4]
 8005f90:	2200      	movs	r2, #0
 8005f92:	f883 203c 	strb.w	r2, [r3, #60]	; 0x3c
  
  /* Return function status */
  return HAL_OK;
 8005f96:	2300      	movs	r3, #0
}
 8005f98:	4618      	mov	r0, r3
 8005f9a:	3714      	adds	r7, #20
 8005f9c:	46bd      	mov	sp, r7
 8005f9e:	f85d 7b04 	ldr.w	r7, [sp], #4
 8005fa2:	4770      	bx	lr
 8005fa4:	40012300 	.word	0x40012300
 8005fa8:	40012000 	.word	0x40012000
 8005fac:	20000030 	.word	0x20000030
 8005fb0:	431bde83 	.word	0x431bde83

08005fb4 <ADC_Init>:
  * @param  hadc pointer to a ADC_HandleTypeDef structure that contains
  *         the configuration information for the specified ADC.  
  * @retval None
  */
static void ADC_Init(ADC_HandleTypeDef* hadc)
{
 8005fb4:	b480      	push	{r7}
 8005fb6:	b085      	sub	sp, #20
 8005fb8:	af00      	add	r7, sp, #0
 8005fba:	6078      	str	r0, [r7, #4]
  
  /* Set ADC parameters */
  /* Pointer to the common control register to which is belonging hadc    */
  /* (Depending on STM32F4 product, there may be up to 3 ADCs and 1 common */
  /* control register)                                                    */
  tmpADC_Common = ADC_COMMON_REGISTER(hadc);
 8005fbc:	4b79      	ldr	r3, [pc, #484]	; (80061a4 <ADC_Init+0x1f0>)
 8005fbe:	60fb      	str	r3, [r7, #12]
  
  /* Set the ADC clock prescaler */
  tmpADC_Common->CCR &= ~(ADC_CCR_ADCPRE);
 8005fc0:	68fb      	ldr	r3, [r7, #12]
 8005fc2:	685b      	ldr	r3, [r3, #4]
 8005fc4:	f423 3240 	bic.w	r2, r3, #196608	; 0x30000
 8005fc8:	68fb      	ldr	r3, [r7, #12]
 8005fca:	605a      	str	r2, [r3, #4]
  tmpADC_Common->CCR |=  hadc->Init.ClockPrescaler;
 8005fcc:	68fb      	ldr	r3, [r7, #12]
 8005fce:	685a      	ldr	r2, [r3, #4]
 8005fd0:	687b      	ldr	r3, [r7, #4]
 8005fd2:	685b      	ldr	r3, [r3, #4]
 8005fd4:	431a      	orrs	r2, r3
 8005fd6:	68fb      	ldr	r3, [r7, #12]
 8005fd8:	605a      	str	r2, [r3, #4]
  
  /* Set ADC scan mode */
  hadc->Instance->CR1 &= ~(ADC_CR1_SCAN);
 8005fda:	687b      	ldr	r3, [r7, #4]
 8005fdc:	681b      	ldr	r3, [r3, #0]
 8005fde:	685a      	ldr	r2, [r3, #4]
 8005fe0:	687b      	ldr	r3, [r7, #4]
 8005fe2:	681b      	ldr	r3, [r3, #0]
 8005fe4:	f422 7280 	bic.w	r2, r2, #256	; 0x100
 8005fe8:	605a      	str	r2, [r3, #4]
  hadc->Instance->CR1 |=  ADC_CR1_SCANCONV(hadc->Init.ScanConvMode);
 8005fea:	687b      	ldr	r3, [r7, #4]
 8005fec:	681b      	ldr	r3, [r3, #0]
 8005fee:	6859      	ldr	r1, [r3, #4]
 8005ff0:	687b      	ldr	r3, [r7, #4]
 8005ff2:	691b      	ldr	r3, [r3, #16]
 8005ff4:	021a      	lsls	r2, r3, #8
 8005ff6:	687b      	ldr	r3, [r7, #4]
 8005ff8:	681b      	ldr	r3, [r3, #0]
 8005ffa:	430a      	orrs	r2, r1
 8005ffc:	605a      	str	r2, [r3, #4]
  
  /* Set ADC resolution */
  hadc->Instance->CR1 &= ~(ADC_CR1_RES);
 8005ffe:	687b      	ldr	r3, [r7, #4]
 8006000:	681b      	ldr	r3, [r3, #0]
 8006002:	685a      	ldr	r2, [r3, #4]
 8006004:	687b      	ldr	r3, [r7, #4]
 8006006:	681b      	ldr	r3, [r3, #0]
 8006008:	f022 7240 	bic.w	r2, r2, #50331648	; 0x3000000
 800600c:	605a      	str	r2, [r3, #4]
  hadc->Instance->CR1 |=  hadc->Init.Resolution;
 800600e:	687b      	ldr	r3, [r7, #4]
 8006010:	681b      	ldr	r3, [r3, #0]
 8006012:	6859      	ldr	r1, [r3, #4]
 8006014:	687b      	ldr	r3, [r7, #4]
 8006016:	689a      	ldr	r2, [r3, #8]
 8006018:	687b      	ldr	r3, [r7, #4]
 800601a:	681b      	ldr	r3, [r3, #0]
 800601c:	430a      	orrs	r2, r1
 800601e:	605a      	str	r2, [r3, #4]
  
  /* Set ADC data alignment */
  hadc->Instance->CR2 &= ~(ADC_CR2_ALIGN);
 8006020:	687b      	ldr	r3, [r7, #4]
 8006022:	681b      	ldr	r3, [r3, #0]
 8006024:	689a      	ldr	r2, [r3, #8]
 8006026:	687b      	ldr	r3, [r7, #4]
 8006028:	681b      	ldr	r3, [r3, #0]
 800602a:	f422 6200 	bic.w	r2, r2, #2048	; 0x800
 800602e:	609a      	str	r2, [r3, #8]
  hadc->Instance->CR2 |= hadc->Init.DataAlign;
 8006030:	687b      	ldr	r3, [r7, #4]
 8006032:	681b      	ldr	r3, [r3, #0]
 8006034:	6899      	ldr	r1, [r3, #8]
 8006036:	687b      	ldr	r3, [r7, #4]
 8006038:	68da      	ldr	r2, [r3, #12]
 800603a:	687b      	ldr	r3, [r7, #4]
 800603c:	681b      	ldr	r3, [r3, #0]
 800603e:	430a      	orrs	r2, r1
 8006040:	609a      	str	r2, [r3, #8]
  /* Enable external trigger if trigger selection is different of software  */
  /* start.                                                                 */
  /* Note: This configuration keeps the hardware feature of parameter       */
  /*       ExternalTrigConvEdge "trigger edge none" equivalent to           */
  /*       software start.                                                  */
  if(hadc->Init.ExternalTrigConv != ADC_SOFTWARE_START)
 8006042:	687b      	ldr	r3, [r7, #4]
 8006044:	6a9b      	ldr	r3, [r3, #40]	; 0x28
 8006046:	4a58      	ldr	r2, [pc, #352]	; (80061a8 <ADC_Init+0x1f4>)
 8006048:	4293      	cmp	r3, r2
 800604a:	d022      	beq.n	8006092 <ADC_Init+0xde>
  {
    /* Select external trigger to start conversion */
    hadc->Instance->CR2 &= ~(ADC_CR2_EXTSEL);
 800604c:	687b      	ldr	r3, [r7, #4]
 800604e:	681b      	ldr	r3, [r3, #0]
 8006050:	689a      	ldr	r2, [r3, #8]
 8006052:	687b      	ldr	r3, [r7, #4]
 8006054:	681b      	ldr	r3, [r3, #0]
 8006056:	f022 6270 	bic.w	r2, r2, #251658240	; 0xf000000
 800605a:	609a      	str	r2, [r3, #8]
    hadc->Instance->CR2 |= hadc->Init.ExternalTrigConv;
 800605c:	687b      	ldr	r3, [r7, #4]
 800605e:	681b      	ldr	r3, [r3, #0]
 8006060:	6899      	ldr	r1, [r3, #8]
 8006062:	687b      	ldr	r3, [r7, #4]
 8006064:	6a9a      	ldr	r2, [r3, #40]	; 0x28
 8006066:	687b      	ldr	r3, [r7, #4]
 8006068:	681b      	ldr	r3, [r3, #0]
 800606a:	430a      	orrs	r2, r1
 800606c:	609a      	str	r2, [r3, #8]
    
    /* Select external trigger polarity */
    hadc->Instance->CR2 &= ~(ADC_CR2_EXTEN);
 800606e:	687b      	ldr	r3, [r7, #4]
 8006070:	681b      	ldr	r3, [r3, #0]
 8006072:	689a      	ldr	r2, [r3, #8]
 8006074:	687b      	ldr	r3, [r7, #4]
 8006076:	681b      	ldr	r3, [r3, #0]
 8006078:	f022 5240 	bic.w	r2, r2, #805306368	; 0x30000000
 800607c:	609a      	str	r2, [r3, #8]
    hadc->Instance->CR2 |= hadc->Init.ExternalTrigConvEdge;
 800607e:	687b      	ldr	r3, [r7, #4]
 8006080:	681b      	ldr	r3, [r3, #0]
 8006082:	6899      	ldr	r1, [r3, #8]
 8006084:	687b      	ldr	r3, [r7, #4]
 8006086:	6ada      	ldr	r2, [r3, #44]	; 0x2c
 8006088:	687b      	ldr	r3, [r7, #4]
 800608a:	681b      	ldr	r3, [r3, #0]
 800608c:	430a      	orrs	r2, r1
 800608e:	609a      	str	r2, [r3, #8]
 8006090:	e00f      	b.n	80060b2 <ADC_Init+0xfe>
  }
  else
  {
    /* Reset the external trigger */
    hadc->Instance->CR2 &= ~(ADC_CR2_EXTSEL);
 8006092:	687b      	ldr	r3, [r7, #4]
 8006094:	681b      	ldr	r3, [r3, #0]
 8006096:	689a      	ldr	r2, [r3, #8]
 8006098:	687b      	ldr	r3, [r7, #4]
 800609a:	681b      	ldr	r3, [r3, #0]
 800609c:	f022 6270 	bic.w	r2, r2, #251658240	; 0xf000000
 80060a0:	609a      	str	r2, [r3, #8]
    hadc->Instance->CR2 &= ~(ADC_CR2_EXTEN);
 80060a2:	687b      	ldr	r3, [r7, #4]
 80060a4:	681b      	ldr	r3, [r3, #0]
 80060a6:	689a      	ldr	r2, [r3, #8]
 80060a8:	687b      	ldr	r3, [r7, #4]
 80060aa:	681b      	ldr	r3, [r3, #0]
 80060ac:	f022 5240 	bic.w	r2, r2, #805306368	; 0x30000000
 80060b0:	609a      	str	r2, [r3, #8]
  }
  
  /* Enable or disable ADC continuous conversion mode */
  hadc->Instance->CR2 &= ~(ADC_CR2_CONT);
 80060b2:	687b      	ldr	r3, [r7, #4]
 80060b4:	681b      	ldr	r3, [r3, #0]
 80060b6:	689a      	ldr	r2, [r3, #8]
 80060b8:	687b      	ldr	r3, [r7, #4]
 80060ba:	681b      	ldr	r3, [r3, #0]
 80060bc:	f022 0202 	bic.w	r2, r2, #2
 80060c0:	609a      	str	r2, [r3, #8]
  hadc->Instance->CR2 |= ADC_CR2_CONTINUOUS((uint32_t)hadc->Init.ContinuousConvMode);
 80060c2:	687b      	ldr	r3, [r7, #4]
 80060c4:	681b      	ldr	r3, [r3, #0]
 80060c6:	6899      	ldr	r1, [r3, #8]
 80060c8:	687b      	ldr	r3, [r7, #4]
 80060ca:	7e1b      	ldrb	r3, [r3, #24]
 80060cc:	005a      	lsls	r2, r3, #1
 80060ce:	687b      	ldr	r3, [r7, #4]
 80060d0:	681b      	ldr	r3, [r3, #0]
 80060d2:	430a      	orrs	r2, r1
 80060d4:	609a      	str	r2, [r3, #8]
  
  if(hadc->Init.DiscontinuousConvMode != DISABLE)
 80060d6:	687b      	ldr	r3, [r7, #4]
 80060d8:	f893 3020 	ldrb.w	r3, [r3, #32]
 80060dc:	2b00      	cmp	r3, #0
 80060de:	d01b      	beq.n	8006118 <ADC_Init+0x164>
  {
    assert_param(IS_ADC_REGULAR_DISC_NUMBER(hadc->Init.NbrOfDiscConversion));
  
    /* Enable the selected ADC regular discontinuous mode */
    hadc->Instance->CR1 |= (uint32_t)ADC_CR1_DISCEN;
 80060e0:	687b      	ldr	r3, [r7, #4]
 80060e2:	681b      	ldr	r3, [r3, #0]
 80060e4:	685a      	ldr	r2, [r3, #4]
 80060e6:	687b      	ldr	r3, [r7, #4]
 80060e8:	681b      	ldr	r3, [r3, #0]
 80060ea:	f442 6200 	orr.w	r2, r2, #2048	; 0x800
 80060ee:	605a      	str	r2, [r3, #4]
    
    /* Set the number of channels to be converted in discontinuous mode */
    hadc->Instance->CR1 &= ~(ADC_CR1_DISCNUM);
 80060f0:	687b      	ldr	r3, [r7, #4]
 80060f2:	681b      	ldr	r3, [r3, #0]
 80060f4:	685a      	ldr	r2, [r3, #4]
 80060f6:	687b      	ldr	r3, [r7, #4]
 80060f8:	681b      	ldr	r3, [r3, #0]
 80060fa:	f422 4260 	bic.w	r2, r2, #57344	; 0xe000
 80060fe:	605a      	str	r2, [r3, #4]
    hadc->Instance->CR1 |=  ADC_CR1_DISCONTINUOUS(hadc->Init.NbrOfDiscConversion);
 8006100:	687b      	ldr	r3, [r7, #4]
 8006102:	681b      	ldr	r3, [r3, #0]
 8006104:	6859      	ldr	r1, [r3, #4]
 8006106:	687b      	ldr	r3, [r7, #4]
 8006108:	6a5b      	ldr	r3, [r3, #36]	; 0x24
 800610a:	3b01      	subs	r3, #1
 800610c:	035a      	lsls	r2, r3, #13
 800610e:	687b      	ldr	r3, [r7, #4]
 8006110:	681b      	ldr	r3, [r3, #0]
 8006112:	430a      	orrs	r2, r1
 8006114:	605a      	str	r2, [r3, #4]
 8006116:	e007      	b.n	8006128 <ADC_Init+0x174>
  }
  else
  {
    /* Disable the selected ADC regular discontinuous mode */
    hadc->Instance->CR1 &= ~(ADC_CR1_DISCEN);
 8006118:	687b      	ldr	r3, [r7, #4]
 800611a:	681b      	ldr	r3, [r3, #0]
 800611c:	685a      	ldr	r2, [r3, #4]
 800611e:	687b      	ldr	r3, [r7, #4]
 8006120:	681b      	ldr	r3, [r3, #0]
 8006122:	f422 6200 	bic.w	r2, r2, #2048	; 0x800
 8006126:	605a      	str	r2, [r3, #4]
  }
  
  /* Set ADC number of conversion */
  hadc->Instance->SQR1 &= ~(ADC_SQR1_L);
 8006128:	687b      	ldr	r3, [r7, #4]
 800612a:	681b      	ldr	r3, [r3, #0]
 800612c:	6ada      	ldr	r2, [r3, #44]	; 0x2c
 800612e:	687b      	ldr	r3, [r7, #4]
 8006130:	681b      	ldr	r3, [r3, #0]
 8006132:	f422 0270 	bic.w	r2, r2, #15728640	; 0xf00000
 8006136:	62da      	str	r2, [r3, #44]	; 0x2c
  hadc->Instance->SQR1 |=  ADC_SQR1(hadc->Init.NbrOfConversion);
 8006138:	687b      	ldr	r3, [r7, #4]
 800613a:	681b      	ldr	r3, [r3, #0]
 800613c:	6ad9      	ldr	r1, [r3, #44]	; 0x2c
 800613e:	687b      	ldr	r3, [r7, #4]
 8006140:	69db      	ldr	r3, [r3, #28]
 8006142:	3b01      	subs	r3, #1
 8006144:	051a      	lsls	r2, r3, #20
 8006146:	687b      	ldr	r3, [r7, #4]
 8006148:	681b      	ldr	r3, [r3, #0]
 800614a:	430a      	orrs	r2, r1
 800614c:	62da      	str	r2, [r3, #44]	; 0x2c
  
  /* Enable or disable ADC DMA continuous request */
  hadc->Instance->CR2 &= ~(ADC_CR2_DDS);
 800614e:	687b      	ldr	r3, [r7, #4]
 8006150:	681b      	ldr	r3, [r3, #0]
 8006152:	689a      	ldr	r2, [r3, #8]
 8006154:	687b      	ldr	r3, [r7, #4]
 8006156:	681b      	ldr	r3, [r3, #0]
 8006158:	f422 7200 	bic.w	r2, r2, #512	; 0x200
 800615c:	609a      	str	r2, [r3, #8]
  hadc->Instance->CR2 |= ADC_CR2_DMAContReq((uint32_t)hadc->Init.DMAContinuousRequests);
 800615e:	687b      	ldr	r3, [r7, #4]
 8006160:	681b      	ldr	r3, [r3, #0]
 8006162:	6899      	ldr	r1, [r3, #8]
 8006164:	687b      	ldr	r3, [r7, #4]
 8006166:	f893 3030 	ldrb.w	r3, [r3, #48]	; 0x30
 800616a:	025a      	lsls	r2, r3, #9
 800616c:	687b      	ldr	r3, [r7, #4]
 800616e:	681b      	ldr	r3, [r3, #0]
 8006170:	430a      	orrs	r2, r1
 8006172:	609a      	str	r2, [r3, #8]
  
  /* Enable or disable ADC end of conversion selection */
  hadc->Instance->CR2 &= ~(ADC_CR2_EOCS);
 8006174:	687b      	ldr	r3, [r7, #4]
 8006176:	681b      	ldr	r3, [r3, #0]
 8006178:	689a      	ldr	r2, [r3, #8]
 800617a:	687b      	ldr	r3, [r7, #4]
 800617c:	681b      	ldr	r3, [r3, #0]
 800617e:	f422 6280 	bic.w	r2, r2, #1024	; 0x400
 8006182:	609a      	str	r2, [r3, #8]
  hadc->Instance->CR2 |= ADC_CR2_EOCSelection(hadc->Init.EOCSelection);
 8006184:	687b      	ldr	r3, [r7, #4]
 8006186:	681b      	ldr	r3, [r3, #0]
 8006188:	6899      	ldr	r1, [r3, #8]
 800618a:	687b      	ldr	r3, [r7, #4]
 800618c:	695b      	ldr	r3, [r3, #20]
 800618e:	029a      	lsls	r2, r3, #10
 8006190:	687b      	ldr	r3, [r7, #4]
 8006192:	681b      	ldr	r3, [r3, #0]
 8006194:	430a      	orrs	r2, r1
 8006196:	609a      	str	r2, [r3, #8]
}
 8006198:	bf00      	nop
 800619a:	3714      	adds	r7, #20
 800619c:	46bd      	mov	sp, r7
 800619e:	f85d 7b04 	ldr.w	r7, [sp], #4
 80061a2:	4770      	bx	lr
 80061a4:	40012300 	.word	0x40012300
 80061a8:	0f000001 	.word	0x0f000001

080061ac <__NVIC_SetPriorityGrouping>:
           In case of a conflict between priority grouping and available
           priority bits (__NVIC_PRIO_BITS), the smallest possible priority group is set.
  \param [in]      PriorityGroup  Priority grouping field.
 */
__STATIC_INLINE void __NVIC_SetPriorityGrouping(uint32_t PriorityGroup)
{
 80061ac:	b480      	push	{r7}
 80061ae:	b085      	sub	sp, #20
 80061b0:	af00      	add	r7, sp, #0
 80061b2:	6078      	str	r0, [r7, #4]
  uint32_t reg_value;
  uint32_t PriorityGroupTmp = (PriorityGroup & (uint32_t)0x07UL);             /* only values 0..7 are used          */
 80061b4:	687b      	ldr	r3, [r7, #4]
 80061b6:	f003 0307 	and.w	r3, r3, #7
 80061ba:	60fb      	str	r3, [r7, #12]

  reg_value  =  SCB->AIRCR;                                                   /* read old register configuration    */
 80061bc:	4b0c      	ldr	r3, [pc, #48]	; (80061f0 <__NVIC_SetPriorityGrouping+0x44>)
 80061be:	68db      	ldr	r3, [r3, #12]
 80061c0:	60bb      	str	r3, [r7, #8]
  reg_value &= ~((uint32_t)(SCB_AIRCR_VECTKEY_Msk | SCB_AIRCR_PRIGROUP_Msk)); /* clear bits to change               */
 80061c2:	68ba      	ldr	r2, [r7, #8]
 80061c4:	f64f 03ff 	movw	r3, #63743	; 0xf8ff
 80061c8:	4013      	ands	r3, r2
 80061ca:	60bb      	str	r3, [r7, #8]
  reg_value  =  (reg_value                                   |
                ((uint32_t)0x5FAUL << SCB_AIRCR_VECTKEY_Pos) |
                (PriorityGroupTmp << SCB_AIRCR_PRIGROUP_Pos)  );              /* Insert write key and priority group */
 80061cc:	68fb      	ldr	r3, [r7, #12]
 80061ce:	021a      	lsls	r2, r3, #8
                ((uint32_t)0x5FAUL << SCB_AIRCR_VECTKEY_Pos) |
 80061d0:	68bb      	ldr	r3, [r7, #8]
 80061d2:	4313      	orrs	r3, r2
  reg_value  =  (reg_value                                   |
 80061d4:	f043 63bf 	orr.w	r3, r3, #100139008	; 0x5f80000
 80061d8:	f443 3300 	orr.w	r3, r3, #131072	; 0x20000
 80061dc:	60bb      	str	r3, [r7, #8]
  SCB->AIRCR =  reg_value;
 80061de:	4a04      	ldr	r2, [pc, #16]	; (80061f0 <__NVIC_SetPriorityGrouping+0x44>)
 80061e0:	68bb      	ldr	r3, [r7, #8]
 80061e2:	60d3      	str	r3, [r2, #12]
}
 80061e4:	bf00      	nop
 80061e6:	3714      	adds	r7, #20
 80061e8:	46bd      	mov	sp, r7
 80061ea:	f85d 7b04 	ldr.w	r7, [sp], #4
 80061ee:	4770      	bx	lr
 80061f0:	e000ed00 	.word	0xe000ed00

080061f4 <__NVIC_GetPriorityGrouping>:
  \brief   Get Priority Grouping
  \details Reads the priority grouping field from the NVIC Interrupt Controller.
  \return                Priority grouping field (SCB->AIRCR [10:8] PRIGROUP field).
 */
__STATIC_INLINE uint32_t __NVIC_GetPriorityGrouping(void)
{
 80061f4:	b480      	push	{r7}
 80061f6:	af00      	add	r7, sp, #0
  return ((uint32_t)((SCB->AIRCR & SCB_AIRCR_PRIGROUP_Msk) >> SCB_AIRCR_PRIGROUP_Pos));
 80061f8:	4b04      	ldr	r3, [pc, #16]	; (800620c <__NVIC_GetPriorityGrouping+0x18>)
 80061fa:	68db      	ldr	r3, [r3, #12]
 80061fc:	0a1b      	lsrs	r3, r3, #8
 80061fe:	f003 0307 	and.w	r3, r3, #7
}
 8006202:	4618      	mov	r0, r3
 8006204:	46bd      	mov	sp, r7
 8006206:	f85d 7b04 	ldr.w	r7, [sp], #4
 800620a:	4770      	bx	lr
 800620c:	e000ed00 	.word	0xe000ed00

08006210 <__NVIC_EnableIRQ>:
  \details Enables a device specific interrupt in the NVIC interrupt controller.
  \param [in]      IRQn  Device specific interrupt number.
  \note    IRQn must not be negative.
 */
__STATIC_INLINE void __NVIC_EnableIRQ(IRQn_Type IRQn)
{
 8006210:	b480      	push	{r7}
 8006212:	b083      	sub	sp, #12
 8006214:	af00      	add	r7, sp, #0
 8006216:	4603      	mov	r3, r0
 8006218:	71fb      	strb	r3, [r7, #7]
  if ((int32_t)(IRQn) >= 0)
 800621a:	f997 3007 	ldrsb.w	r3, [r7, #7]
 800621e:	2b00      	cmp	r3, #0
 8006220:	db0b      	blt.n	800623a <__NVIC_EnableIRQ+0x2a>
  {
    NVIC->ISER[(((uint32_t)IRQn) >> 5UL)] = (uint32_t)(1UL << (((uint32_t)IRQn) & 0x1FUL));
 8006222:	79fb      	ldrb	r3, [r7, #7]
 8006224:	f003 021f 	and.w	r2, r3, #31
 8006228:	4907      	ldr	r1, [pc, #28]	; (8006248 <__NVIC_EnableIRQ+0x38>)
 800622a:	f997 3007 	ldrsb.w	r3, [r7, #7]
 800622e:	095b      	lsrs	r3, r3, #5
 8006230:	2001      	movs	r0, #1
 8006232:	fa00 f202 	lsl.w	r2, r0, r2
 8006236:	f841 2023 	str.w	r2, [r1, r3, lsl #2]
  }
}
 800623a:	bf00      	nop
 800623c:	370c      	adds	r7, #12
 800623e:	46bd      	mov	sp, r7
 8006240:	f85d 7b04 	ldr.w	r7, [sp], #4
 8006244:	4770      	bx	lr
 8006246:	bf00      	nop
 8006248:	e000e100 	.word	0xe000e100

0800624c <__NVIC_SetPriority>:
  \param [in]      IRQn  Interrupt number.
  \param [in]  priority  Priority to set.
  \note    The priority cannot be set for every processor exception.
 */
__STATIC_INLINE void __NVIC_SetPriority(IRQn_Type IRQn, uint32_t priority)
{
 800624c:	b480      	push	{r7}
 800624e:	b083      	sub	sp, #12
 8006250:	af00      	add	r7, sp, #0
 8006252:	4603      	mov	r3, r0
 8006254:	6039      	str	r1, [r7, #0]
 8006256:	71fb      	strb	r3, [r7, #7]
  if ((int32_t)(IRQn) >= 0)
 8006258:	f997 3007 	ldrsb.w	r3, [r7, #7]
 800625c:	2b00      	cmp	r3, #0
 800625e:	db0a      	blt.n	8006276 <__NVIC_SetPriority+0x2a>
  {
    NVIC->IP[((uint32_t)IRQn)]               = (uint8_t)((priority << (8U - __NVIC_PRIO_BITS)) & (uint32_t)0xFFUL);
 8006260:	683b      	ldr	r3, [r7, #0]
 8006262:	b2da      	uxtb	r2, r3
 8006264:	490c      	ldr	r1, [pc, #48]	; (8006298 <__NVIC_SetPriority+0x4c>)
 8006266:	f997 3007 	ldrsb.w	r3, [r7, #7]
 800626a:	0112      	lsls	r2, r2, #4
 800626c:	b2d2      	uxtb	r2, r2
 800626e:	440b      	add	r3, r1
 8006270:	f883 2300 	strb.w	r2, [r3, #768]	; 0x300
  }
  else
  {
    SCB->SHP[(((uint32_t)IRQn) & 0xFUL)-4UL] = (uint8_t)((priority << (8U - __NVIC_PRIO_BITS)) & (uint32_t)0xFFUL);
  }
}
 8006274:	e00a      	b.n	800628c <__NVIC_SetPriority+0x40>
    SCB->SHP[(((uint32_t)IRQn) & 0xFUL)-4UL] = (uint8_t)((priority << (8U - __NVIC_PRIO_BITS)) & (uint32_t)0xFFUL);
 8006276:	683b      	ldr	r3, [r7, #0]
 8006278:	b2da      	uxtb	r2, r3
 800627a:	4908      	ldr	r1, [pc, #32]	; (800629c <__NVIC_SetPriority+0x50>)
 800627c:	79fb      	ldrb	r3, [r7, #7]
 800627e:	f003 030f 	and.w	r3, r3, #15
 8006282:	3b04      	subs	r3, #4
 8006284:	0112      	lsls	r2, r2, #4
 8006286:	b2d2      	uxtb	r2, r2
 8006288:	440b      	add	r3, r1
 800628a:	761a      	strb	r2, [r3, #24]
}
 800628c:	bf00      	nop
 800628e:	370c      	adds	r7, #12
 8006290:	46bd      	mov	sp, r7
 8006292:	f85d 7b04 	ldr.w	r7, [sp], #4
 8006296:	4770      	bx	lr
 8006298:	e000e100 	.word	0xe000e100
 800629c:	e000ed00 	.word	0xe000ed00

080062a0 <NVIC_EncodePriority>:
  \param [in]   PreemptPriority  Preemptive priority value (starting from 0).
  \param [in]       SubPriority  Subpriority value (starting from 0).
  \return                        Encoded priority. Value can be used in the function \ref NVIC_SetPriority().
 */
__STATIC_INLINE uint32_t NVIC_EncodePriority (uint32_t PriorityGroup, uint32_t PreemptPriority, uint32_t SubPriority)
{
 80062a0:	b480      	push	{r7}
 80062a2:	b089      	sub	sp, #36	; 0x24
 80062a4:	af00      	add	r7, sp, #0
 80062a6:	60f8      	str	r0, [r7, #12]
 80062a8:	60b9      	str	r1, [r7, #8]
 80062aa:	607a      	str	r2, [r7, #4]
  uint32_t PriorityGroupTmp = (PriorityGroup & (uint32_t)0x07UL);   /* only values 0..7 are used          */
 80062ac:	68fb      	ldr	r3, [r7, #12]
 80062ae:	f003 0307 	and.w	r3, r3, #7
 80062b2:	61fb      	str	r3, [r7, #28]
  uint32_t PreemptPriorityBits;
  uint32_t SubPriorityBits;

  PreemptPriorityBits = ((7UL - PriorityGroupTmp) > (uint32_t)(__NVIC_PRIO_BITS)) ? (uint32_t)(__NVIC_PRIO_BITS) : (uint32_t)(7UL - PriorityGroupTmp);
 80062b4:	69fb      	ldr	r3, [r7, #28]
 80062b6:	f1c3 0307 	rsb	r3, r3, #7
 80062ba:	2b04      	cmp	r3, #4
 80062bc:	bf28      	it	cs
 80062be:	2304      	movcs	r3, #4
 80062c0:	61bb      	str	r3, [r7, #24]
  SubPriorityBits     = ((PriorityGroupTmp + (uint32_t)(__NVIC_PRIO_BITS)) < (uint32_t)7UL) ? (uint32_t)0UL : (uint32_t)((PriorityGroupTmp - 7UL) + (uint32_t)(__NVIC_PRIO_BITS));
 80062c2:	69fb      	ldr	r3, [r7, #28]
 80062c4:	3304      	adds	r3, #4
 80062c6:	2b06      	cmp	r3, #6
 80062c8:	d902      	bls.n	80062d0 <NVIC_EncodePriority+0x30>
 80062ca:	69fb      	ldr	r3, [r7, #28]
 80062cc:	3b03      	subs	r3, #3
 80062ce:	e000      	b.n	80062d2 <NVIC_EncodePriority+0x32>
 80062d0:	2300      	movs	r3, #0
 80062d2:	617b      	str	r3, [r7, #20]

  return (
           ((PreemptPriority & (uint32_t)((1UL << (PreemptPriorityBits)) - 1UL)) << SubPriorityBits) |
 80062d4:	f04f 32ff 	mov.w	r2, #4294967295
 80062d8:	69bb      	ldr	r3, [r7, #24]
 80062da:	fa02 f303 	lsl.w	r3, r2, r3
 80062de:	43da      	mvns	r2, r3
 80062e0:	68bb      	ldr	r3, [r7, #8]
 80062e2:	401a      	ands	r2, r3
 80062e4:	697b      	ldr	r3, [r7, #20]
 80062e6:	409a      	lsls	r2, r3
           ((SubPriority     & (uint32_t)((1UL << (SubPriorityBits    )) - 1UL)))
 80062e8:	f04f 31ff 	mov.w	r1, #4294967295
 80062ec:	697b      	ldr	r3, [r7, #20]
 80062ee:	fa01 f303 	lsl.w	r3, r1, r3
 80062f2:	43d9      	mvns	r1, r3
 80062f4:	687b      	ldr	r3, [r7, #4]
 80062f6:	400b      	ands	r3, r1
           ((PreemptPriority & (uint32_t)((1UL << (PreemptPriorityBits)) - 1UL)) << SubPriorityBits) |
 80062f8:	4313      	orrs	r3, r2
         );
}
 80062fa:	4618      	mov	r0, r3
 80062fc:	3724      	adds	r7, #36	; 0x24
 80062fe:	46bd      	mov	sp, r7
 8006300:	f85d 7b04 	ldr.w	r7, [sp], #4
 8006304:	4770      	bx	lr
	...

08006308 <SysTick_Config>:
  \note    When the variable <b>__Vendor_SysTickConfig</b> is set to 1, then the
           function <b>SysTick_Config</b> is not included. In this case, the file <b><i>device</i>.h</b>
           must contain a vendor-specific implementation of this function.
 */
__STATIC_INLINE uint32_t SysTick_Config(uint32_t ticks)
{
 8006308:	b580      	push	{r7, lr}
 800630a:	b082      	sub	sp, #8
 800630c:	af00      	add	r7, sp, #0
 800630e:	6078      	str	r0, [r7, #4]
  if ((ticks - 1UL) > SysTick_LOAD_RELOAD_Msk)
 8006310:	687b      	ldr	r3, [r7, #4]
 8006312:	3b01      	subs	r3, #1
 8006314:	f1b3 7f80 	cmp.w	r3, #16777216	; 0x1000000
 8006318:	d301      	bcc.n	800631e <SysTick_Config+0x16>
  {
    return (1UL);                                                   /* Reload value impossible */
 800631a:	2301      	movs	r3, #1
 800631c:	e00f      	b.n	800633e <SysTick_Config+0x36>
  }

  SysTick->LOAD  = (uint32_t)(ticks - 1UL);                         /* set reload register */
 800631e:	4a0a      	ldr	r2, [pc, #40]	; (8006348 <SysTick_Config+0x40>)
 8006320:	687b      	ldr	r3, [r7, #4]
 8006322:	3b01      	subs	r3, #1
 8006324:	6053      	str	r3, [r2, #4]
  NVIC_SetPriority (SysTick_IRQn, (1UL << __NVIC_PRIO_BITS) - 1UL); /* set Priority for Systick Interrupt */
 8006326:	210f      	movs	r1, #15
 8006328:	f04f 30ff 	mov.w	r0, #4294967295
 800632c:	f7ff ff8e 	bl	800624c <__NVIC_SetPriority>
  SysTick->VAL   = 0UL;                                             /* Load the SysTick Counter Value */
 8006330:	4b05      	ldr	r3, [pc, #20]	; (8006348 <SysTick_Config+0x40>)
 8006332:	2200      	movs	r2, #0
 8006334:	609a      	str	r2, [r3, #8]
  SysTick->CTRL  = SysTick_CTRL_CLKSOURCE_Msk |
 8006336:	4b04      	ldr	r3, [pc, #16]	; (8006348 <SysTick_Config+0x40>)
 8006338:	2207      	movs	r2, #7
 800633a:	601a      	str	r2, [r3, #0]
                   SysTick_CTRL_TICKINT_Msk   |
                   SysTick_CTRL_ENABLE_Msk;                         /* Enable SysTick IRQ and SysTick Timer */
  return (0UL);                                                     /* Function successful */
 800633c:	2300      	movs	r3, #0
}
 800633e:	4618      	mov	r0, r3
 8006340:	3708      	adds	r7, #8
 8006342:	46bd      	mov	sp, r7
 8006344:	bd80      	pop	{r7, pc}
 8006346:	bf00      	nop
 8006348:	e000e010 	.word	0xe000e010

0800634c <HAL_NVIC_SetPriorityGrouping>:
  * @note   When the NVIC_PriorityGroup_0 is selected, IRQ preemption is no more possible. 
  *         The pending IRQ priority will be managed only by the subpriority. 
  * @retval None
  */
void HAL_NVIC_SetPriorityGrouping(uint32_t PriorityGroup)
{
 800634c:	b580      	push	{r7, lr}
 800634e:	b082      	sub	sp, #8
 8006350:	af00      	add	r7, sp, #0
 8006352:	6078      	str	r0, [r7, #4]
  /* Check the parameters */
  assert_param(IS_NVIC_PRIORITY_GROUP(PriorityGroup));
  
  /* Set the PRIGROUP[10:8] bits according to the PriorityGroup parameter value */
  NVIC_SetPriorityGrouping(PriorityGroup);
 8006354:	6878      	ldr	r0, [r7, #4]
 8006356:	f7ff ff29 	bl	80061ac <__NVIC_SetPriorityGrouping>
}
 800635a:	bf00      	nop
 800635c:	3708      	adds	r7, #8
 800635e:	46bd      	mov	sp, r7
 8006360:	bd80      	pop	{r7, pc}

08006362 <HAL_NVIC_SetPriority>:
  *         This parameter can be a value between 0 and 15
  *         A lower priority value indicates a higher priority.          
  * @retval None
  */
void HAL_NVIC_SetPriority(IRQn_Type IRQn, uint32_t PreemptPriority, uint32_t SubPriority)
{ 
 8006362:	b580      	push	{r7, lr}
 8006364:	b086      	sub	sp, #24
 8006366:	af00      	add	r7, sp, #0
 8006368:	4603      	mov	r3, r0
 800636a:	60b9      	str	r1, [r7, #8]
 800636c:	607a      	str	r2, [r7, #4]
 800636e:	73fb      	strb	r3, [r7, #15]
  uint32_t prioritygroup = 0x00U;
 8006370:	2300      	movs	r3, #0
 8006372:	617b      	str	r3, [r7, #20]
  
  /* Check the parameters */
  assert_param(IS_NVIC_SUB_PRIORITY(SubPriority));
  assert_param(IS_NVIC_PREEMPTION_PRIORITY(PreemptPriority));
  
  prioritygroup = NVIC_GetPriorityGrouping();
 8006374:	f7ff ff3e 	bl	80061f4 <__NVIC_GetPriorityGrouping>
 8006378:	6178      	str	r0, [r7, #20]
  
  NVIC_SetPriority(IRQn, NVIC_EncodePriority(prioritygroup, PreemptPriority, SubPriority));
 800637a:	687a      	ldr	r2, [r7, #4]
 800637c:	68b9      	ldr	r1, [r7, #8]
 800637e:	6978      	ldr	r0, [r7, #20]
 8006380:	f7ff ff8e 	bl	80062a0 <NVIC_EncodePriority>
 8006384:	4602      	mov	r2, r0
 8006386:	f997 300f 	ldrsb.w	r3, [r7, #15]
 800638a:	4611      	mov	r1, r2
 800638c:	4618      	mov	r0, r3
 800638e:	f7ff ff5d 	bl	800624c <__NVIC_SetPriority>
}
 8006392:	bf00      	nop
 8006394:	3718      	adds	r7, #24
 8006396:	46bd      	mov	sp, r7
 8006398:	bd80      	pop	{r7, pc}

0800639a <HAL_NVIC_EnableIRQ>:
  *         This parameter can be an enumerator of IRQn_Type enumeration
  *         (For the complete STM32 Devices IRQ Channels list, please refer to the appropriate CMSIS device file (stm32f4xxxx.h))
  * @retval None
  */
void HAL_NVIC_EnableIRQ(IRQn_Type IRQn)
{
 800639a:	b580      	push	{r7, lr}
 800639c:	b082      	sub	sp, #8
 800639e:	af00      	add	r7, sp, #0
 80063a0:	4603      	mov	r3, r0
 80063a2:	71fb      	strb	r3, [r7, #7]
  /* Check the parameters */
  assert_param(IS_NVIC_DEVICE_IRQ(IRQn));
  
  /* Enable interrupt */
  NVIC_EnableIRQ(IRQn);
 80063a4:	f997 3007 	ldrsb.w	r3, [r7, #7]
 80063a8:	4618      	mov	r0, r3
 80063aa:	f7ff ff31 	bl	8006210 <__NVIC_EnableIRQ>
}
 80063ae:	bf00      	nop
 80063b0:	3708      	adds	r7, #8
 80063b2:	46bd      	mov	sp, r7
 80063b4:	bd80      	pop	{r7, pc}

080063b6 <HAL_SYSTICK_Config>:
  * @param  TicksNumb Specifies the ticks Number of ticks between two interrupts.
  * @retval status:  - 0  Function succeeded.
  *                  - 1  Function failed.
  */
uint32_t HAL_SYSTICK_Config(uint32_t TicksNumb)
{
 80063b6:	b580      	push	{r7, lr}
 80063b8:	b082      	sub	sp, #8
 80063ba:	af00      	add	r7, sp, #0
 80063bc:	6078      	str	r0, [r7, #4]
   return SysTick_Config(TicksNumb);
 80063be:	6878      	ldr	r0, [r7, #4]
 80063c0:	f7ff ffa2 	bl	8006308 <SysTick_Config>
 80063c4:	4603      	mov	r3, r0
}
 80063c6:	4618      	mov	r0, r3
 80063c8:	3708      	adds	r7, #8
 80063ca:	46bd      	mov	sp, r7
 80063cc:	bd80      	pop	{r7, pc}
	...

080063d0 <HAL_DMA_Init>:
  * @param  hdma Pointer to a DMA_HandleTypeDef structure that contains
  *               the configuration information for the specified DMA Stream.  
  * @retval HAL status
  */
HAL_StatusTypeDef HAL_DMA_Init(DMA_HandleTypeDef *hdma)
{
 80063d0:	b580      	push	{r7, lr}
 80063d2:	b086      	sub	sp, #24
 80063d4:	af00      	add	r7, sp, #0
 80063d6:	6078      	str	r0, [r7, #4]
  uint32_t tmp = 0U;
 80063d8:	2300      	movs	r3, #0
 80063da:	617b      	str	r3, [r7, #20]
  uint32_t tickstart = HAL_GetTick();
 80063dc:	f7ff fc54 	bl	8005c88 <HAL_GetTick>
 80063e0:	6138      	str	r0, [r7, #16]
  DMA_Base_Registers *regs;

  /* Check the DMA peripheral state */
  if(hdma == NULL)
 80063e2:	687b      	ldr	r3, [r7, #4]
 80063e4:	2b00      	cmp	r3, #0
 80063e6:	d101      	bne.n	80063ec <HAL_DMA_Init+0x1c>
  {
    return HAL_ERROR;
 80063e8:	2301      	movs	r3, #1
 80063ea:	e099      	b.n	8006520 <HAL_DMA_Init+0x150>
    assert_param(IS_DMA_MEMORY_BURST(hdma->Init.MemBurst));
    assert_param(IS_DMA_PERIPHERAL_BURST(hdma->Init.PeriphBurst));
  }

  /* Change DMA peripheral state */
  hdma->State = HAL_DMA_STATE_BUSY;
 80063ec:	687b      	ldr	r3, [r7, #4]
 80063ee:	2202      	movs	r2, #2
 80063f0:	f883 2035 	strb.w	r2, [r3, #53]	; 0x35

  /* Allocate lock resource */
  __HAL_UNLOCK(hdma);
 80063f4:	687b      	ldr	r3, [r7, #4]
 80063f6:	2200      	movs	r2, #0
 80063f8:	f883 2034 	strb.w	r2, [r3, #52]	; 0x34
  
  /* Disable the peripheral */
  __HAL_DMA_DISABLE(hdma);
 80063fc:	687b      	ldr	r3, [r7, #4]
 80063fe:	681b      	ldr	r3, [r3, #0]
 8006400:	681a      	ldr	r2, [r3, #0]
 8006402:	687b      	ldr	r3, [r7, #4]
 8006404:	681b      	ldr	r3, [r3, #0]
 8006406:	f022 0201 	bic.w	r2, r2, #1
 800640a:	601a      	str	r2, [r3, #0]
  
  /* Check if the DMA Stream is effectively disabled */
  while((hdma->Instance->CR & DMA_SxCR_EN) != RESET)
 800640c:	e00f      	b.n	800642e <HAL_DMA_Init+0x5e>
  {
    /* Check for the Timeout */
    if((HAL_GetTick() - tickstart ) > HAL_TIMEOUT_DMA_ABORT)
 800640e:	f7ff fc3b 	bl	8005c88 <HAL_GetTick>
 8006412:	4602      	mov	r2, r0
 8006414:	693b      	ldr	r3, [r7, #16]
 8006416:	1ad3      	subs	r3, r2, r3
 8006418:	2b05      	cmp	r3, #5
 800641a:	d908      	bls.n	800642e <HAL_DMA_Init+0x5e>
    {
      /* Update error code */
      hdma->ErrorCode = HAL_DMA_ERROR_TIMEOUT;
 800641c:	687b      	ldr	r3, [r7, #4]
 800641e:	2220      	movs	r2, #32
 8006420:	655a      	str	r2, [r3, #84]	; 0x54
      
      /* Change the DMA state */
      hdma->State = HAL_DMA_STATE_TIMEOUT;
 8006422:	687b      	ldr	r3, [r7, #4]
 8006424:	2203      	movs	r2, #3
 8006426:	f883 2035 	strb.w	r2, [r3, #53]	; 0x35
      
      return HAL_TIMEOUT;
 800642a:	2303      	movs	r3, #3
 800642c:	e078      	b.n	8006520 <HAL_DMA_Init+0x150>
  while((hdma->Instance->CR & DMA_SxCR_EN) != RESET)
 800642e:	687b      	ldr	r3, [r7, #4]
 8006430:	681b      	ldr	r3, [r3, #0]
 8006432:	681b      	ldr	r3, [r3, #0]
 8006434:	f003 0301 	and.w	r3, r3, #1
 8006438:	2b00      	cmp	r3, #0
 800643a:	d1e8      	bne.n	800640e <HAL_DMA_Init+0x3e>
    }
  }
  
  /* Get the CR register value */
  tmp = hdma->Instance->CR;
 800643c:	687b      	ldr	r3, [r7, #4]
 800643e:	681b      	ldr	r3, [r3, #0]
 8006440:	681b      	ldr	r3, [r3, #0]
 8006442:	617b      	str	r3, [r7, #20]

  /* Clear CHSEL, MBURST, PBURST, PL, MSIZE, PSIZE, MINC, PINC, CIRC, DIR, CT and DBM bits */
  tmp &= ((uint32_t)~(DMA_SxCR_CHSEL | DMA_SxCR_MBURST | DMA_SxCR_PBURST | \
 8006444:	697a      	ldr	r2, [r7, #20]
 8006446:	4b38      	ldr	r3, [pc, #224]	; (8006528 <HAL_DMA_Init+0x158>)
 8006448:	4013      	ands	r3, r2
 800644a:	617b      	str	r3, [r7, #20]
                      DMA_SxCR_PL    | DMA_SxCR_MSIZE  | DMA_SxCR_PSIZE  | \
                      DMA_SxCR_MINC  | DMA_SxCR_PINC   | DMA_SxCR_CIRC   | \
                      DMA_SxCR_DIR   | DMA_SxCR_CT     | DMA_SxCR_DBM));

  /* Prepare the DMA Stream configuration */
  tmp |=  hdma->Init.Channel             | hdma->Init.Direction        |
 800644c:	687b      	ldr	r3, [r7, #4]
 800644e:	685a      	ldr	r2, [r3, #4]
 8006450:	687b      	ldr	r3, [r7, #4]
 8006452:	689b      	ldr	r3, [r3, #8]
 8006454:	431a      	orrs	r2, r3
          hdma->Init.PeriphInc           | hdma->Init.MemInc           |
 8006456:	687b      	ldr	r3, [r7, #4]
 8006458:	68db      	ldr	r3, [r3, #12]
  tmp |=  hdma->Init.Channel             | hdma->Init.Direction        |
 800645a:	431a      	orrs	r2, r3
          hdma->Init.PeriphInc           | hdma->Init.MemInc           |
 800645c:	687b      	ldr	r3, [r7, #4]
 800645e:	691b      	ldr	r3, [r3, #16]
 8006460:	431a      	orrs	r2, r3
          hdma->Init.PeriphDataAlignment | hdma->Init.MemDataAlignment |
 8006462:	687b      	ldr	r3, [r7, #4]
 8006464:	695b      	ldr	r3, [r3, #20]
          hdma->Init.PeriphInc           | hdma->Init.MemInc           |
 8006466:	431a      	orrs	r2, r3
          hdma->Init.PeriphDataAlignment | hdma->Init.MemDataAlignment |
 8006468:	687b      	ldr	r3, [r7, #4]
 800646a:	699b      	ldr	r3, [r3, #24]
 800646c:	431a      	orrs	r2, r3
          hdma->Init.Mode                | hdma->Init.Priority;
 800646e:	687b      	ldr	r3, [r7, #4]
 8006470:	69db      	ldr	r3, [r3, #28]
          hdma->Init.PeriphDataAlignment | hdma->Init.MemDataAlignment |
 8006472:	431a      	orrs	r2, r3
          hdma->Init.Mode                | hdma->Init.Priority;
 8006474:	687b      	ldr	r3, [r7, #4]
 8006476:	6a1b      	ldr	r3, [r3, #32]
 8006478:	4313      	orrs	r3, r2
  tmp |=  hdma->Init.Channel             | hdma->Init.Direction        |
 800647a:	697a      	ldr	r2, [r7, #20]
 800647c:	4313      	orrs	r3, r2
 800647e:	617b      	str	r3, [r7, #20]

  /* the Memory burst and peripheral burst are not used when the FIFO is disabled */
  if(hdma->Init.FIFOMode == DMA_FIFOMODE_ENABLE)
 8006480:	687b      	ldr	r3, [r7, #4]
 8006482:	6a5b      	ldr	r3, [r3, #36]	; 0x24
 8006484:	2b04      	cmp	r3, #4
 8006486:	d107      	bne.n	8006498 <HAL_DMA_Init+0xc8>
  {
    /* Get memory burst and peripheral burst */
    tmp |=  hdma->Init.MemBurst | hdma->Init.PeriphBurst;
 8006488:	687b      	ldr	r3, [r7, #4]
 800648a:	6ada      	ldr	r2, [r3, #44]	; 0x2c
 800648c:	687b      	ldr	r3, [r7, #4]
 800648e:	6b1b      	ldr	r3, [r3, #48]	; 0x30
 8006490:	4313      	orrs	r3, r2
 8006492:	697a      	ldr	r2, [r7, #20]
 8006494:	4313      	orrs	r3, r2
 8006496:	617b      	str	r3, [r7, #20]
  }
  
  /* Write to DMA Stream CR register */
  hdma->Instance->CR = tmp;  
 8006498:	687b      	ldr	r3, [r7, #4]
 800649a:	681b      	ldr	r3, [r3, #0]
 800649c:	697a      	ldr	r2, [r7, #20]
 800649e:	601a      	str	r2, [r3, #0]

  /* Get the FCR register value */
  tmp = hdma->Instance->FCR;
 80064a0:	687b      	ldr	r3, [r7, #4]
 80064a2:	681b      	ldr	r3, [r3, #0]
 80064a4:	695b      	ldr	r3, [r3, #20]
 80064a6:	617b      	str	r3, [r7, #20]

  /* Clear Direct mode and FIFO threshold bits */
  tmp &= (uint32_t)~(DMA_SxFCR_DMDIS | DMA_SxFCR_FTH);
 80064a8:	697b      	ldr	r3, [r7, #20]
 80064aa:	f023 0307 	bic.w	r3, r3, #7
 80064ae:	617b      	str	r3, [r7, #20]

  /* Prepare the DMA Stream FIFO configuration */
  tmp |= hdma->Init.FIFOMode;
 80064b0:	687b      	ldr	r3, [r7, #4]
 80064b2:	6a5b      	ldr	r3, [r3, #36]	; 0x24
 80064b4:	697a      	ldr	r2, [r7, #20]
 80064b6:	4313      	orrs	r3, r2
 80064b8:	617b      	str	r3, [r7, #20]

  /* The FIFO threshold is not used when the FIFO mode is disabled */
  if(hdma->Init.FIFOMode == DMA_FIFOMODE_ENABLE)
 80064ba:	687b      	ldr	r3, [r7, #4]
 80064bc:	6a5b      	ldr	r3, [r3, #36]	; 0x24
 80064be:	2b04      	cmp	r3, #4
 80064c0:	d117      	bne.n	80064f2 <HAL_DMA_Init+0x122>
  {
    /* Get the FIFO threshold */
    tmp |= hdma->Init.FIFOThreshold;
 80064c2:	687b      	ldr	r3, [r7, #4]
 80064c4:	6a9b      	ldr	r3, [r3, #40]	; 0x28
 80064c6:	697a      	ldr	r2, [r7, #20]
 80064c8:	4313      	orrs	r3, r2
 80064ca:	617b      	str	r3, [r7, #20]
    
    /* Check compatibility between FIFO threshold level and size of the memory burst */
    /* for INCR4, INCR8, INCR16 bursts */
    if (hdma->Init.MemBurst != DMA_MBURST_SINGLE)
 80064cc:	687b      	ldr	r3, [r7, #4]
 80064ce:	6adb      	ldr	r3, [r3, #44]	; 0x2c
 80064d0:	2b00      	cmp	r3, #0
 80064d2:	d00e      	beq.n	80064f2 <HAL_DMA_Init+0x122>
    {
      if (DMA_CheckFifoParam(hdma) != HAL_OK)
 80064d4:	6878      	ldr	r0, [r7, #4]
 80064d6:	f000 fb01 	bl	8006adc <DMA_CheckFifoParam>
 80064da:	4603      	mov	r3, r0
 80064dc:	2b00      	cmp	r3, #0
 80064de:	d008      	beq.n	80064f2 <HAL_DMA_Init+0x122>
      {
        /* Update error code */
        hdma->ErrorCode = HAL_DMA_ERROR_PARAM;
 80064e0:	687b      	ldr	r3, [r7, #4]
 80064e2:	2240      	movs	r2, #64	; 0x40
 80064e4:	655a      	str	r2, [r3, #84]	; 0x54
        
        /* Change the DMA state */
        hdma->State = HAL_DMA_STATE_READY;
 80064e6:	687b      	ldr	r3, [r7, #4]
 80064e8:	2201      	movs	r2, #1
 80064ea:	f883 2035 	strb.w	r2, [r3, #53]	; 0x35
        
        return HAL_ERROR; 
 80064ee:	2301      	movs	r3, #1
 80064f0:	e016      	b.n	8006520 <HAL_DMA_Init+0x150>
      }
    }
  }
  
  /* Write to DMA Stream FCR */
  hdma->Instance->FCR = tmp;
 80064f2:	687b      	ldr	r3, [r7, #4]
 80064f4:	681b      	ldr	r3, [r3, #0]
 80064f6:	697a      	ldr	r2, [r7, #20]
 80064f8:	615a      	str	r2, [r3, #20]

  /* Initialize StreamBaseAddress and StreamIndex parameters to be used to calculate
     DMA steam Base Address needed by HAL_DMA_IRQHandler() and HAL_DMA_PollForTransfer() */
  regs = (DMA_Base_Registers *)DMA_CalcBaseAndBitshift(hdma);
 80064fa:	6878      	ldr	r0, [r7, #4]
 80064fc:	f000 fab8 	bl	8006a70 <DMA_CalcBaseAndBitshift>
 8006500:	4603      	mov	r3, r0
 8006502:	60fb      	str	r3, [r7, #12]
  
  /* Clear all interrupt flags */
  regs->IFCR = 0x3FU << hdma->StreamIndex;
 8006504:	687b      	ldr	r3, [r7, #4]
 8006506:	6ddb      	ldr	r3, [r3, #92]	; 0x5c
 8006508:	223f      	movs	r2, #63	; 0x3f
 800650a:	409a      	lsls	r2, r3
 800650c:	68fb      	ldr	r3, [r7, #12]
 800650e:	609a      	str	r2, [r3, #8]

  /* Initialize the error code */
  hdma->ErrorCode = HAL_DMA_ERROR_NONE;
 8006510:	687b      	ldr	r3, [r7, #4]
 8006512:	2200      	movs	r2, #0
 8006514:	655a      	str	r2, [r3, #84]	; 0x54
                                                                                     
  /* Initialize the DMA state */
  hdma->State = HAL_DMA_STATE_READY;
 8006516:	687b      	ldr	r3, [r7, #4]
 8006518:	2201      	movs	r2, #1
 800651a:	f883 2035 	strb.w	r2, [r3, #53]	; 0x35

  return HAL_OK;
 800651e:	2300      	movs	r3, #0
}
 8006520:	4618      	mov	r0, r3
 8006522:	3718      	adds	r7, #24
 8006524:	46bd      	mov	sp, r7
 8006526:	bd80      	pop	{r7, pc}
 8006528:	f010803f 	.word	0xf010803f

0800652c <HAL_DMA_Start_IT>:
  * @param  DstAddress The destination memory Buffer address
  * @param  DataLength The length of data to be transferred from source to destination
  * @retval HAL status
  */
HAL_StatusTypeDef HAL_DMA_Start_IT(DMA_HandleTypeDef *hdma, uint32_t SrcAddress, uint32_t DstAddress, uint32_t DataLength)
{
 800652c:	b580      	push	{r7, lr}
 800652e:	b086      	sub	sp, #24
 8006530:	af00      	add	r7, sp, #0
 8006532:	60f8      	str	r0, [r7, #12]
 8006534:	60b9      	str	r1, [r7, #8]
 8006536:	607a      	str	r2, [r7, #4]
 8006538:	603b      	str	r3, [r7, #0]
  HAL_StatusTypeDef status = HAL_OK;
 800653a:	2300      	movs	r3, #0
 800653c:	75fb      	strb	r3, [r7, #23]

  /* calculate DMA base and stream number */
  DMA_Base_Registers *regs = (DMA_Base_Registers *)hdma->StreamBaseAddress;
 800653e:	68fb      	ldr	r3, [r7, #12]
 8006540:	6d9b      	ldr	r3, [r3, #88]	; 0x58
 8006542:	613b      	str	r3, [r7, #16]
  
  /* Check the parameters */
  assert_param(IS_DMA_BUFFER_SIZE(DataLength));
 
  /* Process locked */
  __HAL_LOCK(hdma);
 8006544:	68fb      	ldr	r3, [r7, #12]
 8006546:	f893 3034 	ldrb.w	r3, [r3, #52]	; 0x34
 800654a:	2b01      	cmp	r3, #1
 800654c:	d101      	bne.n	8006552 <HAL_DMA_Start_IT+0x26>
 800654e:	2302      	movs	r3, #2
 8006550:	e040      	b.n	80065d4 <HAL_DMA_Start_IT+0xa8>
 8006552:	68fb      	ldr	r3, [r7, #12]
 8006554:	2201      	movs	r2, #1
 8006556:	f883 2034 	strb.w	r2, [r3, #52]	; 0x34
  
  if(HAL_DMA_STATE_READY == hdma->State)
 800655a:	68fb      	ldr	r3, [r7, #12]
 800655c:	f893 3035 	ldrb.w	r3, [r3, #53]	; 0x35
 8006560:	b2db      	uxtb	r3, r3
 8006562:	2b01      	cmp	r3, #1
 8006564:	d12f      	bne.n	80065c6 <HAL_DMA_Start_IT+0x9a>
  {
    /* Change DMA peripheral state */
    hdma->State = HAL_DMA_STATE_BUSY;
 8006566:	68fb      	ldr	r3, [r7, #12]
 8006568:	2202      	movs	r2, #2
 800656a:	f883 2035 	strb.w	r2, [r3, #53]	; 0x35
    
    /* Initialize the error code */
    hdma->ErrorCode = HAL_DMA_ERROR_NONE;
 800656e:	68fb      	ldr	r3, [r7, #12]
 8006570:	2200      	movs	r2, #0
 8006572:	655a      	str	r2, [r3, #84]	; 0x54
    
    /* Configure the source, destination address and the data length */
    DMA_SetConfig(hdma, SrcAddress, DstAddress, DataLength);
 8006574:	683b      	ldr	r3, [r7, #0]
 8006576:	687a      	ldr	r2, [r7, #4]
 8006578:	68b9      	ldr	r1, [r7, #8]
 800657a:	68f8      	ldr	r0, [r7, #12]
 800657c:	f000 fa4a 	bl	8006a14 <DMA_SetConfig>
    
    /* Clear all interrupt flags at correct offset within the register */
    regs->IFCR = 0x3FU << hdma->StreamIndex;
 8006580:	68fb      	ldr	r3, [r7, #12]
 8006582:	6ddb      	ldr	r3, [r3, #92]	; 0x5c
 8006584:	223f      	movs	r2, #63	; 0x3f
 8006586:	409a      	lsls	r2, r3
 8006588:	693b      	ldr	r3, [r7, #16]
 800658a:	609a      	str	r2, [r3, #8]
    
    /* Enable Common interrupts*/
    hdma->Instance->CR  |= DMA_IT_TC | DMA_IT_TE | DMA_IT_DME;
 800658c:	68fb      	ldr	r3, [r7, #12]
 800658e:	681b      	ldr	r3, [r3, #0]
 8006590:	681a      	ldr	r2, [r3, #0]
 8006592:	68fb      	ldr	r3, [r7, #12]
 8006594:	681b      	ldr	r3, [r3, #0]
 8006596:	f042 0216 	orr.w	r2, r2, #22
 800659a:	601a      	str	r2, [r3, #0]
    
    if(hdma->XferHalfCpltCallback != NULL)
 800659c:	68fb      	ldr	r3, [r7, #12]
 800659e:	6c1b      	ldr	r3, [r3, #64]	; 0x40
 80065a0:	2b00      	cmp	r3, #0
 80065a2:	d007      	beq.n	80065b4 <HAL_DMA_Start_IT+0x88>
    {
      hdma->Instance->CR  |= DMA_IT_HT;
 80065a4:	68fb      	ldr	r3, [r7, #12]
 80065a6:	681b      	ldr	r3, [r3, #0]
 80065a8:	681a      	ldr	r2, [r3, #0]
 80065aa:	68fb      	ldr	r3, [r7, #12]
 80065ac:	681b      	ldr	r3, [r3, #0]
 80065ae:	f042 0208 	orr.w	r2, r2, #8
 80065b2:	601a      	str	r2, [r3, #0]
    }
    
    /* Enable the Peripheral */
    __HAL_DMA_ENABLE(hdma);
 80065b4:	68fb      	ldr	r3, [r7, #12]
 80065b6:	681b      	ldr	r3, [r3, #0]
 80065b8:	681a      	ldr	r2, [r3, #0]
 80065ba:	68fb      	ldr	r3, [r7, #12]
 80065bc:	681b      	ldr	r3, [r3, #0]
 80065be:	f042 0201 	orr.w	r2, r2, #1
 80065c2:	601a      	str	r2, [r3, #0]
 80065c4:	e005      	b.n	80065d2 <HAL_DMA_Start_IT+0xa6>
  }
  else
  {
    /* Process unlocked */
    __HAL_UNLOCK(hdma);	  
 80065c6:	68fb      	ldr	r3, [r7, #12]
 80065c8:	2200      	movs	r2, #0
 80065ca:	f883 2034 	strb.w	r2, [r3, #52]	; 0x34
    
    /* Return error status */
    status = HAL_BUSY;
 80065ce:	2302      	movs	r3, #2
 80065d0:	75fb      	strb	r3, [r7, #23]
  }
  
  return status;
 80065d2:	7dfb      	ldrb	r3, [r7, #23]
}
 80065d4:	4618      	mov	r0, r3
 80065d6:	3718      	adds	r7, #24
 80065d8:	46bd      	mov	sp, r7
 80065da:	bd80      	pop	{r7, pc}

080065dc <HAL_DMA_Abort>:
  *        and the Stream will be effectively disabled only after the transfer of
  *        this single data is finished.  
  * @retval HAL status
  */
HAL_StatusTypeDef HAL_DMA_Abort(DMA_HandleTypeDef *hdma)
{
 80065dc:	b580      	push	{r7, lr}
 80065de:	b084      	sub	sp, #16
 80065e0:	af00      	add	r7, sp, #0
 80065e2:	6078      	str	r0, [r7, #4]
  /* calculate DMA base and stream number */
  DMA_Base_Registers *regs = (DMA_Base_Registers *)hdma->StreamBaseAddress;
 80065e4:	687b      	ldr	r3, [r7, #4]
 80065e6:	6d9b      	ldr	r3, [r3, #88]	; 0x58
 80065e8:	60fb      	str	r3, [r7, #12]
  
  uint32_t tickstart = HAL_GetTick();
 80065ea:	f7ff fb4d 	bl	8005c88 <HAL_GetTick>
 80065ee:	60b8      	str	r0, [r7, #8]
  
  if(hdma->State != HAL_DMA_STATE_BUSY)
 80065f0:	687b      	ldr	r3, [r7, #4]
 80065f2:	f893 3035 	ldrb.w	r3, [r3, #53]	; 0x35
 80065f6:	b2db      	uxtb	r3, r3
 80065f8:	2b02      	cmp	r3, #2
 80065fa:	d008      	beq.n	800660e <HAL_DMA_Abort+0x32>
  {
    hdma->ErrorCode = HAL_DMA_ERROR_NO_XFER;
 80065fc:	687b      	ldr	r3, [r7, #4]
 80065fe:	2280      	movs	r2, #128	; 0x80
 8006600:	655a      	str	r2, [r3, #84]	; 0x54
    
    /* Process Unlocked */
    __HAL_UNLOCK(hdma);
 8006602:	687b      	ldr	r3, [r7, #4]
 8006604:	2200      	movs	r2, #0
 8006606:	f883 2034 	strb.w	r2, [r3, #52]	; 0x34
    
    return HAL_ERROR;
 800660a:	2301      	movs	r3, #1
 800660c:	e052      	b.n	80066b4 <HAL_DMA_Abort+0xd8>
  }
  else
  {
    /* Disable all the transfer interrupts */
    hdma->Instance->CR  &= ~(DMA_IT_TC | DMA_IT_TE | DMA_IT_DME);
 800660e:	687b      	ldr	r3, [r7, #4]
 8006610:	681b      	ldr	r3, [r3, #0]
 8006612:	681a      	ldr	r2, [r3, #0]
 8006614:	687b      	ldr	r3, [r7, #4]
 8006616:	681b      	ldr	r3, [r3, #0]
 8006618:	f022 0216 	bic.w	r2, r2, #22
 800661c:	601a      	str	r2, [r3, #0]
    hdma->Instance->FCR &= ~(DMA_IT_FE);
 800661e:	687b      	ldr	r3, [r7, #4]
 8006620:	681b      	ldr	r3, [r3, #0]
 8006622:	695a      	ldr	r2, [r3, #20]
 8006624:	687b      	ldr	r3, [r7, #4]
 8006626:	681b      	ldr	r3, [r3, #0]
 8006628:	f022 0280 	bic.w	r2, r2, #128	; 0x80
 800662c:	615a      	str	r2, [r3, #20]
    
    if((hdma->XferHalfCpltCallback != NULL) || (hdma->XferM1HalfCpltCallback != NULL))
 800662e:	687b      	ldr	r3, [r7, #4]
 8006630:	6c1b      	ldr	r3, [r3, #64]	; 0x40
 8006632:	2b00      	cmp	r3, #0
 8006634:	d103      	bne.n	800663e <HAL_DMA_Abort+0x62>
 8006636:	687b      	ldr	r3, [r7, #4]
 8006638:	6c9b      	ldr	r3, [r3, #72]	; 0x48
 800663a:	2b00      	cmp	r3, #0
 800663c:	d007      	beq.n	800664e <HAL_DMA_Abort+0x72>
    {
      hdma->Instance->CR  &= ~(DMA_IT_HT);
 800663e:	687b      	ldr	r3, [r7, #4]
 8006640:	681b      	ldr	r3, [r3, #0]
 8006642:	681a      	ldr	r2, [r3, #0]
 8006644:	687b      	ldr	r3, [r7, #4]
 8006646:	681b      	ldr	r3, [r3, #0]
 8006648:	f022 0208 	bic.w	r2, r2, #8
 800664c:	601a      	str	r2, [r3, #0]
    }
    
    /* Disable the stream */
    __HAL_DMA_DISABLE(hdma);
 800664e:	687b      	ldr	r3, [r7, #4]
 8006650:	681b      	ldr	r3, [r3, #0]
 8006652:	681a      	ldr	r2, [r3, #0]
 8006654:	687b      	ldr	r3, [r7, #4]
 8006656:	681b      	ldr	r3, [r3, #0]
 8006658:	f022 0201 	bic.w	r2, r2, #1
 800665c:	601a      	str	r2, [r3, #0]
    
    /* Check if the DMA Stream is effectively disabled */
    while((hdma->Instance->CR & DMA_SxCR_EN) != RESET)
 800665e:	e013      	b.n	8006688 <HAL_DMA_Abort+0xac>
    {
      /* Check for the Timeout */
      if((HAL_GetTick() - tickstart ) > HAL_TIMEOUT_DMA_ABORT)
 8006660:	f7ff fb12 	bl	8005c88 <HAL_GetTick>
 8006664:	4602      	mov	r2, r0
 8006666:	68bb      	ldr	r3, [r7, #8]
 8006668:	1ad3      	subs	r3, r2, r3
 800666a:	2b05      	cmp	r3, #5
 800666c:	d90c      	bls.n	8006688 <HAL_DMA_Abort+0xac>
      {
        /* Update error code */
        hdma->ErrorCode = HAL_DMA_ERROR_TIMEOUT;
 800666e:	687b      	ldr	r3, [r7, #4]
 8006670:	2220      	movs	r2, #32
 8006672:	655a      	str	r2, [r3, #84]	; 0x54
        
        /* Change the DMA state */
        hdma->State = HAL_DMA_STATE_TIMEOUT;
 8006674:	687b      	ldr	r3, [r7, #4]
 8006676:	2203      	movs	r2, #3
 8006678:	f883 2035 	strb.w	r2, [r3, #53]	; 0x35
        
        /* Process Unlocked */
        __HAL_UNLOCK(hdma);
 800667c:	687b      	ldr	r3, [r7, #4]
 800667e:	2200      	movs	r2, #0
 8006680:	f883 2034 	strb.w	r2, [r3, #52]	; 0x34
        
        return HAL_TIMEOUT;
 8006684:	2303      	movs	r3, #3
 8006686:	e015      	b.n	80066b4 <HAL_DMA_Abort+0xd8>
    while((hdma->Instance->CR & DMA_SxCR_EN) != RESET)
 8006688:	687b      	ldr	r3, [r7, #4]
 800668a:	681b      	ldr	r3, [r3, #0]
 800668c:	681b      	ldr	r3, [r3, #0]
 800668e:	f003 0301 	and.w	r3, r3, #1
 8006692:	2b00      	cmp	r3, #0
 8006694:	d1e4      	bne.n	8006660 <HAL_DMA_Abort+0x84>
      }
    }
    
    /* Clear all interrupt flags at correct offset within the register */
    regs->IFCR = 0x3FU << hdma->StreamIndex;
 8006696:	687b      	ldr	r3, [r7, #4]
 8006698:	6ddb      	ldr	r3, [r3, #92]	; 0x5c
 800669a:	223f      	movs	r2, #63	; 0x3f
 800669c:	409a      	lsls	r2, r3
 800669e:	68fb      	ldr	r3, [r7, #12]
 80066a0:	609a      	str	r2, [r3, #8]
    
    /* Change the DMA state*/
    hdma->State = HAL_DMA_STATE_READY;
 80066a2:	687b      	ldr	r3, [r7, #4]
 80066a4:	2201      	movs	r2, #1
 80066a6:	f883 2035 	strb.w	r2, [r3, #53]	; 0x35
    
    /* Process Unlocked */
    __HAL_UNLOCK(hdma);
 80066aa:	687b      	ldr	r3, [r7, #4]
 80066ac:	2200      	movs	r2, #0
 80066ae:	f883 2034 	strb.w	r2, [r3, #52]	; 0x34
  }
  return HAL_OK;
 80066b2:	2300      	movs	r3, #0
}
 80066b4:	4618      	mov	r0, r3
 80066b6:	3710      	adds	r7, #16
 80066b8:	46bd      	mov	sp, r7
 80066ba:	bd80      	pop	{r7, pc}

080066bc <HAL_DMA_Abort_IT>:
  * @param  hdma   pointer to a DMA_HandleTypeDef structure that contains
  *                 the configuration information for the specified DMA Stream.
  * @retval HAL status
  */
HAL_StatusTypeDef HAL_DMA_Abort_IT(DMA_HandleTypeDef *hdma)
{
 80066bc:	b480      	push	{r7}
 80066be:	b083      	sub	sp, #12
 80066c0:	af00      	add	r7, sp, #0
 80066c2:	6078      	str	r0, [r7, #4]
  if(hdma->State != HAL_DMA_STATE_BUSY)
 80066c4:	687b      	ldr	r3, [r7, #4]
 80066c6:	f893 3035 	ldrb.w	r3, [r3, #53]	; 0x35
 80066ca:	b2db      	uxtb	r3, r3
 80066cc:	2b02      	cmp	r3, #2
 80066ce:	d004      	beq.n	80066da <HAL_DMA_Abort_IT+0x1e>
  {
    hdma->ErrorCode = HAL_DMA_ERROR_NO_XFER;
 80066d0:	687b      	ldr	r3, [r7, #4]
 80066d2:	2280      	movs	r2, #128	; 0x80
 80066d4:	655a      	str	r2, [r3, #84]	; 0x54
    return HAL_ERROR;
 80066d6:	2301      	movs	r3, #1
 80066d8:	e00c      	b.n	80066f4 <HAL_DMA_Abort_IT+0x38>
  }
  else
  {
    /* Set Abort State  */
    hdma->State = HAL_DMA_STATE_ABORT;
 80066da:	687b      	ldr	r3, [r7, #4]
 80066dc:	2205      	movs	r2, #5
 80066de:	f883 2035 	strb.w	r2, [r3, #53]	; 0x35
    
    /* Disable the stream */
    __HAL_DMA_DISABLE(hdma);
 80066e2:	687b      	ldr	r3, [r7, #4]
 80066e4:	681b      	ldr	r3, [r3, #0]
 80066e6:	681a      	ldr	r2, [r3, #0]
 80066e8:	687b      	ldr	r3, [r7, #4]
 80066ea:	681b      	ldr	r3, [r3, #0]
 80066ec:	f022 0201 	bic.w	r2, r2, #1
 80066f0:	601a      	str	r2, [r3, #0]
  }

  return HAL_OK;
 80066f2:	2300      	movs	r3, #0
}
 80066f4:	4618      	mov	r0, r3
 80066f6:	370c      	adds	r7, #12
 80066f8:	46bd      	mov	sp, r7
 80066fa:	f85d 7b04 	ldr.w	r7, [sp], #4
 80066fe:	4770      	bx	lr

08006700 <HAL_DMA_IRQHandler>:
  * @param  hdma pointer to a DMA_HandleTypeDef structure that contains
  *               the configuration information for the specified DMA Stream.  
  * @retval None
  */
void HAL_DMA_IRQHandler(DMA_HandleTypeDef *hdma)
{
 8006700:	b580      	push	{r7, lr}
 8006702:	b086      	sub	sp, #24
 8006704:	af00      	add	r7, sp, #0
 8006706:	6078      	str	r0, [r7, #4]
  uint32_t tmpisr;
  __IO uint32_t count = 0U;
 8006708:	2300      	movs	r3, #0
 800670a:	60bb      	str	r3, [r7, #8]
  uint32_t timeout = SystemCoreClock / 9600U;
 800670c:	4b92      	ldr	r3, [pc, #584]	; (8006958 <HAL_DMA_IRQHandler+0x258>)
 800670e:	681b      	ldr	r3, [r3, #0]
 8006710:	4a92      	ldr	r2, [pc, #584]	; (800695c <HAL_DMA_IRQHandler+0x25c>)
 8006712:	fba2 2303 	umull	r2, r3, r2, r3
 8006716:	0a9b      	lsrs	r3, r3, #10
 8006718:	617b      	str	r3, [r7, #20]

  /* calculate DMA base and stream number */
  DMA_Base_Registers *regs = (DMA_Base_Registers *)hdma->StreamBaseAddress;
 800671a:	687b      	ldr	r3, [r7, #4]
 800671c:	6d9b      	ldr	r3, [r3, #88]	; 0x58
 800671e:	613b      	str	r3, [r7, #16]

  tmpisr = regs->ISR;
 8006720:	693b      	ldr	r3, [r7, #16]
 8006722:	681b      	ldr	r3, [r3, #0]
 8006724:	60fb      	str	r3, [r7, #12]

  /* Transfer Error Interrupt management ***************************************/
  if ((tmpisr & (DMA_FLAG_TEIF0_4 << hdma->StreamIndex)) != RESET)
 8006726:	687b      	ldr	r3, [r7, #4]
 8006728:	6ddb      	ldr	r3, [r3, #92]	; 0x5c
 800672a:	2208      	movs	r2, #8
 800672c:	409a      	lsls	r2, r3
 800672e:	68fb      	ldr	r3, [r7, #12]
 8006730:	4013      	ands	r3, r2
 8006732:	2b00      	cmp	r3, #0
 8006734:	d01a      	beq.n	800676c <HAL_DMA_IRQHandler+0x6c>
  {
    if(__HAL_DMA_GET_IT_SOURCE(hdma, DMA_IT_TE) != RESET)
 8006736:	687b      	ldr	r3, [r7, #4]
 8006738:	681b      	ldr	r3, [r3, #0]
 800673a:	681b      	ldr	r3, [r3, #0]
 800673c:	f003 0304 	and.w	r3, r3, #4
 8006740:	2b00      	cmp	r3, #0
 8006742:	d013      	beq.n	800676c <HAL_DMA_IRQHandler+0x6c>
    {
      /* Disable the transfer error interrupt */
      hdma->Instance->CR  &= ~(DMA_IT_TE);
 8006744:	687b      	ldr	r3, [r7, #4]
 8006746:	681b      	ldr	r3, [r3, #0]
 8006748:	681a      	ldr	r2, [r3, #0]
 800674a:	687b      	ldr	r3, [r7, #4]
 800674c:	681b      	ldr	r3, [r3, #0]
 800674e:	f022 0204 	bic.w	r2, r2, #4
 8006752:	601a      	str	r2, [r3, #0]
      
      /* Clear the transfer error flag */
      regs->IFCR = DMA_FLAG_TEIF0_4 << hdma->StreamIndex;
 8006754:	687b      	ldr	r3, [r7, #4]
 8006756:	6ddb      	ldr	r3, [r3, #92]	; 0x5c
 8006758:	2208      	movs	r2, #8
 800675a:	409a      	lsls	r2, r3
 800675c:	693b      	ldr	r3, [r7, #16]
 800675e:	609a      	str	r2, [r3, #8]
      
      /* Update error code */
      hdma->ErrorCode |= HAL_DMA_ERROR_TE;
 8006760:	687b      	ldr	r3, [r7, #4]
 8006762:	6d5b      	ldr	r3, [r3, #84]	; 0x54
 8006764:	f043 0201 	orr.w	r2, r3, #1
 8006768:	687b      	ldr	r3, [r7, #4]
 800676a:	655a      	str	r2, [r3, #84]	; 0x54
    }
  }
  /* FIFO Error Interrupt management ******************************************/
  if ((tmpisr & (DMA_FLAG_FEIF0_4 << hdma->StreamIndex)) != RESET)
 800676c:	687b      	ldr	r3, [r7, #4]
 800676e:	6ddb      	ldr	r3, [r3, #92]	; 0x5c
 8006770:	2201      	movs	r2, #1
 8006772:	409a      	lsls	r2, r3
 8006774:	68fb      	ldr	r3, [r7, #12]
 8006776:	4013      	ands	r3, r2
 8006778:	2b00      	cmp	r3, #0
 800677a:	d012      	beq.n	80067a2 <HAL_DMA_IRQHandler+0xa2>
  {
    if(__HAL_DMA_GET_IT_SOURCE(hdma, DMA_IT_FE) != RESET)
 800677c:	687b      	ldr	r3, [r7, #4]
 800677e:	681b      	ldr	r3, [r3, #0]
 8006780:	695b      	ldr	r3, [r3, #20]
 8006782:	f003 0380 	and.w	r3, r3, #128	; 0x80
 8006786:	2b00      	cmp	r3, #0
 8006788:	d00b      	beq.n	80067a2 <HAL_DMA_IRQHandler+0xa2>
    {
      /* Clear the FIFO error flag */
      regs->IFCR = DMA_FLAG_FEIF0_4 << hdma->StreamIndex;
 800678a:	687b      	ldr	r3, [r7, #4]
 800678c:	6ddb      	ldr	r3, [r3, #92]	; 0x5c
 800678e:	2201      	movs	r2, #1
 8006790:	409a      	lsls	r2, r3
 8006792:	693b      	ldr	r3, [r7, #16]
 8006794:	609a      	str	r2, [r3, #8]

      /* Update error code */
      hdma->ErrorCode |= HAL_DMA_ERROR_FE;
 8006796:	687b      	ldr	r3, [r7, #4]
 8006798:	6d5b      	ldr	r3, [r3, #84]	; 0x54
 800679a:	f043 0202 	orr.w	r2, r3, #2
 800679e:	687b      	ldr	r3, [r7, #4]
 80067a0:	655a      	str	r2, [r3, #84]	; 0x54
    }
  }
  /* Direct Mode Error Interrupt management ***********************************/
  if ((tmpisr & (DMA_FLAG_DMEIF0_4 << hdma->StreamIndex)) != RESET)
 80067a2:	687b      	ldr	r3, [r7, #4]
 80067a4:	6ddb      	ldr	r3, [r3, #92]	; 0x5c
 80067a6:	2204      	movs	r2, #4
 80067a8:	409a      	lsls	r2, r3
 80067aa:	68fb      	ldr	r3, [r7, #12]
 80067ac:	4013      	ands	r3, r2
 80067ae:	2b00      	cmp	r3, #0
 80067b0:	d012      	beq.n	80067d8 <HAL_DMA_IRQHandler+0xd8>
  {
    if(__HAL_DMA_GET_IT_SOURCE(hdma, DMA_IT_DME) != RESET)
 80067b2:	687b      	ldr	r3, [r7, #4]
 80067b4:	681b      	ldr	r3, [r3, #0]
 80067b6:	681b      	ldr	r3, [r3, #0]
 80067b8:	f003 0302 	and.w	r3, r3, #2
 80067bc:	2b00      	cmp	r3, #0
 80067be:	d00b      	beq.n	80067d8 <HAL_DMA_IRQHandler+0xd8>
    {
      /* Clear the direct mode error flag */
      regs->IFCR = DMA_FLAG_DMEIF0_4 << hdma->StreamIndex;
 80067c0:	687b      	ldr	r3, [r7, #4]
 80067c2:	6ddb      	ldr	r3, [r3, #92]	; 0x5c
 80067c4:	2204      	movs	r2, #4
 80067c6:	409a      	lsls	r2, r3
 80067c8:	693b      	ldr	r3, [r7, #16]
 80067ca:	609a      	str	r2, [r3, #8]

      /* Update error code */
      hdma->ErrorCode |= HAL_DMA_ERROR_DME;
 80067cc:	687b      	ldr	r3, [r7, #4]
 80067ce:	6d5b      	ldr	r3, [r3, #84]	; 0x54
 80067d0:	f043 0204 	orr.w	r2, r3, #4
 80067d4:	687b      	ldr	r3, [r7, #4]
 80067d6:	655a      	str	r2, [r3, #84]	; 0x54
    }
  }
  /* Half Transfer Complete Interrupt management ******************************/
  if ((tmpisr & (DMA_FLAG_HTIF0_4 << hdma->StreamIndex)) != RESET)
 80067d8:	687b      	ldr	r3, [r7, #4]
 80067da:	6ddb      	ldr	r3, [r3, #92]	; 0x5c
 80067dc:	2210      	movs	r2, #16
 80067de:	409a      	lsls	r2, r3
 80067e0:	68fb      	ldr	r3, [r7, #12]
 80067e2:	4013      	ands	r3, r2
 80067e4:	2b00      	cmp	r3, #0
 80067e6:	d043      	beq.n	8006870 <HAL_DMA_IRQHandler+0x170>
  {
    if(__HAL_DMA_GET_IT_SOURCE(hdma, DMA_IT_HT) != RESET)
 80067e8:	687b      	ldr	r3, [r7, #4]
 80067ea:	681b      	ldr	r3, [r3, #0]
 80067ec:	681b      	ldr	r3, [r3, #0]
 80067ee:	f003 0308 	and.w	r3, r3, #8
 80067f2:	2b00      	cmp	r3, #0
 80067f4:	d03c      	beq.n	8006870 <HAL_DMA_IRQHandler+0x170>
    {
      /* Clear the half transfer complete flag */
      regs->IFCR = DMA_FLAG_HTIF0_4 << hdma->StreamIndex;
 80067f6:	687b      	ldr	r3, [r7, #4]
 80067f8:	6ddb      	ldr	r3, [r3, #92]	; 0x5c
 80067fa:	2210      	movs	r2, #16
 80067fc:	409a      	lsls	r2, r3
 80067fe:	693b      	ldr	r3, [r7, #16]
 8006800:	609a      	str	r2, [r3, #8]
      
      /* Multi_Buffering mode enabled */
      if(((hdma->Instance->CR) & (uint32_t)(DMA_SxCR_DBM)) != RESET)
 8006802:	687b      	ldr	r3, [r7, #4]
 8006804:	681b      	ldr	r3, [r3, #0]
 8006806:	681b      	ldr	r3, [r3, #0]
 8006808:	f403 2380 	and.w	r3, r3, #262144	; 0x40000
 800680c:	2b00      	cmp	r3, #0
 800680e:	d018      	beq.n	8006842 <HAL_DMA_IRQHandler+0x142>
      {
        /* Current memory buffer used is Memory 0 */
        if((hdma->Instance->CR & DMA_SxCR_CT) == RESET)
 8006810:	687b      	ldr	r3, [r7, #4]
 8006812:	681b      	ldr	r3, [r3, #0]
 8006814:	681b      	ldr	r3, [r3, #0]
 8006816:	f403 2300 	and.w	r3, r3, #524288	; 0x80000
 800681a:	2b00      	cmp	r3, #0
 800681c:	d108      	bne.n	8006830 <HAL_DMA_IRQHandler+0x130>
        {
          if(hdma->XferHalfCpltCallback != NULL)
 800681e:	687b      	ldr	r3, [r7, #4]
 8006820:	6c1b      	ldr	r3, [r3, #64]	; 0x40
 8006822:	2b00      	cmp	r3, #0
 8006824:	d024      	beq.n	8006870 <HAL_DMA_IRQHandler+0x170>
          {
            /* Half transfer callback */
            hdma->XferHalfCpltCallback(hdma);
 8006826:	687b      	ldr	r3, [r7, #4]
 8006828:	6c1b      	ldr	r3, [r3, #64]	; 0x40
 800682a:	6878      	ldr	r0, [r7, #4]
 800682c:	4798      	blx	r3
 800682e:	e01f      	b.n	8006870 <HAL_DMA_IRQHandler+0x170>
          }
        }
        /* Current memory buffer used is Memory 1 */
        else
        {
          if(hdma->XferM1HalfCpltCallback != NULL)
 8006830:	687b      	ldr	r3, [r7, #4]
 8006832:	6c9b      	ldr	r3, [r3, #72]	; 0x48
 8006834:	2b00      	cmp	r3, #0
 8006836:	d01b      	beq.n	8006870 <HAL_DMA_IRQHandler+0x170>
          {
            /* Half transfer callback */
            hdma->XferM1HalfCpltCallback(hdma);
 8006838:	687b      	ldr	r3, [r7, #4]
 800683a:	6c9b      	ldr	r3, [r3, #72]	; 0x48
 800683c:	6878      	ldr	r0, [r7, #4]
 800683e:	4798      	blx	r3
 8006840:	e016      	b.n	8006870 <HAL_DMA_IRQHandler+0x170>
        }
      }
      else
      {
        /* Disable the half transfer interrupt if the DMA mode is not CIRCULAR */
        if((hdma->Instance->CR & DMA_SxCR_CIRC) == RESET)
 8006842:	687b      	ldr	r3, [r7, #4]
 8006844:	681b      	ldr	r3, [r3, #0]
 8006846:	681b      	ldr	r3, [r3, #0]
 8006848:	f403 7380 	and.w	r3, r3, #256	; 0x100
 800684c:	2b00      	cmp	r3, #0
 800684e:	d107      	bne.n	8006860 <HAL_DMA_IRQHandler+0x160>
        {
          /* Disable the half transfer interrupt */
          hdma->Instance->CR  &= ~(DMA_IT_HT);
 8006850:	687b      	ldr	r3, [r7, #4]
 8006852:	681b      	ldr	r3, [r3, #0]
 8006854:	681a      	ldr	r2, [r3, #0]
 8006856:	687b      	ldr	r3, [r7, #4]
 8006858:	681b      	ldr	r3, [r3, #0]
 800685a:	f022 0208 	bic.w	r2, r2, #8
 800685e:	601a      	str	r2, [r3, #0]
        }
        
        if(hdma->XferHalfCpltCallback != NULL)
 8006860:	687b      	ldr	r3, [r7, #4]
 8006862:	6c1b      	ldr	r3, [r3, #64]	; 0x40
 8006864:	2b00      	cmp	r3, #0
 8006866:	d003      	beq.n	8006870 <HAL_DMA_IRQHandler+0x170>
        {
          /* Half transfer callback */
          hdma->XferHalfCpltCallback(hdma);
 8006868:	687b      	ldr	r3, [r7, #4]
 800686a:	6c1b      	ldr	r3, [r3, #64]	; 0x40
 800686c:	6878      	ldr	r0, [r7, #4]
 800686e:	4798      	blx	r3
        }
      }
    }
  }
  /* Transfer Complete Interrupt management ***********************************/
  if ((tmpisr & (DMA_FLAG_TCIF0_4 << hdma->StreamIndex)) != RESET)
 8006870:	687b      	ldr	r3, [r7, #4]
 8006872:	6ddb      	ldr	r3, [r3, #92]	; 0x5c
 8006874:	2220      	movs	r2, #32
 8006876:	409a      	lsls	r2, r3
 8006878:	68fb      	ldr	r3, [r7, #12]
 800687a:	4013      	ands	r3, r2
 800687c:	2b00      	cmp	r3, #0
 800687e:	f000 808e 	beq.w	800699e <HAL_DMA_IRQHandler+0x29e>
  {
    if(__HAL_DMA_GET_IT_SOURCE(hdma, DMA_IT_TC) != RESET)
 8006882:	687b      	ldr	r3, [r7, #4]
 8006884:	681b      	ldr	r3, [r3, #0]
 8006886:	681b      	ldr	r3, [r3, #0]
 8006888:	f003 0310 	and.w	r3, r3, #16
 800688c:	2b00      	cmp	r3, #0
 800688e:	f000 8086 	beq.w	800699e <HAL_DMA_IRQHandler+0x29e>
    {
      /* Clear the transfer complete flag */
      regs->IFCR = DMA_FLAG_TCIF0_4 << hdma->StreamIndex;
 8006892:	687b      	ldr	r3, [r7, #4]
 8006894:	6ddb      	ldr	r3, [r3, #92]	; 0x5c
 8006896:	2220      	movs	r2, #32
 8006898:	409a      	lsls	r2, r3
 800689a:	693b      	ldr	r3, [r7, #16]
 800689c:	609a      	str	r2, [r3, #8]
      
      if(HAL_DMA_STATE_ABORT == hdma->State)
 800689e:	687b      	ldr	r3, [r7, #4]
 80068a0:	f893 3035 	ldrb.w	r3, [r3, #53]	; 0x35
 80068a4:	b2db      	uxtb	r3, r3
 80068a6:	2b05      	cmp	r3, #5
 80068a8:	d136      	bne.n	8006918 <HAL_DMA_IRQHandler+0x218>
      {
        /* Disable all the transfer interrupts */
        hdma->Instance->CR  &= ~(DMA_IT_TC | DMA_IT_TE | DMA_IT_DME);
 80068aa:	687b      	ldr	r3, [r7, #4]
 80068ac:	681b      	ldr	r3, [r3, #0]
 80068ae:	681a      	ldr	r2, [r3, #0]
 80068b0:	687b      	ldr	r3, [r7, #4]
 80068b2:	681b      	ldr	r3, [r3, #0]
 80068b4:	f022 0216 	bic.w	r2, r2, #22
 80068b8:	601a      	str	r2, [r3, #0]
        hdma->Instance->FCR &= ~(DMA_IT_FE);
 80068ba:	687b      	ldr	r3, [r7, #4]
 80068bc:	681b      	ldr	r3, [r3, #0]
 80068be:	695a      	ldr	r2, [r3, #20]
 80068c0:	687b      	ldr	r3, [r7, #4]
 80068c2:	681b      	ldr	r3, [r3, #0]
 80068c4:	f022 0280 	bic.w	r2, r2, #128	; 0x80
 80068c8:	615a      	str	r2, [r3, #20]
        
        if((hdma->XferHalfCpltCallback != NULL) || (hdma->XferM1HalfCpltCallback != NULL))
 80068ca:	687b      	ldr	r3, [r7, #4]
 80068cc:	6c1b      	ldr	r3, [r3, #64]	; 0x40
 80068ce:	2b00      	cmp	r3, #0
 80068d0:	d103      	bne.n	80068da <HAL_DMA_IRQHandler+0x1da>
 80068d2:	687b      	ldr	r3, [r7, #4]
 80068d4:	6c9b      	ldr	r3, [r3, #72]	; 0x48
 80068d6:	2b00      	cmp	r3, #0
 80068d8:	d007      	beq.n	80068ea <HAL_DMA_IRQHandler+0x1ea>
        {
          hdma->Instance->CR  &= ~(DMA_IT_HT);
 80068da:	687b      	ldr	r3, [r7, #4]
 80068dc:	681b      	ldr	r3, [r3, #0]
 80068de:	681a      	ldr	r2, [r3, #0]
 80068e0:	687b      	ldr	r3, [r7, #4]
 80068e2:	681b      	ldr	r3, [r3, #0]
 80068e4:	f022 0208 	bic.w	r2, r2, #8
 80068e8:	601a      	str	r2, [r3, #0]
        }

        /* Clear all interrupt flags at correct offset within the register */
        regs->IFCR = 0x3FU << hdma->StreamIndex;
 80068ea:	687b      	ldr	r3, [r7, #4]
 80068ec:	6ddb      	ldr	r3, [r3, #92]	; 0x5c
 80068ee:	223f      	movs	r2, #63	; 0x3f
 80068f0:	409a      	lsls	r2, r3
 80068f2:	693b      	ldr	r3, [r7, #16]
 80068f4:	609a      	str	r2, [r3, #8]

        /* Change the DMA state */
        hdma->State = HAL_DMA_STATE_READY;
 80068f6:	687b      	ldr	r3, [r7, #4]
 80068f8:	2201      	movs	r2, #1
 80068fa:	f883 2035 	strb.w	r2, [r3, #53]	; 0x35

        /* Process Unlocked */
        __HAL_UNLOCK(hdma);
 80068fe:	687b      	ldr	r3, [r7, #4]
 8006900:	2200      	movs	r2, #0
 8006902:	f883 2034 	strb.w	r2, [r3, #52]	; 0x34

        if(hdma->XferAbortCallback != NULL)
 8006906:	687b      	ldr	r3, [r7, #4]
 8006908:	6d1b      	ldr	r3, [r3, #80]	; 0x50
 800690a:	2b00      	cmp	r3, #0
 800690c:	d07d      	beq.n	8006a0a <HAL_DMA_IRQHandler+0x30a>
        {
          hdma->XferAbortCallback(hdma);
 800690e:	687b      	ldr	r3, [r7, #4]
 8006910:	6d1b      	ldr	r3, [r3, #80]	; 0x50
 8006912:	6878      	ldr	r0, [r7, #4]
 8006914:	4798      	blx	r3
        }
        return;
 8006916:	e078      	b.n	8006a0a <HAL_DMA_IRQHandler+0x30a>
      }

      if(((hdma->Instance->CR) & (uint32_t)(DMA_SxCR_DBM)) != RESET)
 8006918:	687b      	ldr	r3, [r7, #4]
 800691a:	681b      	ldr	r3, [r3, #0]
 800691c:	681b      	ldr	r3, [r3, #0]
 800691e:	f403 2380 	and.w	r3, r3, #262144	; 0x40000
 8006922:	2b00      	cmp	r3, #0
 8006924:	d01c      	beq.n	8006960 <HAL_DMA_IRQHandler+0x260>
      {
        /* Current memory buffer used is Memory 0 */
        if((hdma->Instance->CR & DMA_SxCR_CT) == RESET)
 8006926:	687b      	ldr	r3, [r7, #4]
 8006928:	681b      	ldr	r3, [r3, #0]
 800692a:	681b      	ldr	r3, [r3, #0]
 800692c:	f403 2300 	and.w	r3, r3, #524288	; 0x80000
 8006930:	2b00      	cmp	r3, #0
 8006932:	d108      	bne.n	8006946 <HAL_DMA_IRQHandler+0x246>
        {
          if(hdma->XferM1CpltCallback != NULL)
 8006934:	687b      	ldr	r3, [r7, #4]
 8006936:	6c5b      	ldr	r3, [r3, #68]	; 0x44
 8006938:	2b00      	cmp	r3, #0
 800693a:	d030      	beq.n	800699e <HAL_DMA_IRQHandler+0x29e>
          {
            /* Transfer complete Callback for memory1 */
            hdma->XferM1CpltCallback(hdma);
 800693c:	687b      	ldr	r3, [r7, #4]
 800693e:	6c5b      	ldr	r3, [r3, #68]	; 0x44
 8006940:	6878      	ldr	r0, [r7, #4]
 8006942:	4798      	blx	r3
 8006944:	e02b      	b.n	800699e <HAL_DMA_IRQHandler+0x29e>
          }
        }
        /* Current memory buffer used is Memory 1 */
        else
        {
          if(hdma->XferCpltCallback != NULL)
 8006946:	687b      	ldr	r3, [r7, #4]
 8006948:	6bdb      	ldr	r3, [r3, #60]	; 0x3c
 800694a:	2b00      	cmp	r3, #0
 800694c:	d027      	beq.n	800699e <HAL_DMA_IRQHandler+0x29e>
          {
            /* Transfer complete Callback for memory0 */
            hdma->XferCpltCallback(hdma);
 800694e:	687b      	ldr	r3, [r7, #4]
 8006950:	6bdb      	ldr	r3, [r3, #60]	; 0x3c
 8006952:	6878      	ldr	r0, [r7, #4]
 8006954:	4798      	blx	r3
 8006956:	e022      	b.n	800699e <HAL_DMA_IRQHandler+0x29e>
 8006958:	20000030 	.word	0x20000030
 800695c:	1b4e81b5 	.word	0x1b4e81b5
        }
      }
      /* Disable the transfer complete interrupt if the DMA mode is not CIRCULAR */
      else
      {
        if((hdma->Instance->CR & DMA_SxCR_CIRC) == RESET)
 8006960:	687b      	ldr	r3, [r7, #4]
 8006962:	681b      	ldr	r3, [r3, #0]
 8006964:	681b      	ldr	r3, [r3, #0]
 8006966:	f403 7380 	and.w	r3, r3, #256	; 0x100
 800696a:	2b00      	cmp	r3, #0
 800696c:	d10f      	bne.n	800698e <HAL_DMA_IRQHandler+0x28e>
        {
          /* Disable the transfer complete interrupt */
          hdma->Instance->CR  &= ~(DMA_IT_TC);
 800696e:	687b      	ldr	r3, [r7, #4]
 8006970:	681b      	ldr	r3, [r3, #0]
 8006972:	681a      	ldr	r2, [r3, #0]
 8006974:	687b      	ldr	r3, [r7, #4]
 8006976:	681b      	ldr	r3, [r3, #0]
 8006978:	f022 0210 	bic.w	r2, r2, #16
 800697c:	601a      	str	r2, [r3, #0]

          /* Change the DMA state */
          hdma->State = HAL_DMA_STATE_READY;
 800697e:	687b      	ldr	r3, [r7, #4]
 8006980:	2201      	movs	r2, #1
 8006982:	f883 2035 	strb.w	r2, [r3, #53]	; 0x35

          /* Process Unlocked */
          __HAL_UNLOCK(hdma);
 8006986:	687b      	ldr	r3, [r7, #4]
 8006988:	2200      	movs	r2, #0
 800698a:	f883 2034 	strb.w	r2, [r3, #52]	; 0x34
        }

        if(hdma->XferCpltCallback != NULL)
 800698e:	687b      	ldr	r3, [r7, #4]
 8006990:	6bdb      	ldr	r3, [r3, #60]	; 0x3c
 8006992:	2b00      	cmp	r3, #0
 8006994:	d003      	beq.n	800699e <HAL_DMA_IRQHandler+0x29e>
        {
          /* Transfer complete callback */
          hdma->XferCpltCallback(hdma);
 8006996:	687b      	ldr	r3, [r7, #4]
 8006998:	6bdb      	ldr	r3, [r3, #60]	; 0x3c
 800699a:	6878      	ldr	r0, [r7, #4]
 800699c:	4798      	blx	r3
      }
    }
  }
  
  /* manage error case */
  if(hdma->ErrorCode != HAL_DMA_ERROR_NONE)
 800699e:	687b      	ldr	r3, [r7, #4]
 80069a0:	6d5b      	ldr	r3, [r3, #84]	; 0x54
 80069a2:	2b00      	cmp	r3, #0
 80069a4:	d032      	beq.n	8006a0c <HAL_DMA_IRQHandler+0x30c>
  {
    if((hdma->ErrorCode & HAL_DMA_ERROR_TE) != RESET)
 80069a6:	687b      	ldr	r3, [r7, #4]
 80069a8:	6d5b      	ldr	r3, [r3, #84]	; 0x54
 80069aa:	f003 0301 	and.w	r3, r3, #1
 80069ae:	2b00      	cmp	r3, #0
 80069b0:	d022      	beq.n	80069f8 <HAL_DMA_IRQHandler+0x2f8>
    {
      hdma->State = HAL_DMA_STATE_ABORT;
 80069b2:	687b      	ldr	r3, [r7, #4]
 80069b4:	2205      	movs	r2, #5
 80069b6:	f883 2035 	strb.w	r2, [r3, #53]	; 0x35

      /* Disable the stream */
      __HAL_DMA_DISABLE(hdma);
 80069ba:	687b      	ldr	r3, [r7, #4]
 80069bc:	681b      	ldr	r3, [r3, #0]
 80069be:	681a      	ldr	r2, [r3, #0]
 80069c0:	687b      	ldr	r3, [r7, #4]
 80069c2:	681b      	ldr	r3, [r3, #0]
 80069c4:	f022 0201 	bic.w	r2, r2, #1
 80069c8:	601a      	str	r2, [r3, #0]

      do
      {
        if (++count > timeout)
 80069ca:	68bb      	ldr	r3, [r7, #8]
 80069cc:	3301      	adds	r3, #1
 80069ce:	60bb      	str	r3, [r7, #8]
 80069d0:	697a      	ldr	r2, [r7, #20]
 80069d2:	429a      	cmp	r2, r3
 80069d4:	d307      	bcc.n	80069e6 <HAL_DMA_IRQHandler+0x2e6>
        {
          break;
        }
      }
      while((hdma->Instance->CR & DMA_SxCR_EN) != RESET);
 80069d6:	687b      	ldr	r3, [r7, #4]
 80069d8:	681b      	ldr	r3, [r3, #0]
 80069da:	681b      	ldr	r3, [r3, #0]
 80069dc:	f003 0301 	and.w	r3, r3, #1
 80069e0:	2b00      	cmp	r3, #0
 80069e2:	d1f2      	bne.n	80069ca <HAL_DMA_IRQHandler+0x2ca>
 80069e4:	e000      	b.n	80069e8 <HAL_DMA_IRQHandler+0x2e8>
          break;
 80069e6:	bf00      	nop

      /* Change the DMA state */
      hdma->State = HAL_DMA_STATE_READY;
 80069e8:	687b      	ldr	r3, [r7, #4]
 80069ea:	2201      	movs	r2, #1
 80069ec:	f883 2035 	strb.w	r2, [r3, #53]	; 0x35

      /* Process Unlocked */
      __HAL_UNLOCK(hdma);
 80069f0:	687b      	ldr	r3, [r7, #4]
 80069f2:	2200      	movs	r2, #0
 80069f4:	f883 2034 	strb.w	r2, [r3, #52]	; 0x34
    }

    if(hdma->XferErrorCallback != NULL)
 80069f8:	687b      	ldr	r3, [r7, #4]
 80069fa:	6cdb      	ldr	r3, [r3, #76]	; 0x4c
 80069fc:	2b00      	cmp	r3, #0
 80069fe:	d005      	beq.n	8006a0c <HAL_DMA_IRQHandler+0x30c>
    {
      /* Transfer error callback */
      hdma->XferErrorCallback(hdma);
 8006a00:	687b      	ldr	r3, [r7, #4]
 8006a02:	6cdb      	ldr	r3, [r3, #76]	; 0x4c
 8006a04:	6878      	ldr	r0, [r7, #4]
 8006a06:	4798      	blx	r3
 8006a08:	e000      	b.n	8006a0c <HAL_DMA_IRQHandler+0x30c>
        return;
 8006a0a:	bf00      	nop
    }
  }
}
 8006a0c:	3718      	adds	r7, #24
 8006a0e:	46bd      	mov	sp, r7
 8006a10:	bd80      	pop	{r7, pc}
 8006a12:	bf00      	nop

08006a14 <DMA_SetConfig>:
  * @param  DstAddress The destination memory Buffer address
  * @param  DataLength The length of data to be transferred from source to destination
  * @retval HAL status
  */
static void DMA_SetConfig(DMA_HandleTypeDef *hdma, uint32_t SrcAddress, uint32_t DstAddress, uint32_t DataLength)
{
 8006a14:	b480      	push	{r7}
 8006a16:	b085      	sub	sp, #20
 8006a18:	af00      	add	r7, sp, #0
 8006a1a:	60f8      	str	r0, [r7, #12]
 8006a1c:	60b9      	str	r1, [r7, #8]
 8006a1e:	607a      	str	r2, [r7, #4]
 8006a20:	603b      	str	r3, [r7, #0]
  /* Clear DBM bit */
  hdma->Instance->CR &= (uint32_t)(~DMA_SxCR_DBM);
 8006a22:	68fb      	ldr	r3, [r7, #12]
 8006a24:	681b      	ldr	r3, [r3, #0]
 8006a26:	681a      	ldr	r2, [r3, #0]
 8006a28:	68fb      	ldr	r3, [r7, #12]
 8006a2a:	681b      	ldr	r3, [r3, #0]
 8006a2c:	f422 2280 	bic.w	r2, r2, #262144	; 0x40000
 8006a30:	601a      	str	r2, [r3, #0]

  /* Configure DMA Stream data length */
  hdma->Instance->NDTR = DataLength;
 8006a32:	68fb      	ldr	r3, [r7, #12]
 8006a34:	681b      	ldr	r3, [r3, #0]
 8006a36:	683a      	ldr	r2, [r7, #0]
 8006a38:	605a      	str	r2, [r3, #4]

  /* Memory to Peripheral */
  if((hdma->Init.Direction) == DMA_MEMORY_TO_PERIPH)
 8006a3a:	68fb      	ldr	r3, [r7, #12]
 8006a3c:	689b      	ldr	r3, [r3, #8]
 8006a3e:	2b40      	cmp	r3, #64	; 0x40
 8006a40:	d108      	bne.n	8006a54 <DMA_SetConfig+0x40>
  {
    /* Configure DMA Stream destination address */
    hdma->Instance->PAR = DstAddress;
 8006a42:	68fb      	ldr	r3, [r7, #12]
 8006a44:	681b      	ldr	r3, [r3, #0]
 8006a46:	687a      	ldr	r2, [r7, #4]
 8006a48:	609a      	str	r2, [r3, #8]

    /* Configure DMA Stream source address */
    hdma->Instance->M0AR = SrcAddress;
 8006a4a:	68fb      	ldr	r3, [r7, #12]
 8006a4c:	681b      	ldr	r3, [r3, #0]
 8006a4e:	68ba      	ldr	r2, [r7, #8]
 8006a50:	60da      	str	r2, [r3, #12]
    hdma->Instance->PAR = SrcAddress;

    /* Configure DMA Stream destination address */
    hdma->Instance->M0AR = DstAddress;
  }
}
 8006a52:	e007      	b.n	8006a64 <DMA_SetConfig+0x50>
    hdma->Instance->PAR = SrcAddress;
 8006a54:	68fb      	ldr	r3, [r7, #12]
 8006a56:	681b      	ldr	r3, [r3, #0]
 8006a58:	68ba      	ldr	r2, [r7, #8]
 8006a5a:	609a      	str	r2, [r3, #8]
    hdma->Instance->M0AR = DstAddress;
 8006a5c:	68fb      	ldr	r3, [r7, #12]
 8006a5e:	681b      	ldr	r3, [r3, #0]
 8006a60:	687a      	ldr	r2, [r7, #4]
 8006a62:	60da      	str	r2, [r3, #12]
}
 8006a64:	bf00      	nop
 8006a66:	3714      	adds	r7, #20
 8006a68:	46bd      	mov	sp, r7
 8006a6a:	f85d 7b04 	ldr.w	r7, [sp], #4
 8006a6e:	4770      	bx	lr

08006a70 <DMA_CalcBaseAndBitshift>:
  * @param  hdma       pointer to a DMA_HandleTypeDef structure that contains
  *                     the configuration information for the specified DMA Stream. 
  * @retval Stream base address
  */
static uint32_t DMA_CalcBaseAndBitshift(DMA_HandleTypeDef *hdma)
{
 8006a70:	b480      	push	{r7}
 8006a72:	b085      	sub	sp, #20
 8006a74:	af00      	add	r7, sp, #0
 8006a76:	6078      	str	r0, [r7, #4]
  uint32_t stream_number = (((uint32_t)hdma->Instance & 0xFFU) - 16U) / 24U;
 8006a78:	687b      	ldr	r3, [r7, #4]
 8006a7a:	681b      	ldr	r3, [r3, #0]
 8006a7c:	b2db      	uxtb	r3, r3
 8006a7e:	3b10      	subs	r3, #16
 8006a80:	4a14      	ldr	r2, [pc, #80]	; (8006ad4 <DMA_CalcBaseAndBitshift+0x64>)
 8006a82:	fba2 2303 	umull	r2, r3, r2, r3
 8006a86:	091b      	lsrs	r3, r3, #4
 8006a88:	60fb      	str	r3, [r7, #12]
  
  /* lookup table for necessary bitshift of flags within status registers */
  static const uint8_t flagBitshiftOffset[8U] = {0U, 6U, 16U, 22U, 0U, 6U, 16U, 22U};
  hdma->StreamIndex = flagBitshiftOffset[stream_number];
 8006a8a:	4a13      	ldr	r2, [pc, #76]	; (8006ad8 <DMA_CalcBaseAndBitshift+0x68>)
 8006a8c:	68fb      	ldr	r3, [r7, #12]
 8006a8e:	4413      	add	r3, r2
 8006a90:	781b      	ldrb	r3, [r3, #0]
 8006a92:	461a      	mov	r2, r3
 8006a94:	687b      	ldr	r3, [r7, #4]
 8006a96:	65da      	str	r2, [r3, #92]	; 0x5c
  
  if (stream_number > 3U)
 8006a98:	68fb      	ldr	r3, [r7, #12]
 8006a9a:	2b03      	cmp	r3, #3
 8006a9c:	d909      	bls.n	8006ab2 <DMA_CalcBaseAndBitshift+0x42>
  {
    /* return pointer to HISR and HIFCR */
    hdma->StreamBaseAddress = (((uint32_t)hdma->Instance & (uint32_t)(~0x3FFU)) + 4U);
 8006a9e:	687b      	ldr	r3, [r7, #4]
 8006aa0:	681b      	ldr	r3, [r3, #0]
 8006aa2:	f423 737f 	bic.w	r3, r3, #1020	; 0x3fc
 8006aa6:	f023 0303 	bic.w	r3, r3, #3
 8006aaa:	1d1a      	adds	r2, r3, #4
 8006aac:	687b      	ldr	r3, [r7, #4]
 8006aae:	659a      	str	r2, [r3, #88]	; 0x58
 8006ab0:	e007      	b.n	8006ac2 <DMA_CalcBaseAndBitshift+0x52>
  }
  else
  {
    /* return pointer to LISR and LIFCR */
    hdma->StreamBaseAddress = ((uint32_t)hdma->Instance & (uint32_t)(~0x3FFU));
 8006ab2:	687b      	ldr	r3, [r7, #4]
 8006ab4:	681b      	ldr	r3, [r3, #0]
 8006ab6:	f423 737f 	bic.w	r3, r3, #1020	; 0x3fc
 8006aba:	f023 0303 	bic.w	r3, r3, #3
 8006abe:	687a      	ldr	r2, [r7, #4]
 8006ac0:	6593      	str	r3, [r2, #88]	; 0x58
  }
  
  return hdma->StreamBaseAddress;
 8006ac2:	687b      	ldr	r3, [r7, #4]
 8006ac4:	6d9b      	ldr	r3, [r3, #88]	; 0x58
}
 8006ac6:	4618      	mov	r0, r3
 8006ac8:	3714      	adds	r7, #20
 8006aca:	46bd      	mov	sp, r7
 8006acc:	f85d 7b04 	ldr.w	r7, [sp], #4
 8006ad0:	4770      	bx	lr
 8006ad2:	bf00      	nop
 8006ad4:	aaaaaaab 	.word	0xaaaaaaab
 8006ad8:	0800b2d8 	.word	0x0800b2d8

08006adc <DMA_CheckFifoParam>:
  * @param  hdma       pointer to a DMA_HandleTypeDef structure that contains
  *                     the configuration information for the specified DMA Stream. 
  * @retval HAL status
  */
static HAL_StatusTypeDef DMA_CheckFifoParam(DMA_HandleTypeDef *hdma)
{
 8006adc:	b480      	push	{r7}
 8006ade:	b085      	sub	sp, #20
 8006ae0:	af00      	add	r7, sp, #0
 8006ae2:	6078      	str	r0, [r7, #4]
  HAL_StatusTypeDef status = HAL_OK;
 8006ae4:	2300      	movs	r3, #0
 8006ae6:	73fb      	strb	r3, [r7, #15]
  uint32_t tmp = hdma->Init.FIFOThreshold;
 8006ae8:	687b      	ldr	r3, [r7, #4]
 8006aea:	6a9b      	ldr	r3, [r3, #40]	; 0x28
 8006aec:	60bb      	str	r3, [r7, #8]
  
  /* Memory Data size equal to Byte */
  if(hdma->Init.MemDataAlignment == DMA_MDATAALIGN_BYTE)
 8006aee:	687b      	ldr	r3, [r7, #4]
 8006af0:	699b      	ldr	r3, [r3, #24]
 8006af2:	2b00      	cmp	r3, #0
 8006af4:	d11f      	bne.n	8006b36 <DMA_CheckFifoParam+0x5a>
 8006af6:	68bb      	ldr	r3, [r7, #8]
 8006af8:	2b03      	cmp	r3, #3
 8006afa:	d856      	bhi.n	8006baa <DMA_CheckFifoParam+0xce>
 8006afc:	a201      	add	r2, pc, #4	; (adr r2, 8006b04 <DMA_CheckFifoParam+0x28>)
 8006afe:	f852 f023 	ldr.w	pc, [r2, r3, lsl #2]
 8006b02:	bf00      	nop
 8006b04:	08006b15 	.word	0x08006b15
 8006b08:	08006b27 	.word	0x08006b27
 8006b0c:	08006b15 	.word	0x08006b15
 8006b10:	08006bab 	.word	0x08006bab
  {
    switch (tmp)
    {
    case DMA_FIFO_THRESHOLD_1QUARTERFULL:
    case DMA_FIFO_THRESHOLD_3QUARTERSFULL:
      if ((hdma->Init.MemBurst & DMA_SxCR_MBURST_1) == DMA_SxCR_MBURST_1)
 8006b14:	687b      	ldr	r3, [r7, #4]
 8006b16:	6adb      	ldr	r3, [r3, #44]	; 0x2c
 8006b18:	f003 7380 	and.w	r3, r3, #16777216	; 0x1000000
 8006b1c:	2b00      	cmp	r3, #0
 8006b1e:	d046      	beq.n	8006bae <DMA_CheckFifoParam+0xd2>
      {
        status = HAL_ERROR;
 8006b20:	2301      	movs	r3, #1
 8006b22:	73fb      	strb	r3, [r7, #15]
      }
      break;
 8006b24:	e043      	b.n	8006bae <DMA_CheckFifoParam+0xd2>
    case DMA_FIFO_THRESHOLD_HALFFULL:
      if (hdma->Init.MemBurst == DMA_MBURST_INC16)
 8006b26:	687b      	ldr	r3, [r7, #4]
 8006b28:	6adb      	ldr	r3, [r3, #44]	; 0x2c
 8006b2a:	f1b3 7fc0 	cmp.w	r3, #25165824	; 0x1800000
 8006b2e:	d140      	bne.n	8006bb2 <DMA_CheckFifoParam+0xd6>
      {
        status = HAL_ERROR;
 8006b30:	2301      	movs	r3, #1
 8006b32:	73fb      	strb	r3, [r7, #15]
      }
      break;
 8006b34:	e03d      	b.n	8006bb2 <DMA_CheckFifoParam+0xd6>
      break;
    }
  }
  
  /* Memory Data size equal to Half-Word */
  else if (hdma->Init.MemDataAlignment == DMA_MDATAALIGN_HALFWORD)
 8006b36:	687b      	ldr	r3, [r7, #4]
 8006b38:	699b      	ldr	r3, [r3, #24]
 8006b3a:	f5b3 5f00 	cmp.w	r3, #8192	; 0x2000
 8006b3e:	d121      	bne.n	8006b84 <DMA_CheckFifoParam+0xa8>
 8006b40:	68bb      	ldr	r3, [r7, #8]
 8006b42:	2b03      	cmp	r3, #3
 8006b44:	d837      	bhi.n	8006bb6 <DMA_CheckFifoParam+0xda>
 8006b46:	a201      	add	r2, pc, #4	; (adr r2, 8006b4c <DMA_CheckFifoParam+0x70>)
 8006b48:	f852 f023 	ldr.w	pc, [r2, r3, lsl #2]
 8006b4c:	08006b5d 	.word	0x08006b5d
 8006b50:	08006b63 	.word	0x08006b63
 8006b54:	08006b5d 	.word	0x08006b5d
 8006b58:	08006b75 	.word	0x08006b75
  {
    switch (tmp)
    {
    case DMA_FIFO_THRESHOLD_1QUARTERFULL:
    case DMA_FIFO_THRESHOLD_3QUARTERSFULL:
      status = HAL_ERROR;
 8006b5c:	2301      	movs	r3, #1
 8006b5e:	73fb      	strb	r3, [r7, #15]
      break;
 8006b60:	e030      	b.n	8006bc4 <DMA_CheckFifoParam+0xe8>
    case DMA_FIFO_THRESHOLD_HALFFULL:
      if ((hdma->Init.MemBurst & DMA_SxCR_MBURST_1) == DMA_SxCR_MBURST_1)
 8006b62:	687b      	ldr	r3, [r7, #4]
 8006b64:	6adb      	ldr	r3, [r3, #44]	; 0x2c
 8006b66:	f003 7380 	and.w	r3, r3, #16777216	; 0x1000000
 8006b6a:	2b00      	cmp	r3, #0
 8006b6c:	d025      	beq.n	8006bba <DMA_CheckFifoParam+0xde>
      {
        status = HAL_ERROR;
 8006b6e:	2301      	movs	r3, #1
 8006b70:	73fb      	strb	r3, [r7, #15]
      }
      break;
 8006b72:	e022      	b.n	8006bba <DMA_CheckFifoParam+0xde>
    case DMA_FIFO_THRESHOLD_FULL:
      if (hdma->Init.MemBurst == DMA_MBURST_INC16)
 8006b74:	687b      	ldr	r3, [r7, #4]
 8006b76:	6adb      	ldr	r3, [r3, #44]	; 0x2c
 8006b78:	f1b3 7fc0 	cmp.w	r3, #25165824	; 0x1800000
 8006b7c:	d11f      	bne.n	8006bbe <DMA_CheckFifoParam+0xe2>
      {
        status = HAL_ERROR;
 8006b7e:	2301      	movs	r3, #1
 8006b80:	73fb      	strb	r3, [r7, #15]
      }
      break;   
 8006b82:	e01c      	b.n	8006bbe <DMA_CheckFifoParam+0xe2>
  }
  
  /* Memory Data size equal to Word */
  else
  {
    switch (tmp)
 8006b84:	68bb      	ldr	r3, [r7, #8]
 8006b86:	2b02      	cmp	r3, #2
 8006b88:	d903      	bls.n	8006b92 <DMA_CheckFifoParam+0xb6>
 8006b8a:	68bb      	ldr	r3, [r7, #8]
 8006b8c:	2b03      	cmp	r3, #3
 8006b8e:	d003      	beq.n	8006b98 <DMA_CheckFifoParam+0xbc>
      {
        status = HAL_ERROR;
      }
      break;
    default:
      break;
 8006b90:	e018      	b.n	8006bc4 <DMA_CheckFifoParam+0xe8>
      status = HAL_ERROR;
 8006b92:	2301      	movs	r3, #1
 8006b94:	73fb      	strb	r3, [r7, #15]
      break;
 8006b96:	e015      	b.n	8006bc4 <DMA_CheckFifoParam+0xe8>
      if ((hdma->Init.MemBurst & DMA_SxCR_MBURST_1) == DMA_SxCR_MBURST_1)
 8006b98:	687b      	ldr	r3, [r7, #4]
 8006b9a:	6adb      	ldr	r3, [r3, #44]	; 0x2c
 8006b9c:	f003 7380 	and.w	r3, r3, #16777216	; 0x1000000
 8006ba0:	2b00      	cmp	r3, #0
 8006ba2:	d00e      	beq.n	8006bc2 <DMA_CheckFifoParam+0xe6>
        status = HAL_ERROR;
 8006ba4:	2301      	movs	r3, #1
 8006ba6:	73fb      	strb	r3, [r7, #15]
      break;
 8006ba8:	e00b      	b.n	8006bc2 <DMA_CheckFifoParam+0xe6>
      break;
 8006baa:	bf00      	nop
 8006bac:	e00a      	b.n	8006bc4 <DMA_CheckFifoParam+0xe8>
      break;
 8006bae:	bf00      	nop
 8006bb0:	e008      	b.n	8006bc4 <DMA_CheckFifoParam+0xe8>
      break;
 8006bb2:	bf00      	nop
 8006bb4:	e006      	b.n	8006bc4 <DMA_CheckFifoParam+0xe8>
      break;
 8006bb6:	bf00      	nop
 8006bb8:	e004      	b.n	8006bc4 <DMA_CheckFifoParam+0xe8>
      break;
 8006bba:	bf00      	nop
 8006bbc:	e002      	b.n	8006bc4 <DMA_CheckFifoParam+0xe8>
      break;   
 8006bbe:	bf00      	nop
 8006bc0:	e000      	b.n	8006bc4 <DMA_CheckFifoParam+0xe8>
      break;
 8006bc2:	bf00      	nop
    }
  } 
  
  return status; 
 8006bc4:	7bfb      	ldrb	r3, [r7, #15]
}
 8006bc6:	4618      	mov	r0, r3
 8006bc8:	3714      	adds	r7, #20
 8006bca:	46bd      	mov	sp, r7
 8006bcc:	f85d 7b04 	ldr.w	r7, [sp], #4
 8006bd0:	4770      	bx	lr
 8006bd2:	bf00      	nop

08006bd4 <HAL_GPIO_Init>:
  * @param  GPIO_Init pointer to a GPIO_InitTypeDef structure that contains
  *         the configuration information for the specified GPIO peripheral.
  * @retval None
  */
void HAL_GPIO_Init(GPIO_TypeDef  *GPIOx, GPIO_InitTypeDef *GPIO_Init)
{
 8006bd4:	b480      	push	{r7}
 8006bd6:	b089      	sub	sp, #36	; 0x24
 8006bd8:	af00      	add	r7, sp, #0
 8006bda:	6078      	str	r0, [r7, #4]
 8006bdc:	6039      	str	r1, [r7, #0]
  uint32_t position;
  uint32_t ioposition = 0x00U;
 8006bde:	2300      	movs	r3, #0
 8006be0:	617b      	str	r3, [r7, #20]
  uint32_t iocurrent = 0x00U;
 8006be2:	2300      	movs	r3, #0
 8006be4:	613b      	str	r3, [r7, #16]
  uint32_t temp = 0x00U;
 8006be6:	2300      	movs	r3, #0
 8006be8:	61bb      	str	r3, [r7, #24]
  assert_param(IS_GPIO_ALL_INSTANCE(GPIOx));
  assert_param(IS_GPIO_PIN(GPIO_Init->Pin));
  assert_param(IS_GPIO_MODE(GPIO_Init->Mode));

  /* Configure the port pins */
  for(position = 0U; position < GPIO_NUMBER; position++)
 8006bea:	2300      	movs	r3, #0
 8006bec:	61fb      	str	r3, [r7, #28]
 8006bee:	e16b      	b.n	8006ec8 <HAL_GPIO_Init+0x2f4>
  {
    /* Get the IO position */
    ioposition = 0x01U << position;
 8006bf0:	2201      	movs	r2, #1
 8006bf2:	69fb      	ldr	r3, [r7, #28]
 8006bf4:	fa02 f303 	lsl.w	r3, r2, r3
 8006bf8:	617b      	str	r3, [r7, #20]
    /* Get the current IO position */
    iocurrent = (uint32_t)(GPIO_Init->Pin) & ioposition;
 8006bfa:	683b      	ldr	r3, [r7, #0]
 8006bfc:	681b      	ldr	r3, [r3, #0]
 8006bfe:	697a      	ldr	r2, [r7, #20]
 8006c00:	4013      	ands	r3, r2
 8006c02:	613b      	str	r3, [r7, #16]

    if(iocurrent == ioposition)
 8006c04:	693a      	ldr	r2, [r7, #16]
 8006c06:	697b      	ldr	r3, [r7, #20]
 8006c08:	429a      	cmp	r2, r3
 8006c0a:	f040 815a 	bne.w	8006ec2 <HAL_GPIO_Init+0x2ee>
    {
      /*--------------------- GPIO Mode Configuration ------------------------*/
      /* In case of Output or Alternate function mode selection */
      if(((GPIO_Init->Mode & GPIO_MODE) == MODE_OUTPUT) || \
 8006c0e:	683b      	ldr	r3, [r7, #0]
 8006c10:	685b      	ldr	r3, [r3, #4]
 8006c12:	f003 0303 	and.w	r3, r3, #3
 8006c16:	2b01      	cmp	r3, #1
 8006c18:	d005      	beq.n	8006c26 <HAL_GPIO_Init+0x52>
          (GPIO_Init->Mode & GPIO_MODE) == MODE_AF)
 8006c1a:	683b      	ldr	r3, [r7, #0]
 8006c1c:	685b      	ldr	r3, [r3, #4]
 8006c1e:	f003 0303 	and.w	r3, r3, #3
      if(((GPIO_Init->Mode & GPIO_MODE) == MODE_OUTPUT) || \
 8006c22:	2b02      	cmp	r3, #2
 8006c24:	d130      	bne.n	8006c88 <HAL_GPIO_Init+0xb4>
      {
        /* Check the Speed parameter */
        assert_param(IS_GPIO_SPEED(GPIO_Init->Speed));
        /* Configure the IO Speed */
        temp = GPIOx->OSPEEDR; 
 8006c26:	687b      	ldr	r3, [r7, #4]
 8006c28:	689b      	ldr	r3, [r3, #8]
 8006c2a:	61bb      	str	r3, [r7, #24]
        temp &= ~(GPIO_OSPEEDER_OSPEEDR0 << (position * 2U));
 8006c2c:	69fb      	ldr	r3, [r7, #28]
 8006c2e:	005b      	lsls	r3, r3, #1
 8006c30:	2203      	movs	r2, #3
 8006c32:	fa02 f303 	lsl.w	r3, r2, r3
 8006c36:	43db      	mvns	r3, r3
 8006c38:	69ba      	ldr	r2, [r7, #24]
 8006c3a:	4013      	ands	r3, r2
 8006c3c:	61bb      	str	r3, [r7, #24]
        temp |= (GPIO_Init->Speed << (position * 2U));
 8006c3e:	683b      	ldr	r3, [r7, #0]
 8006c40:	68da      	ldr	r2, [r3, #12]
 8006c42:	69fb      	ldr	r3, [r7, #28]
 8006c44:	005b      	lsls	r3, r3, #1
 8006c46:	fa02 f303 	lsl.w	r3, r2, r3
 8006c4a:	69ba      	ldr	r2, [r7, #24]
 8006c4c:	4313      	orrs	r3, r2
 8006c4e:	61bb      	str	r3, [r7, #24]
        GPIOx->OSPEEDR = temp;
 8006c50:	687b      	ldr	r3, [r7, #4]
 8006c52:	69ba      	ldr	r2, [r7, #24]
 8006c54:	609a      	str	r2, [r3, #8]

        /* Configure the IO Output Type */
        temp = GPIOx->OTYPER;
 8006c56:	687b      	ldr	r3, [r7, #4]
 8006c58:	685b      	ldr	r3, [r3, #4]
 8006c5a:	61bb      	str	r3, [r7, #24]
        temp &= ~(GPIO_OTYPER_OT_0 << position) ;
 8006c5c:	2201      	movs	r2, #1
 8006c5e:	69fb      	ldr	r3, [r7, #28]
 8006c60:	fa02 f303 	lsl.w	r3, r2, r3
 8006c64:	43db      	mvns	r3, r3
 8006c66:	69ba      	ldr	r2, [r7, #24]
 8006c68:	4013      	ands	r3, r2
 8006c6a:	61bb      	str	r3, [r7, #24]
        temp |= (((GPIO_Init->Mode & OUTPUT_TYPE) >> OUTPUT_TYPE_Pos) << position);
 8006c6c:	683b      	ldr	r3, [r7, #0]
 8006c6e:	685b      	ldr	r3, [r3, #4]
 8006c70:	091b      	lsrs	r3, r3, #4
 8006c72:	f003 0201 	and.w	r2, r3, #1
 8006c76:	69fb      	ldr	r3, [r7, #28]
 8006c78:	fa02 f303 	lsl.w	r3, r2, r3
 8006c7c:	69ba      	ldr	r2, [r7, #24]
 8006c7e:	4313      	orrs	r3, r2
 8006c80:	61bb      	str	r3, [r7, #24]
        GPIOx->OTYPER = temp;
 8006c82:	687b      	ldr	r3, [r7, #4]
 8006c84:	69ba      	ldr	r2, [r7, #24]
 8006c86:	605a      	str	r2, [r3, #4]
       }

      if((GPIO_Init->Mode & GPIO_MODE) != MODE_ANALOG)
 8006c88:	683b      	ldr	r3, [r7, #0]
 8006c8a:	685b      	ldr	r3, [r3, #4]
 8006c8c:	f003 0303 	and.w	r3, r3, #3
 8006c90:	2b03      	cmp	r3, #3
 8006c92:	d017      	beq.n	8006cc4 <HAL_GPIO_Init+0xf0>
      {
        /* Check the parameters */
        assert_param(IS_GPIO_PULL(GPIO_Init->Pull));
        
        /* Activate the Pull-up or Pull down resistor for the current IO */
        temp = GPIOx->PUPDR;
 8006c94:	687b      	ldr	r3, [r7, #4]
 8006c96:	68db      	ldr	r3, [r3, #12]
 8006c98:	61bb      	str	r3, [r7, #24]
        temp &= ~(GPIO_PUPDR_PUPDR0 << (position * 2U));
 8006c9a:	69fb      	ldr	r3, [r7, #28]
 8006c9c:	005b      	lsls	r3, r3, #1
 8006c9e:	2203      	movs	r2, #3
 8006ca0:	fa02 f303 	lsl.w	r3, r2, r3
 8006ca4:	43db      	mvns	r3, r3
 8006ca6:	69ba      	ldr	r2, [r7, #24]
 8006ca8:	4013      	ands	r3, r2
 8006caa:	61bb      	str	r3, [r7, #24]
        temp |= ((GPIO_Init->Pull) << (position * 2U));
 8006cac:	683b      	ldr	r3, [r7, #0]
 8006cae:	689a      	ldr	r2, [r3, #8]
 8006cb0:	69fb      	ldr	r3, [r7, #28]
 8006cb2:	005b      	lsls	r3, r3, #1
 8006cb4:	fa02 f303 	lsl.w	r3, r2, r3
 8006cb8:	69ba      	ldr	r2, [r7, #24]
 8006cba:	4313      	orrs	r3, r2
 8006cbc:	61bb      	str	r3, [r7, #24]
        GPIOx->PUPDR = temp;
 8006cbe:	687b      	ldr	r3, [r7, #4]
 8006cc0:	69ba      	ldr	r2, [r7, #24]
 8006cc2:	60da      	str	r2, [r3, #12]
      }

      /* In case of Alternate function mode selection */
      if((GPIO_Init->Mode & GPIO_MODE) == MODE_AF)
 8006cc4:	683b      	ldr	r3, [r7, #0]
 8006cc6:	685b      	ldr	r3, [r3, #4]
 8006cc8:	f003 0303 	and.w	r3, r3, #3
 8006ccc:	2b02      	cmp	r3, #2
 8006cce:	d123      	bne.n	8006d18 <HAL_GPIO_Init+0x144>
      {
        /* Check the Alternate function parameter */
        assert_param(IS_GPIO_AF(GPIO_Init->Alternate));
        /* Configure Alternate function mapped with the current IO */
        temp = GPIOx->AFR[position >> 3U];
 8006cd0:	69fb      	ldr	r3, [r7, #28]
 8006cd2:	08da      	lsrs	r2, r3, #3
 8006cd4:	687b      	ldr	r3, [r7, #4]
 8006cd6:	3208      	adds	r2, #8
 8006cd8:	f853 3022 	ldr.w	r3, [r3, r2, lsl #2]
 8006cdc:	61bb      	str	r3, [r7, #24]
        temp &= ~(0xFU << ((uint32_t)(position & 0x07U) * 4U)) ;
 8006cde:	69fb      	ldr	r3, [r7, #28]
 8006ce0:	f003 0307 	and.w	r3, r3, #7
 8006ce4:	009b      	lsls	r3, r3, #2
 8006ce6:	220f      	movs	r2, #15
 8006ce8:	fa02 f303 	lsl.w	r3, r2, r3
 8006cec:	43db      	mvns	r3, r3
 8006cee:	69ba      	ldr	r2, [r7, #24]
 8006cf0:	4013      	ands	r3, r2
 8006cf2:	61bb      	str	r3, [r7, #24]
        temp |= ((uint32_t)(GPIO_Init->Alternate) << (((uint32_t)position & 0x07U) * 4U));
 8006cf4:	683b      	ldr	r3, [r7, #0]
 8006cf6:	691a      	ldr	r2, [r3, #16]
 8006cf8:	69fb      	ldr	r3, [r7, #28]
 8006cfa:	f003 0307 	and.w	r3, r3, #7
 8006cfe:	009b      	lsls	r3, r3, #2
 8006d00:	fa02 f303 	lsl.w	r3, r2, r3
 8006d04:	69ba      	ldr	r2, [r7, #24]
 8006d06:	4313      	orrs	r3, r2
 8006d08:	61bb      	str	r3, [r7, #24]
        GPIOx->AFR[position >> 3U] = temp;
 8006d0a:	69fb      	ldr	r3, [r7, #28]
 8006d0c:	08da      	lsrs	r2, r3, #3
 8006d0e:	687b      	ldr	r3, [r7, #4]
 8006d10:	3208      	adds	r2, #8
 8006d12:	69b9      	ldr	r1, [r7, #24]
 8006d14:	f843 1022 	str.w	r1, [r3, r2, lsl #2]
      }

      /* Configure IO Direction mode (Input, Output, Alternate or Analog) */
      temp = GPIOx->MODER;
 8006d18:	687b      	ldr	r3, [r7, #4]
 8006d1a:	681b      	ldr	r3, [r3, #0]
 8006d1c:	61bb      	str	r3, [r7, #24]
      temp &= ~(GPIO_MODER_MODER0 << (position * 2U));
 8006d1e:	69fb      	ldr	r3, [r7, #28]
 8006d20:	005b      	lsls	r3, r3, #1
 8006d22:	2203      	movs	r2, #3
 8006d24:	fa02 f303 	lsl.w	r3, r2, r3
 8006d28:	43db      	mvns	r3, r3
 8006d2a:	69ba      	ldr	r2, [r7, #24]
 8006d2c:	4013      	ands	r3, r2
 8006d2e:	61bb      	str	r3, [r7, #24]
      temp |= ((GPIO_Init->Mode & GPIO_MODE) << (position * 2U));
 8006d30:	683b      	ldr	r3, [r7, #0]
 8006d32:	685b      	ldr	r3, [r3, #4]
 8006d34:	f003 0203 	and.w	r2, r3, #3
 8006d38:	69fb      	ldr	r3, [r7, #28]
 8006d3a:	005b      	lsls	r3, r3, #1
 8006d3c:	fa02 f303 	lsl.w	r3, r2, r3
 8006d40:	69ba      	ldr	r2, [r7, #24]
 8006d42:	4313      	orrs	r3, r2
 8006d44:	61bb      	str	r3, [r7, #24]
      GPIOx->MODER = temp;
 8006d46:	687b      	ldr	r3, [r7, #4]
 8006d48:	69ba      	ldr	r2, [r7, #24]
 8006d4a:	601a      	str	r2, [r3, #0]

      /*--------------------- EXTI Mode Configuration ------------------------*/
      /* Configure the External Interrupt or event for the current IO */
      if((GPIO_Init->Mode & EXTI_MODE) != 0x00U)
 8006d4c:	683b      	ldr	r3, [r7, #0]
 8006d4e:	685b      	ldr	r3, [r3, #4]
 8006d50:	f403 3340 	and.w	r3, r3, #196608	; 0x30000
 8006d54:	2b00      	cmp	r3, #0
 8006d56:	f000 80b4 	beq.w	8006ec2 <HAL_GPIO_Init+0x2ee>
      {
        /* Enable SYSCFG Clock */
        __HAL_RCC_SYSCFG_CLK_ENABLE();
 8006d5a:	2300      	movs	r3, #0
 8006d5c:	60fb      	str	r3, [r7, #12]
 8006d5e:	4b60      	ldr	r3, [pc, #384]	; (8006ee0 <HAL_GPIO_Init+0x30c>)
 8006d60:	6c5b      	ldr	r3, [r3, #68]	; 0x44
 8006d62:	4a5f      	ldr	r2, [pc, #380]	; (8006ee0 <HAL_GPIO_Init+0x30c>)
 8006d64:	f443 4380 	orr.w	r3, r3, #16384	; 0x4000
 8006d68:	6453      	str	r3, [r2, #68]	; 0x44
 8006d6a:	4b5d      	ldr	r3, [pc, #372]	; (8006ee0 <HAL_GPIO_Init+0x30c>)
 8006d6c:	6c5b      	ldr	r3, [r3, #68]	; 0x44
 8006d6e:	f403 4380 	and.w	r3, r3, #16384	; 0x4000
 8006d72:	60fb      	str	r3, [r7, #12]
 8006d74:	68fb      	ldr	r3, [r7, #12]

        temp = SYSCFG->EXTICR[position >> 2U];
 8006d76:	4a5b      	ldr	r2, [pc, #364]	; (8006ee4 <HAL_GPIO_Init+0x310>)
 8006d78:	69fb      	ldr	r3, [r7, #28]
 8006d7a:	089b      	lsrs	r3, r3, #2
 8006d7c:	3302      	adds	r3, #2
 8006d7e:	f852 3023 	ldr.w	r3, [r2, r3, lsl #2]
 8006d82:	61bb      	str	r3, [r7, #24]
        temp &= ~(0x0FU << (4U * (position & 0x03U)));
 8006d84:	69fb      	ldr	r3, [r7, #28]
 8006d86:	f003 0303 	and.w	r3, r3, #3
 8006d8a:	009b      	lsls	r3, r3, #2
 8006d8c:	220f      	movs	r2, #15
 8006d8e:	fa02 f303 	lsl.w	r3, r2, r3
 8006d92:	43db      	mvns	r3, r3
 8006d94:	69ba      	ldr	r2, [r7, #24]
 8006d96:	4013      	ands	r3, r2
 8006d98:	61bb      	str	r3, [r7, #24]
        temp |= ((uint32_t)(GPIO_GET_INDEX(GPIOx)) << (4U * (position & 0x03U)));
 8006d9a:	687b      	ldr	r3, [r7, #4]
 8006d9c:	4a52      	ldr	r2, [pc, #328]	; (8006ee8 <HAL_GPIO_Init+0x314>)
 8006d9e:	4293      	cmp	r3, r2
 8006da0:	d02b      	beq.n	8006dfa <HAL_GPIO_Init+0x226>
 8006da2:	687b      	ldr	r3, [r7, #4]
 8006da4:	4a51      	ldr	r2, [pc, #324]	; (8006eec <HAL_GPIO_Init+0x318>)
 8006da6:	4293      	cmp	r3, r2
 8006da8:	d025      	beq.n	8006df6 <HAL_GPIO_Init+0x222>
 8006daa:	687b      	ldr	r3, [r7, #4]
 8006dac:	4a50      	ldr	r2, [pc, #320]	; (8006ef0 <HAL_GPIO_Init+0x31c>)
 8006dae:	4293      	cmp	r3, r2
 8006db0:	d01f      	beq.n	8006df2 <HAL_GPIO_Init+0x21e>
 8006db2:	687b      	ldr	r3, [r7, #4]
 8006db4:	4a4f      	ldr	r2, [pc, #316]	; (8006ef4 <HAL_GPIO_Init+0x320>)
 8006db6:	4293      	cmp	r3, r2
 8006db8:	d019      	beq.n	8006dee <HAL_GPIO_Init+0x21a>
 8006dba:	687b      	ldr	r3, [r7, #4]
 8006dbc:	4a4e      	ldr	r2, [pc, #312]	; (8006ef8 <HAL_GPIO_Init+0x324>)
 8006dbe:	4293      	cmp	r3, r2
 8006dc0:	d013      	beq.n	8006dea <HAL_GPIO_Init+0x216>
 8006dc2:	687b      	ldr	r3, [r7, #4]
 8006dc4:	4a4d      	ldr	r2, [pc, #308]	; (8006efc <HAL_GPIO_Init+0x328>)
 8006dc6:	4293      	cmp	r3, r2
 8006dc8:	d00d      	beq.n	8006de6 <HAL_GPIO_Init+0x212>
 8006dca:	687b      	ldr	r3, [r7, #4]
 8006dcc:	4a4c      	ldr	r2, [pc, #304]	; (8006f00 <HAL_GPIO_Init+0x32c>)
 8006dce:	4293      	cmp	r3, r2
 8006dd0:	d007      	beq.n	8006de2 <HAL_GPIO_Init+0x20e>
 8006dd2:	687b      	ldr	r3, [r7, #4]
 8006dd4:	4a4b      	ldr	r2, [pc, #300]	; (8006f04 <HAL_GPIO_Init+0x330>)
 8006dd6:	4293      	cmp	r3, r2
 8006dd8:	d101      	bne.n	8006dde <HAL_GPIO_Init+0x20a>
 8006dda:	2307      	movs	r3, #7
 8006ddc:	e00e      	b.n	8006dfc <HAL_GPIO_Init+0x228>
 8006dde:	2308      	movs	r3, #8
 8006de0:	e00c      	b.n	8006dfc <HAL_GPIO_Init+0x228>
 8006de2:	2306      	movs	r3, #6
 8006de4:	e00a      	b.n	8006dfc <HAL_GPIO_Init+0x228>
 8006de6:	2305      	movs	r3, #5
 8006de8:	e008      	b.n	8006dfc <HAL_GPIO_Init+0x228>
 8006dea:	2304      	movs	r3, #4
 8006dec:	e006      	b.n	8006dfc <HAL_GPIO_Init+0x228>
 8006dee:	2303      	movs	r3, #3
 8006df0:	e004      	b.n	8006dfc <HAL_GPIO_Init+0x228>
 8006df2:	2302      	movs	r3, #2
 8006df4:	e002      	b.n	8006dfc <HAL_GPIO_Init+0x228>
 8006df6:	2301      	movs	r3, #1
 8006df8:	e000      	b.n	8006dfc <HAL_GPIO_Init+0x228>
 8006dfa:	2300      	movs	r3, #0
 8006dfc:	69fa      	ldr	r2, [r7, #28]
 8006dfe:	f002 0203 	and.w	r2, r2, #3
 8006e02:	0092      	lsls	r2, r2, #2
 8006e04:	4093      	lsls	r3, r2
 8006e06:	69ba      	ldr	r2, [r7, #24]
 8006e08:	4313      	orrs	r3, r2
 8006e0a:	61bb      	str	r3, [r7, #24]
        SYSCFG->EXTICR[position >> 2U] = temp;
 8006e0c:	4935      	ldr	r1, [pc, #212]	; (8006ee4 <HAL_GPIO_Init+0x310>)
 8006e0e:	69fb      	ldr	r3, [r7, #28]
 8006e10:	089b      	lsrs	r3, r3, #2
 8006e12:	3302      	adds	r3, #2
 8006e14:	69ba      	ldr	r2, [r7, #24]
 8006e16:	f841 2023 	str.w	r2, [r1, r3, lsl #2]

        /* Clear EXTI line configuration */
        temp = EXTI->IMR;
 8006e1a:	4b3b      	ldr	r3, [pc, #236]	; (8006f08 <HAL_GPIO_Init+0x334>)
 8006e1c:	681b      	ldr	r3, [r3, #0]
 8006e1e:	61bb      	str	r3, [r7, #24]
        temp &= ~((uint32_t)iocurrent);
 8006e20:	693b      	ldr	r3, [r7, #16]
 8006e22:	43db      	mvns	r3, r3
 8006e24:	69ba      	ldr	r2, [r7, #24]
 8006e26:	4013      	ands	r3, r2
 8006e28:	61bb      	str	r3, [r7, #24]
        if((GPIO_Init->Mode & EXTI_IT) != 0x00U)
 8006e2a:	683b      	ldr	r3, [r7, #0]
 8006e2c:	685b      	ldr	r3, [r3, #4]
 8006e2e:	f403 3380 	and.w	r3, r3, #65536	; 0x10000
 8006e32:	2b00      	cmp	r3, #0
 8006e34:	d003      	beq.n	8006e3e <HAL_GPIO_Init+0x26a>
        {
          temp |= iocurrent;
 8006e36:	69ba      	ldr	r2, [r7, #24]
 8006e38:	693b      	ldr	r3, [r7, #16]
 8006e3a:	4313      	orrs	r3, r2
 8006e3c:	61bb      	str	r3, [r7, #24]
        }
        EXTI->IMR = temp;
 8006e3e:	4a32      	ldr	r2, [pc, #200]	; (8006f08 <HAL_GPIO_Init+0x334>)
 8006e40:	69bb      	ldr	r3, [r7, #24]
 8006e42:	6013      	str	r3, [r2, #0]

        temp = EXTI->EMR;
 8006e44:	4b30      	ldr	r3, [pc, #192]	; (8006f08 <HAL_GPIO_Init+0x334>)
 8006e46:	685b      	ldr	r3, [r3, #4]
 8006e48:	61bb      	str	r3, [r7, #24]
        temp &= ~((uint32_t)iocurrent);
 8006e4a:	693b      	ldr	r3, [r7, #16]
 8006e4c:	43db      	mvns	r3, r3
 8006e4e:	69ba      	ldr	r2, [r7, #24]
 8006e50:	4013      	ands	r3, r2
 8006e52:	61bb      	str	r3, [r7, #24]
        if((GPIO_Init->Mode & EXTI_EVT) != 0x00U)
 8006e54:	683b      	ldr	r3, [r7, #0]
 8006e56:	685b      	ldr	r3, [r3, #4]
 8006e58:	f403 3300 	and.w	r3, r3, #131072	; 0x20000
 8006e5c:	2b00      	cmp	r3, #0
 8006e5e:	d003      	beq.n	8006e68 <HAL_GPIO_Init+0x294>
        {
          temp |= iocurrent;
 8006e60:	69ba      	ldr	r2, [r7, #24]
 8006e62:	693b      	ldr	r3, [r7, #16]
 8006e64:	4313      	orrs	r3, r2
 8006e66:	61bb      	str	r3, [r7, #24]
        }
        EXTI->EMR = temp;
 8006e68:	4a27      	ldr	r2, [pc, #156]	; (8006f08 <HAL_GPIO_Init+0x334>)
 8006e6a:	69bb      	ldr	r3, [r7, #24]
 8006e6c:	6053      	str	r3, [r2, #4]

        /* Clear Rising Falling edge configuration */
        temp = EXTI->RTSR;
 8006e6e:	4b26      	ldr	r3, [pc, #152]	; (8006f08 <HAL_GPIO_Init+0x334>)
 8006e70:	689b      	ldr	r3, [r3, #8]
 8006e72:	61bb      	str	r3, [r7, #24]
        temp &= ~((uint32_t)iocurrent);
 8006e74:	693b      	ldr	r3, [r7, #16]
 8006e76:	43db      	mvns	r3, r3
 8006e78:	69ba      	ldr	r2, [r7, #24]
 8006e7a:	4013      	ands	r3, r2
 8006e7c:	61bb      	str	r3, [r7, #24]
        if((GPIO_Init->Mode & TRIGGER_RISING) != 0x00U)
 8006e7e:	683b      	ldr	r3, [r7, #0]
 8006e80:	685b      	ldr	r3, [r3, #4]
 8006e82:	f403 1380 	and.w	r3, r3, #1048576	; 0x100000
 8006e86:	2b00      	cmp	r3, #0
 8006e88:	d003      	beq.n	8006e92 <HAL_GPIO_Init+0x2be>
        {
          temp |= iocurrent;
 8006e8a:	69ba      	ldr	r2, [r7, #24]
 8006e8c:	693b      	ldr	r3, [r7, #16]
 8006e8e:	4313      	orrs	r3, r2
 8006e90:	61bb      	str	r3, [r7, #24]
        }
        EXTI->RTSR = temp;
 8006e92:	4a1d      	ldr	r2, [pc, #116]	; (8006f08 <HAL_GPIO_Init+0x334>)
 8006e94:	69bb      	ldr	r3, [r7, #24]
 8006e96:	6093      	str	r3, [r2, #8]

        temp = EXTI->FTSR;
 8006e98:	4b1b      	ldr	r3, [pc, #108]	; (8006f08 <HAL_GPIO_Init+0x334>)
 8006e9a:	68db      	ldr	r3, [r3, #12]
 8006e9c:	61bb      	str	r3, [r7, #24]
        temp &= ~((uint32_t)iocurrent);
 8006e9e:	693b      	ldr	r3, [r7, #16]
 8006ea0:	43db      	mvns	r3, r3
 8006ea2:	69ba      	ldr	r2, [r7, #24]
 8006ea4:	4013      	ands	r3, r2
 8006ea6:	61bb      	str	r3, [r7, #24]
        if((GPIO_Init->Mode & TRIGGER_FALLING) != 0x00U)
 8006ea8:	683b      	ldr	r3, [r7, #0]
 8006eaa:	685b      	ldr	r3, [r3, #4]
 8006eac:	f403 1300 	and.w	r3, r3, #2097152	; 0x200000
 8006eb0:	2b00      	cmp	r3, #0
 8006eb2:	d003      	beq.n	8006ebc <HAL_GPIO_Init+0x2e8>
        {
          temp |= iocurrent;
 8006eb4:	69ba      	ldr	r2, [r7, #24]
 8006eb6:	693b      	ldr	r3, [r7, #16]
 8006eb8:	4313      	orrs	r3, r2
 8006eba:	61bb      	str	r3, [r7, #24]
        }
        EXTI->FTSR = temp;
 8006ebc:	4a12      	ldr	r2, [pc, #72]	; (8006f08 <HAL_GPIO_Init+0x334>)
 8006ebe:	69bb      	ldr	r3, [r7, #24]
 8006ec0:	60d3      	str	r3, [r2, #12]
  for(position = 0U; position < GPIO_NUMBER; position++)
 8006ec2:	69fb      	ldr	r3, [r7, #28]
 8006ec4:	3301      	adds	r3, #1
 8006ec6:	61fb      	str	r3, [r7, #28]
 8006ec8:	69fb      	ldr	r3, [r7, #28]
 8006eca:	2b0f      	cmp	r3, #15
 8006ecc:	f67f ae90 	bls.w	8006bf0 <HAL_GPIO_Init+0x1c>
      }
    }
  }
}
 8006ed0:	bf00      	nop
 8006ed2:	bf00      	nop
 8006ed4:	3724      	adds	r7, #36	; 0x24
 8006ed6:	46bd      	mov	sp, r7
 8006ed8:	f85d 7b04 	ldr.w	r7, [sp], #4
 8006edc:	4770      	bx	lr
 8006ede:	bf00      	nop
 8006ee0:	40023800 	.word	0x40023800
 8006ee4:	40013800 	.word	0x40013800
 8006ee8:	40020000 	.word	0x40020000
 8006eec:	40020400 	.word	0x40020400
 8006ef0:	40020800 	.word	0x40020800
 8006ef4:	40020c00 	.word	0x40020c00
 8006ef8:	40021000 	.word	0x40021000
 8006efc:	40021400 	.word	0x40021400
 8006f00:	40021800 	.word	0x40021800
 8006f04:	40021c00 	.word	0x40021c00
 8006f08:	40013c00 	.word	0x40013c00

08006f0c <HAL_GPIO_WritePin>:
  *            @arg GPIO_PIN_RESET: to clear the port pin
  *            @arg GPIO_PIN_SET: to set the port pin
  * @retval None
  */
void HAL_GPIO_WritePin(GPIO_TypeDef* GPIOx, uint16_t GPIO_Pin, GPIO_PinState PinState)
{
 8006f0c:	b480      	push	{r7}
 8006f0e:	b083      	sub	sp, #12
 8006f10:	af00      	add	r7, sp, #0
 8006f12:	6078      	str	r0, [r7, #4]
 8006f14:	460b      	mov	r3, r1
 8006f16:	807b      	strh	r3, [r7, #2]
 8006f18:	4613      	mov	r3, r2
 8006f1a:	707b      	strb	r3, [r7, #1]
  /* Check the parameters */
  assert_param(IS_GPIO_PIN(GPIO_Pin));
  assert_param(IS_GPIO_PIN_ACTION(PinState));

  if(PinState != GPIO_PIN_RESET)
 8006f1c:	787b      	ldrb	r3, [r7, #1]
 8006f1e:	2b00      	cmp	r3, #0
 8006f20:	d003      	beq.n	8006f2a <HAL_GPIO_WritePin+0x1e>
  {
    GPIOx->BSRR = GPIO_Pin;
 8006f22:	887a      	ldrh	r2, [r7, #2]
 8006f24:	687b      	ldr	r3, [r7, #4]
 8006f26:	619a      	str	r2, [r3, #24]
  }
  else
  {
    GPIOx->BSRR = (uint32_t)GPIO_Pin << 16U;
  }
}
 8006f28:	e003      	b.n	8006f32 <HAL_GPIO_WritePin+0x26>
    GPIOx->BSRR = (uint32_t)GPIO_Pin << 16U;
 8006f2a:	887b      	ldrh	r3, [r7, #2]
 8006f2c:	041a      	lsls	r2, r3, #16
 8006f2e:	687b      	ldr	r3, [r7, #4]
 8006f30:	619a      	str	r2, [r3, #24]
}
 8006f32:	bf00      	nop
 8006f34:	370c      	adds	r7, #12
 8006f36:	46bd      	mov	sp, r7
 8006f38:	f85d 7b04 	ldr.w	r7, [sp], #4
 8006f3c:	4770      	bx	lr

08006f3e <HAL_GPIO_TogglePin>:
  *                      x can be (A..I) to select the GPIO peripheral for STM32F40XX and STM32F427X devices.
  * @param  GPIO_Pin Specifies the pins to be toggled.
  * @retval None
  */
void HAL_GPIO_TogglePin(GPIO_TypeDef* GPIOx, uint16_t GPIO_Pin)
{
 8006f3e:	b480      	push	{r7}
 8006f40:	b085      	sub	sp, #20
 8006f42:	af00      	add	r7, sp, #0
 8006f44:	6078      	str	r0, [r7, #4]
 8006f46:	460b      	mov	r3, r1
 8006f48:	807b      	strh	r3, [r7, #2]

  /* Check the parameters */
  assert_param(IS_GPIO_PIN(GPIO_Pin));

  /* get current Ouput Data Register value */
  odr = GPIOx->ODR;
 8006f4a:	687b      	ldr	r3, [r7, #4]
 8006f4c:	695b      	ldr	r3, [r3, #20]
 8006f4e:	60fb      	str	r3, [r7, #12]

  /* Set selected pins that were at low level, and reset ones that were high */
  GPIOx->BSRR = ((odr & GPIO_Pin) << GPIO_NUMBER) | (~odr & GPIO_Pin);
 8006f50:	887a      	ldrh	r2, [r7, #2]
 8006f52:	68fb      	ldr	r3, [r7, #12]
 8006f54:	4013      	ands	r3, r2
 8006f56:	041a      	lsls	r2, r3, #16
 8006f58:	68fb      	ldr	r3, [r7, #12]
 8006f5a:	43d9      	mvns	r1, r3
 8006f5c:	887b      	ldrh	r3, [r7, #2]
 8006f5e:	400b      	ands	r3, r1
 8006f60:	431a      	orrs	r2, r3
 8006f62:	687b      	ldr	r3, [r7, #4]
 8006f64:	619a      	str	r2, [r3, #24]
}
 8006f66:	bf00      	nop
 8006f68:	3714      	adds	r7, #20
 8006f6a:	46bd      	mov	sp, r7
 8006f6c:	f85d 7b04 	ldr.w	r7, [sp], #4
 8006f70:	4770      	bx	lr
	...

08006f74 <HAL_RCC_OscConfig>:
  *         supported by this API. User should request a transition to HSE Off
  *         first and then HSE On or HSE Bypass.
  * @retval HAL status
  */
__weak HAL_StatusTypeDef HAL_RCC_OscConfig(RCC_OscInitTypeDef  *RCC_OscInitStruct)
{
 8006f74:	b580      	push	{r7, lr}
 8006f76:	b086      	sub	sp, #24
 8006f78:	af00      	add	r7, sp, #0
 8006f7a:	6078      	str	r0, [r7, #4]
  uint32_t tickstart, pll_config;

  /* Check Null pointer */
  if(RCC_OscInitStruct == NULL)
 8006f7c:	687b      	ldr	r3, [r7, #4]
 8006f7e:	2b00      	cmp	r3, #0
 8006f80:	d101      	bne.n	8006f86 <HAL_RCC_OscConfig+0x12>
  {
    return HAL_ERROR;
 8006f82:	2301      	movs	r3, #1
 8006f84:	e264      	b.n	8007450 <HAL_RCC_OscConfig+0x4dc>
  }

  /* Check the parameters */
  assert_param(IS_RCC_OSCILLATORTYPE(RCC_OscInitStruct->OscillatorType));
  /*------------------------------- HSE Configuration ------------------------*/
  if(((RCC_OscInitStruct->OscillatorType) & RCC_OSCILLATORTYPE_HSE) == RCC_OSCILLATORTYPE_HSE)
 8006f86:	687b      	ldr	r3, [r7, #4]
 8006f88:	681b      	ldr	r3, [r3, #0]
 8006f8a:	f003 0301 	and.w	r3, r3, #1
 8006f8e:	2b00      	cmp	r3, #0
 8006f90:	d075      	beq.n	800707e <HAL_RCC_OscConfig+0x10a>
  {
    /* Check the parameters */
    assert_param(IS_RCC_HSE(RCC_OscInitStruct->HSEState));
    /* When the HSE is used as system clock or clock source for PLL in these cases HSE will not disabled */
    if((__HAL_RCC_GET_SYSCLK_SOURCE() == RCC_CFGR_SWS_HSE) ||\
 8006f92:	4ba3      	ldr	r3, [pc, #652]	; (8007220 <HAL_RCC_OscConfig+0x2ac>)
 8006f94:	689b      	ldr	r3, [r3, #8]
 8006f96:	f003 030c 	and.w	r3, r3, #12
 8006f9a:	2b04      	cmp	r3, #4
 8006f9c:	d00c      	beq.n	8006fb8 <HAL_RCC_OscConfig+0x44>
      ((__HAL_RCC_GET_SYSCLK_SOURCE() == RCC_CFGR_SWS_PLL) && ((RCC->PLLCFGR & RCC_PLLCFGR_PLLSRC) == RCC_PLLCFGR_PLLSRC_HSE)))
 8006f9e:	4ba0      	ldr	r3, [pc, #640]	; (8007220 <HAL_RCC_OscConfig+0x2ac>)
 8006fa0:	689b      	ldr	r3, [r3, #8]
 8006fa2:	f003 030c 	and.w	r3, r3, #12
    if((__HAL_RCC_GET_SYSCLK_SOURCE() == RCC_CFGR_SWS_HSE) ||\
 8006fa6:	2b08      	cmp	r3, #8
 8006fa8:	d112      	bne.n	8006fd0 <HAL_RCC_OscConfig+0x5c>
      ((__HAL_RCC_GET_SYSCLK_SOURCE() == RCC_CFGR_SWS_PLL) && ((RCC->PLLCFGR & RCC_PLLCFGR_PLLSRC) == RCC_PLLCFGR_PLLSRC_HSE)))
 8006faa:	4b9d      	ldr	r3, [pc, #628]	; (8007220 <HAL_RCC_OscConfig+0x2ac>)
 8006fac:	685b      	ldr	r3, [r3, #4]
 8006fae:	f403 0380 	and.w	r3, r3, #4194304	; 0x400000
 8006fb2:	f5b3 0f80 	cmp.w	r3, #4194304	; 0x400000
 8006fb6:	d10b      	bne.n	8006fd0 <HAL_RCC_OscConfig+0x5c>
    {
      if((__HAL_RCC_GET_FLAG(RCC_FLAG_HSERDY) != RESET) && (RCC_OscInitStruct->HSEState == RCC_HSE_OFF))
 8006fb8:	4b99      	ldr	r3, [pc, #612]	; (8007220 <HAL_RCC_OscConfig+0x2ac>)
 8006fba:	681b      	ldr	r3, [r3, #0]
 8006fbc:	f403 3300 	and.w	r3, r3, #131072	; 0x20000
 8006fc0:	2b00      	cmp	r3, #0
 8006fc2:	d05b      	beq.n	800707c <HAL_RCC_OscConfig+0x108>
 8006fc4:	687b      	ldr	r3, [r7, #4]
 8006fc6:	685b      	ldr	r3, [r3, #4]
 8006fc8:	2b00      	cmp	r3, #0
 8006fca:	d157      	bne.n	800707c <HAL_RCC_OscConfig+0x108>
      {
        return HAL_ERROR;
 8006fcc:	2301      	movs	r3, #1
 8006fce:	e23f      	b.n	8007450 <HAL_RCC_OscConfig+0x4dc>
      }
    }
    else
    {
      /* Set the new HSE configuration ---------------------------------------*/
      __HAL_RCC_HSE_CONFIG(RCC_OscInitStruct->HSEState);
 8006fd0:	687b      	ldr	r3, [r7, #4]
 8006fd2:	685b      	ldr	r3, [r3, #4]
 8006fd4:	f5b3 3f80 	cmp.w	r3, #65536	; 0x10000
 8006fd8:	d106      	bne.n	8006fe8 <HAL_RCC_OscConfig+0x74>
 8006fda:	4b91      	ldr	r3, [pc, #580]	; (8007220 <HAL_RCC_OscConfig+0x2ac>)
 8006fdc:	681b      	ldr	r3, [r3, #0]
 8006fde:	4a90      	ldr	r2, [pc, #576]	; (8007220 <HAL_RCC_OscConfig+0x2ac>)
 8006fe0:	f443 3380 	orr.w	r3, r3, #65536	; 0x10000
 8006fe4:	6013      	str	r3, [r2, #0]
 8006fe6:	e01d      	b.n	8007024 <HAL_RCC_OscConfig+0xb0>
 8006fe8:	687b      	ldr	r3, [r7, #4]
 8006fea:	685b      	ldr	r3, [r3, #4]
 8006fec:	f5b3 2fa0 	cmp.w	r3, #327680	; 0x50000
 8006ff0:	d10c      	bne.n	800700c <HAL_RCC_OscConfig+0x98>
 8006ff2:	4b8b      	ldr	r3, [pc, #556]	; (8007220 <HAL_RCC_OscConfig+0x2ac>)
 8006ff4:	681b      	ldr	r3, [r3, #0]
 8006ff6:	4a8a      	ldr	r2, [pc, #552]	; (8007220 <HAL_RCC_OscConfig+0x2ac>)
 8006ff8:	f443 2380 	orr.w	r3, r3, #262144	; 0x40000
 8006ffc:	6013      	str	r3, [r2, #0]
 8006ffe:	4b88      	ldr	r3, [pc, #544]	; (8007220 <HAL_RCC_OscConfig+0x2ac>)
 8007000:	681b      	ldr	r3, [r3, #0]
 8007002:	4a87      	ldr	r2, [pc, #540]	; (8007220 <HAL_RCC_OscConfig+0x2ac>)
 8007004:	f443 3380 	orr.w	r3, r3, #65536	; 0x10000
 8007008:	6013      	str	r3, [r2, #0]
 800700a:	e00b      	b.n	8007024 <HAL_RCC_OscConfig+0xb0>
 800700c:	4b84      	ldr	r3, [pc, #528]	; (8007220 <HAL_RCC_OscConfig+0x2ac>)
 800700e:	681b      	ldr	r3, [r3, #0]
 8007010:	4a83      	ldr	r2, [pc, #524]	; (8007220 <HAL_RCC_OscConfig+0x2ac>)
 8007012:	f423 3380 	bic.w	r3, r3, #65536	; 0x10000
 8007016:	6013      	str	r3, [r2, #0]
 8007018:	4b81      	ldr	r3, [pc, #516]	; (8007220 <HAL_RCC_OscConfig+0x2ac>)
 800701a:	681b      	ldr	r3, [r3, #0]
 800701c:	4a80      	ldr	r2, [pc, #512]	; (8007220 <HAL_RCC_OscConfig+0x2ac>)
 800701e:	f423 2380 	bic.w	r3, r3, #262144	; 0x40000
 8007022:	6013      	str	r3, [r2, #0]

      /* Check the HSE State */
      if((RCC_OscInitStruct->HSEState) != RCC_HSE_OFF)
 8007024:	687b      	ldr	r3, [r7, #4]
 8007026:	685b      	ldr	r3, [r3, #4]
 8007028:	2b00      	cmp	r3, #0
 800702a:	d013      	beq.n	8007054 <HAL_RCC_OscConfig+0xe0>
      {
        /* Get Start Tick */
        tickstart = HAL_GetTick();
 800702c:	f7fe fe2c 	bl	8005c88 <HAL_GetTick>
 8007030:	6138      	str	r0, [r7, #16]

        /* Wait till HSE is ready */
        while(__HAL_RCC_GET_FLAG(RCC_FLAG_HSERDY) == RESET)
 8007032:	e008      	b.n	8007046 <HAL_RCC_OscConfig+0xd2>
        {
          if((HAL_GetTick() - tickstart ) > HSE_TIMEOUT_VALUE)
 8007034:	f7fe fe28 	bl	8005c88 <HAL_GetTick>
 8007038:	4602      	mov	r2, r0
 800703a:	693b      	ldr	r3, [r7, #16]
 800703c:	1ad3      	subs	r3, r2, r3
 800703e:	2b64      	cmp	r3, #100	; 0x64
 8007040:	d901      	bls.n	8007046 <HAL_RCC_OscConfig+0xd2>
          {
            return HAL_TIMEOUT;
 8007042:	2303      	movs	r3, #3
 8007044:	e204      	b.n	8007450 <HAL_RCC_OscConfig+0x4dc>
        while(__HAL_RCC_GET_FLAG(RCC_FLAG_HSERDY) == RESET)
 8007046:	4b76      	ldr	r3, [pc, #472]	; (8007220 <HAL_RCC_OscConfig+0x2ac>)
 8007048:	681b      	ldr	r3, [r3, #0]
 800704a:	f403 3300 	and.w	r3, r3, #131072	; 0x20000
 800704e:	2b00      	cmp	r3, #0
 8007050:	d0f0      	beq.n	8007034 <HAL_RCC_OscConfig+0xc0>
 8007052:	e014      	b.n	800707e <HAL_RCC_OscConfig+0x10a>
        }
      }
      else
      {
        /* Get Start Tick */
        tickstart = HAL_GetTick();
 8007054:	f7fe fe18 	bl	8005c88 <HAL_GetTick>
 8007058:	6138      	str	r0, [r7, #16]

        /* Wait till HSE is bypassed or disabled */
        while(__HAL_RCC_GET_FLAG(RCC_FLAG_HSERDY) != RESET)
 800705a:	e008      	b.n	800706e <HAL_RCC_OscConfig+0xfa>
        {
          if((HAL_GetTick() - tickstart ) > HSE_TIMEOUT_VALUE)
 800705c:	f7fe fe14 	bl	8005c88 <HAL_GetTick>
 8007060:	4602      	mov	r2, r0
 8007062:	693b      	ldr	r3, [r7, #16]
 8007064:	1ad3      	subs	r3, r2, r3
 8007066:	2b64      	cmp	r3, #100	; 0x64
 8007068:	d901      	bls.n	800706e <HAL_RCC_OscConfig+0xfa>
          {
            return HAL_TIMEOUT;
 800706a:	2303      	movs	r3, #3
 800706c:	e1f0      	b.n	8007450 <HAL_RCC_OscConfig+0x4dc>
        while(__HAL_RCC_GET_FLAG(RCC_FLAG_HSERDY) != RESET)
 800706e:	4b6c      	ldr	r3, [pc, #432]	; (8007220 <HAL_RCC_OscConfig+0x2ac>)
 8007070:	681b      	ldr	r3, [r3, #0]
 8007072:	f403 3300 	and.w	r3, r3, #131072	; 0x20000
 8007076:	2b00      	cmp	r3, #0
 8007078:	d1f0      	bne.n	800705c <HAL_RCC_OscConfig+0xe8>
 800707a:	e000      	b.n	800707e <HAL_RCC_OscConfig+0x10a>
      if((__HAL_RCC_GET_FLAG(RCC_FLAG_HSERDY) != RESET) && (RCC_OscInitStruct->HSEState == RCC_HSE_OFF))
 800707c:	bf00      	nop
        }
      }
    }
  }
  /*----------------------------- HSI Configuration --------------------------*/
  if(((RCC_OscInitStruct->OscillatorType) & RCC_OSCILLATORTYPE_HSI) == RCC_OSCILLATORTYPE_HSI)
 800707e:	687b      	ldr	r3, [r7, #4]
 8007080:	681b      	ldr	r3, [r3, #0]
 8007082:	f003 0302 	and.w	r3, r3, #2
 8007086:	2b00      	cmp	r3, #0
 8007088:	d063      	beq.n	8007152 <HAL_RCC_OscConfig+0x1de>
    /* Check the parameters */
    assert_param(IS_RCC_HSI(RCC_OscInitStruct->HSIState));
    assert_param(IS_RCC_CALIBRATION_VALUE(RCC_OscInitStruct->HSICalibrationValue));

    /* Check if HSI is used as system clock or as PLL source when PLL is selected as system clock */
    if((__HAL_RCC_GET_SYSCLK_SOURCE() == RCC_CFGR_SWS_HSI) ||\
 800708a:	4b65      	ldr	r3, [pc, #404]	; (8007220 <HAL_RCC_OscConfig+0x2ac>)
 800708c:	689b      	ldr	r3, [r3, #8]
 800708e:	f003 030c 	and.w	r3, r3, #12
 8007092:	2b00      	cmp	r3, #0
 8007094:	d00b      	beq.n	80070ae <HAL_RCC_OscConfig+0x13a>
      ((__HAL_RCC_GET_SYSCLK_SOURCE() == RCC_CFGR_SWS_PLL) && ((RCC->PLLCFGR & RCC_PLLCFGR_PLLSRC) == RCC_PLLCFGR_PLLSRC_HSI)))
 8007096:	4b62      	ldr	r3, [pc, #392]	; (8007220 <HAL_RCC_OscConfig+0x2ac>)
 8007098:	689b      	ldr	r3, [r3, #8]
 800709a:	f003 030c 	and.w	r3, r3, #12
    if((__HAL_RCC_GET_SYSCLK_SOURCE() == RCC_CFGR_SWS_HSI) ||\
 800709e:	2b08      	cmp	r3, #8
 80070a0:	d11c      	bne.n	80070dc <HAL_RCC_OscConfig+0x168>
      ((__HAL_RCC_GET_SYSCLK_SOURCE() == RCC_CFGR_SWS_PLL) && ((RCC->PLLCFGR & RCC_PLLCFGR_PLLSRC) == RCC_PLLCFGR_PLLSRC_HSI)))
 80070a2:	4b5f      	ldr	r3, [pc, #380]	; (8007220 <HAL_RCC_OscConfig+0x2ac>)
 80070a4:	685b      	ldr	r3, [r3, #4]
 80070a6:	f403 0380 	and.w	r3, r3, #4194304	; 0x400000
 80070aa:	2b00      	cmp	r3, #0
 80070ac:	d116      	bne.n	80070dc <HAL_RCC_OscConfig+0x168>
    {
      /* When HSI is used as system clock it will not disabled */
      if((__HAL_RCC_GET_FLAG(RCC_FLAG_HSIRDY) != RESET) && (RCC_OscInitStruct->HSIState != RCC_HSI_ON))
 80070ae:	4b5c      	ldr	r3, [pc, #368]	; (8007220 <HAL_RCC_OscConfig+0x2ac>)
 80070b0:	681b      	ldr	r3, [r3, #0]
 80070b2:	f003 0302 	and.w	r3, r3, #2
 80070b6:	2b00      	cmp	r3, #0
 80070b8:	d005      	beq.n	80070c6 <HAL_RCC_OscConfig+0x152>
 80070ba:	687b      	ldr	r3, [r7, #4]
 80070bc:	68db      	ldr	r3, [r3, #12]
 80070be:	2b01      	cmp	r3, #1
 80070c0:	d001      	beq.n	80070c6 <HAL_RCC_OscConfig+0x152>
      {
        return HAL_ERROR;
 80070c2:	2301      	movs	r3, #1
 80070c4:	e1c4      	b.n	8007450 <HAL_RCC_OscConfig+0x4dc>
      }
      /* Otherwise, just the calibration is allowed */
      else
      {
        /* Adjusts the Internal High Speed oscillator (HSI) calibration value.*/
        __HAL_RCC_HSI_CALIBRATIONVALUE_ADJUST(RCC_OscInitStruct->HSICalibrationValue);
 80070c6:	4b56      	ldr	r3, [pc, #344]	; (8007220 <HAL_RCC_OscConfig+0x2ac>)
 80070c8:	681b      	ldr	r3, [r3, #0]
 80070ca:	f023 02f8 	bic.w	r2, r3, #248	; 0xf8
 80070ce:	687b      	ldr	r3, [r7, #4]
 80070d0:	691b      	ldr	r3, [r3, #16]
 80070d2:	00db      	lsls	r3, r3, #3
 80070d4:	4952      	ldr	r1, [pc, #328]	; (8007220 <HAL_RCC_OscConfig+0x2ac>)
 80070d6:	4313      	orrs	r3, r2
 80070d8:	600b      	str	r3, [r1, #0]
      if((__HAL_RCC_GET_FLAG(RCC_FLAG_HSIRDY) != RESET) && (RCC_OscInitStruct->HSIState != RCC_HSI_ON))
 80070da:	e03a      	b.n	8007152 <HAL_RCC_OscConfig+0x1de>
      }
    }
    else
    {
      /* Check the HSI State */
      if((RCC_OscInitStruct->HSIState)!= RCC_HSI_OFF)
 80070dc:	687b      	ldr	r3, [r7, #4]
 80070de:	68db      	ldr	r3, [r3, #12]
 80070e0:	2b00      	cmp	r3, #0
 80070e2:	d020      	beq.n	8007126 <HAL_RCC_OscConfig+0x1b2>
      {
        /* Enable the Internal High Speed oscillator (HSI). */
        __HAL_RCC_HSI_ENABLE();
 80070e4:	4b4f      	ldr	r3, [pc, #316]	; (8007224 <HAL_RCC_OscConfig+0x2b0>)
 80070e6:	2201      	movs	r2, #1
 80070e8:	601a      	str	r2, [r3, #0]

        /* Get Start Tick*/
        tickstart = HAL_GetTick();
 80070ea:	f7fe fdcd 	bl	8005c88 <HAL_GetTick>
 80070ee:	6138      	str	r0, [r7, #16]

        /* Wait till HSI is ready */
        while(__HAL_RCC_GET_FLAG(RCC_FLAG_HSIRDY) == RESET)
 80070f0:	e008      	b.n	8007104 <HAL_RCC_OscConfig+0x190>
        {
          if((HAL_GetTick() - tickstart ) > HSI_TIMEOUT_VALUE)
 80070f2:	f7fe fdc9 	bl	8005c88 <HAL_GetTick>
 80070f6:	4602      	mov	r2, r0
 80070f8:	693b      	ldr	r3, [r7, #16]
 80070fa:	1ad3      	subs	r3, r2, r3
 80070fc:	2b02      	cmp	r3, #2
 80070fe:	d901      	bls.n	8007104 <HAL_RCC_OscConfig+0x190>
          {
            return HAL_TIMEOUT;
 8007100:	2303      	movs	r3, #3
 8007102:	e1a5      	b.n	8007450 <HAL_RCC_OscConfig+0x4dc>
        while(__HAL_RCC_GET_FLAG(RCC_FLAG_HSIRDY) == RESET)
 8007104:	4b46      	ldr	r3, [pc, #280]	; (8007220 <HAL_RCC_OscConfig+0x2ac>)
 8007106:	681b      	ldr	r3, [r3, #0]
 8007108:	f003 0302 	and.w	r3, r3, #2
 800710c:	2b00      	cmp	r3, #0
 800710e:	d0f0      	beq.n	80070f2 <HAL_RCC_OscConfig+0x17e>
          }
        }

        /* Adjusts the Internal High Speed oscillator (HSI) calibration value. */
        __HAL_RCC_HSI_CALIBRATIONVALUE_ADJUST(RCC_OscInitStruct->HSICalibrationValue);
 8007110:	4b43      	ldr	r3, [pc, #268]	; (8007220 <HAL_RCC_OscConfig+0x2ac>)
 8007112:	681b      	ldr	r3, [r3, #0]
 8007114:	f023 02f8 	bic.w	r2, r3, #248	; 0xf8
 8007118:	687b      	ldr	r3, [r7, #4]
 800711a:	691b      	ldr	r3, [r3, #16]
 800711c:	00db      	lsls	r3, r3, #3
 800711e:	4940      	ldr	r1, [pc, #256]	; (8007220 <HAL_RCC_OscConfig+0x2ac>)
 8007120:	4313      	orrs	r3, r2
 8007122:	600b      	str	r3, [r1, #0]
 8007124:	e015      	b.n	8007152 <HAL_RCC_OscConfig+0x1de>
      }
      else
      {
        /* Disable the Internal High Speed oscillator (HSI). */
        __HAL_RCC_HSI_DISABLE();
 8007126:	4b3f      	ldr	r3, [pc, #252]	; (8007224 <HAL_RCC_OscConfig+0x2b0>)
 8007128:	2200      	movs	r2, #0
 800712a:	601a      	str	r2, [r3, #0]

        /* Get Start Tick*/
        tickstart = HAL_GetTick();
 800712c:	f7fe fdac 	bl	8005c88 <HAL_GetTick>
 8007130:	6138      	str	r0, [r7, #16]

        /* Wait till HSI is ready */
        while(__HAL_RCC_GET_FLAG(RCC_FLAG_HSIRDY) != RESET)
 8007132:	e008      	b.n	8007146 <HAL_RCC_OscConfig+0x1d2>
        {
          if((HAL_GetTick() - tickstart ) > HSI_TIMEOUT_VALUE)
 8007134:	f7fe fda8 	bl	8005c88 <HAL_GetTick>
 8007138:	4602      	mov	r2, r0
 800713a:	693b      	ldr	r3, [r7, #16]
 800713c:	1ad3      	subs	r3, r2, r3
 800713e:	2b02      	cmp	r3, #2
 8007140:	d901      	bls.n	8007146 <HAL_RCC_OscConfig+0x1d2>
          {
            return HAL_TIMEOUT;
 8007142:	2303      	movs	r3, #3
 8007144:	e184      	b.n	8007450 <HAL_RCC_OscConfig+0x4dc>
        while(__HAL_RCC_GET_FLAG(RCC_FLAG_HSIRDY) != RESET)
 8007146:	4b36      	ldr	r3, [pc, #216]	; (8007220 <HAL_RCC_OscConfig+0x2ac>)
 8007148:	681b      	ldr	r3, [r3, #0]
 800714a:	f003 0302 	and.w	r3, r3, #2
 800714e:	2b00      	cmp	r3, #0
 8007150:	d1f0      	bne.n	8007134 <HAL_RCC_OscConfig+0x1c0>
        }
      }
    }
  }
  /*------------------------------ LSI Configuration -------------------------*/
  if(((RCC_OscInitStruct->OscillatorType) & RCC_OSCILLATORTYPE_LSI) == RCC_OSCILLATORTYPE_LSI)
 8007152:	687b      	ldr	r3, [r7, #4]
 8007154:	681b      	ldr	r3, [r3, #0]
 8007156:	f003 0308 	and.w	r3, r3, #8
 800715a:	2b00      	cmp	r3, #0
 800715c:	d030      	beq.n	80071c0 <HAL_RCC_OscConfig+0x24c>
  {
    /* Check the parameters */
    assert_param(IS_RCC_LSI(RCC_OscInitStruct->LSIState));

    /* Check the LSI State */
    if((RCC_OscInitStruct->LSIState)!= RCC_LSI_OFF)
 800715e:	687b      	ldr	r3, [r7, #4]
 8007160:	695b      	ldr	r3, [r3, #20]
 8007162:	2b00      	cmp	r3, #0
 8007164:	d016      	beq.n	8007194 <HAL_RCC_OscConfig+0x220>
    {
      /* Enable the Internal Low Speed oscillator (LSI). */
      __HAL_RCC_LSI_ENABLE();
 8007166:	4b30      	ldr	r3, [pc, #192]	; (8007228 <HAL_RCC_OscConfig+0x2b4>)
 8007168:	2201      	movs	r2, #1
 800716a:	601a      	str	r2, [r3, #0]

      /* Get Start Tick*/
      tickstart = HAL_GetTick();
 800716c:	f7fe fd8c 	bl	8005c88 <HAL_GetTick>
 8007170:	6138      	str	r0, [r7, #16]

      /* Wait till LSI is ready */
      while(__HAL_RCC_GET_FLAG(RCC_FLAG_LSIRDY) == RESET)
 8007172:	e008      	b.n	8007186 <HAL_RCC_OscConfig+0x212>
      {
        if((HAL_GetTick() - tickstart ) > LSI_TIMEOUT_VALUE)
 8007174:	f7fe fd88 	bl	8005c88 <HAL_GetTick>
 8007178:	4602      	mov	r2, r0
 800717a:	693b      	ldr	r3, [r7, #16]
 800717c:	1ad3      	subs	r3, r2, r3
 800717e:	2b02      	cmp	r3, #2
 8007180:	d901      	bls.n	8007186 <HAL_RCC_OscConfig+0x212>
        {
          return HAL_TIMEOUT;
 8007182:	2303      	movs	r3, #3
 8007184:	e164      	b.n	8007450 <HAL_RCC_OscConfig+0x4dc>
      while(__HAL_RCC_GET_FLAG(RCC_FLAG_LSIRDY) == RESET)
 8007186:	4b26      	ldr	r3, [pc, #152]	; (8007220 <HAL_RCC_OscConfig+0x2ac>)
 8007188:	6f5b      	ldr	r3, [r3, #116]	; 0x74
 800718a:	f003 0302 	and.w	r3, r3, #2
 800718e:	2b00      	cmp	r3, #0
 8007190:	d0f0      	beq.n	8007174 <HAL_RCC_OscConfig+0x200>
 8007192:	e015      	b.n	80071c0 <HAL_RCC_OscConfig+0x24c>
      }
    }
    else
    {
      /* Disable the Internal Low Speed oscillator (LSI). */
      __HAL_RCC_LSI_DISABLE();
 8007194:	4b24      	ldr	r3, [pc, #144]	; (8007228 <HAL_RCC_OscConfig+0x2b4>)
 8007196:	2200      	movs	r2, #0
 8007198:	601a      	str	r2, [r3, #0]

      /* Get Start Tick */
      tickstart = HAL_GetTick();
 800719a:	f7fe fd75 	bl	8005c88 <HAL_GetTick>
 800719e:	6138      	str	r0, [r7, #16]

      /* Wait till LSI is ready */
      while(__HAL_RCC_GET_FLAG(RCC_FLAG_LSIRDY) != RESET)
 80071a0:	e008      	b.n	80071b4 <HAL_RCC_OscConfig+0x240>
      {
        if((HAL_GetTick() - tickstart ) > LSI_TIMEOUT_VALUE)
 80071a2:	f7fe fd71 	bl	8005c88 <HAL_GetTick>
 80071a6:	4602      	mov	r2, r0
 80071a8:	693b      	ldr	r3, [r7, #16]
 80071aa:	1ad3      	subs	r3, r2, r3
 80071ac:	2b02      	cmp	r3, #2
 80071ae:	d901      	bls.n	80071b4 <HAL_RCC_OscConfig+0x240>
        {
          return HAL_TIMEOUT;
 80071b0:	2303      	movs	r3, #3
 80071b2:	e14d      	b.n	8007450 <HAL_RCC_OscConfig+0x4dc>
      while(__HAL_RCC_GET_FLAG(RCC_FLAG_LSIRDY) != RESET)
 80071b4:	4b1a      	ldr	r3, [pc, #104]	; (8007220 <HAL_RCC_OscConfig+0x2ac>)
 80071b6:	6f5b      	ldr	r3, [r3, #116]	; 0x74
 80071b8:	f003 0302 	and.w	r3, r3, #2
 80071bc:	2b00      	cmp	r3, #0
 80071be:	d1f0      	bne.n	80071a2 <HAL_RCC_OscConfig+0x22e>
        }
      }
    }
  }
  /*------------------------------ LSE Configuration -------------------------*/
  if(((RCC_OscInitStruct->OscillatorType) & RCC_OSCILLATORTYPE_LSE) == RCC_OSCILLATORTYPE_LSE)
 80071c0:	687b      	ldr	r3, [r7, #4]
 80071c2:	681b      	ldr	r3, [r3, #0]
 80071c4:	f003 0304 	and.w	r3, r3, #4
 80071c8:	2b00      	cmp	r3, #0
 80071ca:	f000 80a0 	beq.w	800730e <HAL_RCC_OscConfig+0x39a>
  {
    FlagStatus       pwrclkchanged = RESET;
 80071ce:	2300      	movs	r3, #0
 80071d0:	75fb      	strb	r3, [r7, #23]
    /* Check the parameters */
    assert_param(IS_RCC_LSE(RCC_OscInitStruct->LSEState));

    /* Update LSE configuration in Backup Domain control register    */
    /* Requires to enable write access to Backup Domain of necessary */
    if(__HAL_RCC_PWR_IS_CLK_DISABLED())
 80071d2:	4b13      	ldr	r3, [pc, #76]	; (8007220 <HAL_RCC_OscConfig+0x2ac>)
 80071d4:	6c1b      	ldr	r3, [r3, #64]	; 0x40
 80071d6:	f003 5380 	and.w	r3, r3, #268435456	; 0x10000000
 80071da:	2b00      	cmp	r3, #0
 80071dc:	d10f      	bne.n	80071fe <HAL_RCC_OscConfig+0x28a>
    {
      __HAL_RCC_PWR_CLK_ENABLE();
 80071de:	2300      	movs	r3, #0
 80071e0:	60bb      	str	r3, [r7, #8]
 80071e2:	4b0f      	ldr	r3, [pc, #60]	; (8007220 <HAL_RCC_OscConfig+0x2ac>)
 80071e4:	6c1b      	ldr	r3, [r3, #64]	; 0x40
 80071e6:	4a0e      	ldr	r2, [pc, #56]	; (8007220 <HAL_RCC_OscConfig+0x2ac>)
 80071e8:	f043 5380 	orr.w	r3, r3, #268435456	; 0x10000000
 80071ec:	6413      	str	r3, [r2, #64]	; 0x40
 80071ee:	4b0c      	ldr	r3, [pc, #48]	; (8007220 <HAL_RCC_OscConfig+0x2ac>)
 80071f0:	6c1b      	ldr	r3, [r3, #64]	; 0x40
 80071f2:	f003 5380 	and.w	r3, r3, #268435456	; 0x10000000
 80071f6:	60bb      	str	r3, [r7, #8]
 80071f8:	68bb      	ldr	r3, [r7, #8]
      pwrclkchanged = SET;
 80071fa:	2301      	movs	r3, #1
 80071fc:	75fb      	strb	r3, [r7, #23]
    }

    if(HAL_IS_BIT_CLR(PWR->CR, PWR_CR_DBP))
 80071fe:	4b0b      	ldr	r3, [pc, #44]	; (800722c <HAL_RCC_OscConfig+0x2b8>)
 8007200:	681b      	ldr	r3, [r3, #0]
 8007202:	f403 7380 	and.w	r3, r3, #256	; 0x100
 8007206:	2b00      	cmp	r3, #0
 8007208:	d121      	bne.n	800724e <HAL_RCC_OscConfig+0x2da>
    {
      /* Enable write access to Backup domain */
      SET_BIT(PWR->CR, PWR_CR_DBP);
 800720a:	4b08      	ldr	r3, [pc, #32]	; (800722c <HAL_RCC_OscConfig+0x2b8>)
 800720c:	681b      	ldr	r3, [r3, #0]
 800720e:	4a07      	ldr	r2, [pc, #28]	; (800722c <HAL_RCC_OscConfig+0x2b8>)
 8007210:	f443 7380 	orr.w	r3, r3, #256	; 0x100
 8007214:	6013      	str	r3, [r2, #0]

      /* Wait for Backup domain Write protection disable */
      tickstart = HAL_GetTick();
 8007216:	f7fe fd37 	bl	8005c88 <HAL_GetTick>
 800721a:	6138      	str	r0, [r7, #16]

      while(HAL_IS_BIT_CLR(PWR->CR, PWR_CR_DBP))
 800721c:	e011      	b.n	8007242 <HAL_RCC_OscConfig+0x2ce>
 800721e:	bf00      	nop
 8007220:	40023800 	.word	0x40023800
 8007224:	42470000 	.word	0x42470000
 8007228:	42470e80 	.word	0x42470e80
 800722c:	40007000 	.word	0x40007000
      {
        if((HAL_GetTick() - tickstart) > RCC_DBP_TIMEOUT_VALUE)
 8007230:	f7fe fd2a 	bl	8005c88 <HAL_GetTick>
 8007234:	4602      	mov	r2, r0
 8007236:	693b      	ldr	r3, [r7, #16]
 8007238:	1ad3      	subs	r3, r2, r3
 800723a:	2b02      	cmp	r3, #2
 800723c:	d901      	bls.n	8007242 <HAL_RCC_OscConfig+0x2ce>
        {
          return HAL_TIMEOUT;
 800723e:	2303      	movs	r3, #3
 8007240:	e106      	b.n	8007450 <HAL_RCC_OscConfig+0x4dc>
      while(HAL_IS_BIT_CLR(PWR->CR, PWR_CR_DBP))
 8007242:	4b85      	ldr	r3, [pc, #532]	; (8007458 <HAL_RCC_OscConfig+0x4e4>)
 8007244:	681b      	ldr	r3, [r3, #0]
 8007246:	f403 7380 	and.w	r3, r3, #256	; 0x100
 800724a:	2b00      	cmp	r3, #0
 800724c:	d0f0      	beq.n	8007230 <HAL_RCC_OscConfig+0x2bc>
        }
      }
    }

    /* Set the new LSE configuration -----------------------------------------*/
    __HAL_RCC_LSE_CONFIG(RCC_OscInitStruct->LSEState);
 800724e:	687b      	ldr	r3, [r7, #4]
 8007250:	689b      	ldr	r3, [r3, #8]
 8007252:	2b01      	cmp	r3, #1
 8007254:	d106      	bne.n	8007264 <HAL_RCC_OscConfig+0x2f0>
 8007256:	4b81      	ldr	r3, [pc, #516]	; (800745c <HAL_RCC_OscConfig+0x4e8>)
 8007258:	6f1b      	ldr	r3, [r3, #112]	; 0x70
 800725a:	4a80      	ldr	r2, [pc, #512]	; (800745c <HAL_RCC_OscConfig+0x4e8>)
 800725c:	f043 0301 	orr.w	r3, r3, #1
 8007260:	6713      	str	r3, [r2, #112]	; 0x70
 8007262:	e01c      	b.n	800729e <HAL_RCC_OscConfig+0x32a>
 8007264:	687b      	ldr	r3, [r7, #4]
 8007266:	689b      	ldr	r3, [r3, #8]
 8007268:	2b05      	cmp	r3, #5
 800726a:	d10c      	bne.n	8007286 <HAL_RCC_OscConfig+0x312>
 800726c:	4b7b      	ldr	r3, [pc, #492]	; (800745c <HAL_RCC_OscConfig+0x4e8>)
 800726e:	6f1b      	ldr	r3, [r3, #112]	; 0x70
 8007270:	4a7a      	ldr	r2, [pc, #488]	; (800745c <HAL_RCC_OscConfig+0x4e8>)
 8007272:	f043 0304 	orr.w	r3, r3, #4
 8007276:	6713      	str	r3, [r2, #112]	; 0x70
 8007278:	4b78      	ldr	r3, [pc, #480]	; (800745c <HAL_RCC_OscConfig+0x4e8>)
 800727a:	6f1b      	ldr	r3, [r3, #112]	; 0x70
 800727c:	4a77      	ldr	r2, [pc, #476]	; (800745c <HAL_RCC_OscConfig+0x4e8>)
 800727e:	f043 0301 	orr.w	r3, r3, #1
 8007282:	6713      	str	r3, [r2, #112]	; 0x70
 8007284:	e00b      	b.n	800729e <HAL_RCC_OscConfig+0x32a>
 8007286:	4b75      	ldr	r3, [pc, #468]	; (800745c <HAL_RCC_OscConfig+0x4e8>)
 8007288:	6f1b      	ldr	r3, [r3, #112]	; 0x70
 800728a:	4a74      	ldr	r2, [pc, #464]	; (800745c <HAL_RCC_OscConfig+0x4e8>)
 800728c:	f023 0301 	bic.w	r3, r3, #1
 8007290:	6713      	str	r3, [r2, #112]	; 0x70
 8007292:	4b72      	ldr	r3, [pc, #456]	; (800745c <HAL_RCC_OscConfig+0x4e8>)
 8007294:	6f1b      	ldr	r3, [r3, #112]	; 0x70
 8007296:	4a71      	ldr	r2, [pc, #452]	; (800745c <HAL_RCC_OscConfig+0x4e8>)
 8007298:	f023 0304 	bic.w	r3, r3, #4
 800729c:	6713      	str	r3, [r2, #112]	; 0x70
    /* Check the LSE State */
    if((RCC_OscInitStruct->LSEState) != RCC_LSE_OFF)
 800729e:	687b      	ldr	r3, [r7, #4]
 80072a0:	689b      	ldr	r3, [r3, #8]
 80072a2:	2b00      	cmp	r3, #0
 80072a4:	d015      	beq.n	80072d2 <HAL_RCC_OscConfig+0x35e>
    {
      /* Get Start Tick*/
      tickstart = HAL_GetTick();
 80072a6:	f7fe fcef 	bl	8005c88 <HAL_GetTick>
 80072aa:	6138      	str	r0, [r7, #16]

      /* Wait till LSE is ready */
      while(__HAL_RCC_GET_FLAG(RCC_FLAG_LSERDY) == RESET)
 80072ac:	e00a      	b.n	80072c4 <HAL_RCC_OscConfig+0x350>
      {
        if((HAL_GetTick() - tickstart ) > RCC_LSE_TIMEOUT_VALUE)
 80072ae:	f7fe fceb 	bl	8005c88 <HAL_GetTick>
 80072b2:	4602      	mov	r2, r0
 80072b4:	693b      	ldr	r3, [r7, #16]
 80072b6:	1ad3      	subs	r3, r2, r3
 80072b8:	f241 3288 	movw	r2, #5000	; 0x1388
 80072bc:	4293      	cmp	r3, r2
 80072be:	d901      	bls.n	80072c4 <HAL_RCC_OscConfig+0x350>
        {
          return HAL_TIMEOUT;
 80072c0:	2303      	movs	r3, #3
 80072c2:	e0c5      	b.n	8007450 <HAL_RCC_OscConfig+0x4dc>
      while(__HAL_RCC_GET_FLAG(RCC_FLAG_LSERDY) == RESET)
 80072c4:	4b65      	ldr	r3, [pc, #404]	; (800745c <HAL_RCC_OscConfig+0x4e8>)
 80072c6:	6f1b      	ldr	r3, [r3, #112]	; 0x70
 80072c8:	f003 0302 	and.w	r3, r3, #2
 80072cc:	2b00      	cmp	r3, #0
 80072ce:	d0ee      	beq.n	80072ae <HAL_RCC_OscConfig+0x33a>
 80072d0:	e014      	b.n	80072fc <HAL_RCC_OscConfig+0x388>
      }
    }
    else
    {
      /* Get Start Tick */
      tickstart = HAL_GetTick();
 80072d2:	f7fe fcd9 	bl	8005c88 <HAL_GetTick>
 80072d6:	6138      	str	r0, [r7, #16]

      /* Wait till LSE is ready */
      while(__HAL_RCC_GET_FLAG(RCC_FLAG_LSERDY) != RESET)
 80072d8:	e00a      	b.n	80072f0 <HAL_RCC_OscConfig+0x37c>
      {
        if((HAL_GetTick() - tickstart ) > RCC_LSE_TIMEOUT_VALUE)
 80072da:	f7fe fcd5 	bl	8005c88 <HAL_GetTick>
 80072de:	4602      	mov	r2, r0
 80072e0:	693b      	ldr	r3, [r7, #16]
 80072e2:	1ad3      	subs	r3, r2, r3
 80072e4:	f241 3288 	movw	r2, #5000	; 0x1388
 80072e8:	4293      	cmp	r3, r2
 80072ea:	d901      	bls.n	80072f0 <HAL_RCC_OscConfig+0x37c>
        {
          return HAL_TIMEOUT;
 80072ec:	2303      	movs	r3, #3
 80072ee:	e0af      	b.n	8007450 <HAL_RCC_OscConfig+0x4dc>
      while(__HAL_RCC_GET_FLAG(RCC_FLAG_LSERDY) != RESET)
 80072f0:	4b5a      	ldr	r3, [pc, #360]	; (800745c <HAL_RCC_OscConfig+0x4e8>)
 80072f2:	6f1b      	ldr	r3, [r3, #112]	; 0x70
 80072f4:	f003 0302 	and.w	r3, r3, #2
 80072f8:	2b00      	cmp	r3, #0
 80072fa:	d1ee      	bne.n	80072da <HAL_RCC_OscConfig+0x366>
        }
      }
    }

    /* Restore clock configuration if changed */
    if(pwrclkchanged == SET)
 80072fc:	7dfb      	ldrb	r3, [r7, #23]
 80072fe:	2b01      	cmp	r3, #1
 8007300:	d105      	bne.n	800730e <HAL_RCC_OscConfig+0x39a>
    {
      __HAL_RCC_PWR_CLK_DISABLE();
 8007302:	4b56      	ldr	r3, [pc, #344]	; (800745c <HAL_RCC_OscConfig+0x4e8>)
 8007304:	6c1b      	ldr	r3, [r3, #64]	; 0x40
 8007306:	4a55      	ldr	r2, [pc, #340]	; (800745c <HAL_RCC_OscConfig+0x4e8>)
 8007308:	f023 5380 	bic.w	r3, r3, #268435456	; 0x10000000
 800730c:	6413      	str	r3, [r2, #64]	; 0x40
    }
  }
  /*-------------------------------- PLL Configuration -----------------------*/
  /* Check the parameters */
  assert_param(IS_RCC_PLL(RCC_OscInitStruct->PLL.PLLState));
  if ((RCC_OscInitStruct->PLL.PLLState) != RCC_PLL_NONE)
 800730e:	687b      	ldr	r3, [r7, #4]
 8007310:	699b      	ldr	r3, [r3, #24]
 8007312:	2b00      	cmp	r3, #0
 8007314:	f000 809b 	beq.w	800744e <HAL_RCC_OscConfig+0x4da>
  {
    /* Check if the PLL is used as system clock or not */
    if(__HAL_RCC_GET_SYSCLK_SOURCE() != RCC_CFGR_SWS_PLL)
 8007318:	4b50      	ldr	r3, [pc, #320]	; (800745c <HAL_RCC_OscConfig+0x4e8>)
 800731a:	689b      	ldr	r3, [r3, #8]
 800731c:	f003 030c 	and.w	r3, r3, #12
 8007320:	2b08      	cmp	r3, #8
 8007322:	d05c      	beq.n	80073de <HAL_RCC_OscConfig+0x46a>
    {
      if((RCC_OscInitStruct->PLL.PLLState) == RCC_PLL_ON)
 8007324:	687b      	ldr	r3, [r7, #4]
 8007326:	699b      	ldr	r3, [r3, #24]
 8007328:	2b02      	cmp	r3, #2
 800732a:	d141      	bne.n	80073b0 <HAL_RCC_OscConfig+0x43c>
        assert_param(IS_RCC_PLLN_VALUE(RCC_OscInitStruct->PLL.PLLN));
        assert_param(IS_RCC_PLLP_VALUE(RCC_OscInitStruct->PLL.PLLP));
        assert_param(IS_RCC_PLLQ_VALUE(RCC_OscInitStruct->PLL.PLLQ));

        /* Disable the main PLL. */
        __HAL_RCC_PLL_DISABLE();
 800732c:	4b4c      	ldr	r3, [pc, #304]	; (8007460 <HAL_RCC_OscConfig+0x4ec>)
 800732e:	2200      	movs	r2, #0
 8007330:	601a      	str	r2, [r3, #0]

        /* Get Start Tick */
        tickstart = HAL_GetTick();
 8007332:	f7fe fca9 	bl	8005c88 <HAL_GetTick>
 8007336:	6138      	str	r0, [r7, #16]

        /* Wait till PLL is ready */
        while(__HAL_RCC_GET_FLAG(RCC_FLAG_PLLRDY) != RESET)
 8007338:	e008      	b.n	800734c <HAL_RCC_OscConfig+0x3d8>
        {
          if((HAL_GetTick() - tickstart ) > PLL_TIMEOUT_VALUE)
 800733a:	f7fe fca5 	bl	8005c88 <HAL_GetTick>
 800733e:	4602      	mov	r2, r0
 8007340:	693b      	ldr	r3, [r7, #16]
 8007342:	1ad3      	subs	r3, r2, r3
 8007344:	2b02      	cmp	r3, #2
 8007346:	d901      	bls.n	800734c <HAL_RCC_OscConfig+0x3d8>
          {
            return HAL_TIMEOUT;
 8007348:	2303      	movs	r3, #3
 800734a:	e081      	b.n	8007450 <HAL_RCC_OscConfig+0x4dc>
        while(__HAL_RCC_GET_FLAG(RCC_FLAG_PLLRDY) != RESET)
 800734c:	4b43      	ldr	r3, [pc, #268]	; (800745c <HAL_RCC_OscConfig+0x4e8>)
 800734e:	681b      	ldr	r3, [r3, #0]
 8007350:	f003 7300 	and.w	r3, r3, #33554432	; 0x2000000
 8007354:	2b00      	cmp	r3, #0
 8007356:	d1f0      	bne.n	800733a <HAL_RCC_OscConfig+0x3c6>
          }
        }

        /* Configure the main PLL clock source, multiplication and division factors. */
        WRITE_REG(RCC->PLLCFGR, (RCC_OscInitStruct->PLL.PLLSource                                            | \
 8007358:	687b      	ldr	r3, [r7, #4]
 800735a:	69da      	ldr	r2, [r3, #28]
 800735c:	687b      	ldr	r3, [r7, #4]
 800735e:	6a1b      	ldr	r3, [r3, #32]
 8007360:	431a      	orrs	r2, r3
 8007362:	687b      	ldr	r3, [r7, #4]
 8007364:	6a5b      	ldr	r3, [r3, #36]	; 0x24
 8007366:	019b      	lsls	r3, r3, #6
 8007368:	431a      	orrs	r2, r3
 800736a:	687b      	ldr	r3, [r7, #4]
 800736c:	6a9b      	ldr	r3, [r3, #40]	; 0x28
 800736e:	085b      	lsrs	r3, r3, #1
 8007370:	3b01      	subs	r3, #1
 8007372:	041b      	lsls	r3, r3, #16
 8007374:	431a      	orrs	r2, r3
 8007376:	687b      	ldr	r3, [r7, #4]
 8007378:	6adb      	ldr	r3, [r3, #44]	; 0x2c
 800737a:	061b      	lsls	r3, r3, #24
 800737c:	4937      	ldr	r1, [pc, #220]	; (800745c <HAL_RCC_OscConfig+0x4e8>)
 800737e:	4313      	orrs	r3, r2
 8007380:	604b      	str	r3, [r1, #4]
                                 RCC_OscInitStruct->PLL.PLLM                                                 | \
                                 (RCC_OscInitStruct->PLL.PLLN << RCC_PLLCFGR_PLLN_Pos)             | \
                                 (((RCC_OscInitStruct->PLL.PLLP >> 1U) - 1U) << RCC_PLLCFGR_PLLP_Pos) | \
                                 (RCC_OscInitStruct->PLL.PLLQ << RCC_PLLCFGR_PLLQ_Pos)));
        /* Enable the main PLL. */
        __HAL_RCC_PLL_ENABLE();
 8007382:	4b37      	ldr	r3, [pc, #220]	; (8007460 <HAL_RCC_OscConfig+0x4ec>)
 8007384:	2201      	movs	r2, #1
 8007386:	601a      	str	r2, [r3, #0]

        /* Get Start Tick */
        tickstart = HAL_GetTick();
 8007388:	f7fe fc7e 	bl	8005c88 <HAL_GetTick>
 800738c:	6138      	str	r0, [r7, #16]

        /* Wait till PLL is ready */
        while(__HAL_RCC_GET_FLAG(RCC_FLAG_PLLRDY) == RESET)
 800738e:	e008      	b.n	80073a2 <HAL_RCC_OscConfig+0x42e>
        {
          if((HAL_GetTick() - tickstart ) > PLL_TIMEOUT_VALUE)
 8007390:	f7fe fc7a 	bl	8005c88 <HAL_GetTick>
 8007394:	4602      	mov	r2, r0
 8007396:	693b      	ldr	r3, [r7, #16]
 8007398:	1ad3      	subs	r3, r2, r3
 800739a:	2b02      	cmp	r3, #2
 800739c:	d901      	bls.n	80073a2 <HAL_RCC_OscConfig+0x42e>
          {
            return HAL_TIMEOUT;
 800739e:	2303      	movs	r3, #3
 80073a0:	e056      	b.n	8007450 <HAL_RCC_OscConfig+0x4dc>
        while(__HAL_RCC_GET_FLAG(RCC_FLAG_PLLRDY) == RESET)
 80073a2:	4b2e      	ldr	r3, [pc, #184]	; (800745c <HAL_RCC_OscConfig+0x4e8>)
 80073a4:	681b      	ldr	r3, [r3, #0]
 80073a6:	f003 7300 	and.w	r3, r3, #33554432	; 0x2000000
 80073aa:	2b00      	cmp	r3, #0
 80073ac:	d0f0      	beq.n	8007390 <HAL_RCC_OscConfig+0x41c>
 80073ae:	e04e      	b.n	800744e <HAL_RCC_OscConfig+0x4da>
        }
      }
      else
      {
        /* Disable the main PLL. */
        __HAL_RCC_PLL_DISABLE();
 80073b0:	4b2b      	ldr	r3, [pc, #172]	; (8007460 <HAL_RCC_OscConfig+0x4ec>)
 80073b2:	2200      	movs	r2, #0
 80073b4:	601a      	str	r2, [r3, #0]

        /* Get Start Tick */
        tickstart = HAL_GetTick();
 80073b6:	f7fe fc67 	bl	8005c88 <HAL_GetTick>
 80073ba:	6138      	str	r0, [r7, #16]

        /* Wait till PLL is ready */
        while(__HAL_RCC_GET_FLAG(RCC_FLAG_PLLRDY) != RESET)
 80073bc:	e008      	b.n	80073d0 <HAL_RCC_OscConfig+0x45c>
        {
          if((HAL_GetTick() - tickstart ) > PLL_TIMEOUT_VALUE)
 80073be:	f7fe fc63 	bl	8005c88 <HAL_GetTick>
 80073c2:	4602      	mov	r2, r0
 80073c4:	693b      	ldr	r3, [r7, #16]
 80073c6:	1ad3      	subs	r3, r2, r3
 80073c8:	2b02      	cmp	r3, #2
 80073ca:	d901      	bls.n	80073d0 <HAL_RCC_OscConfig+0x45c>
          {
            return HAL_TIMEOUT;
 80073cc:	2303      	movs	r3, #3
 80073ce:	e03f      	b.n	8007450 <HAL_RCC_OscConfig+0x4dc>
        while(__HAL_RCC_GET_FLAG(RCC_FLAG_PLLRDY) != RESET)
 80073d0:	4b22      	ldr	r3, [pc, #136]	; (800745c <HAL_RCC_OscConfig+0x4e8>)
 80073d2:	681b      	ldr	r3, [r3, #0]
 80073d4:	f003 7300 	and.w	r3, r3, #33554432	; 0x2000000
 80073d8:	2b00      	cmp	r3, #0
 80073da:	d1f0      	bne.n	80073be <HAL_RCC_OscConfig+0x44a>
 80073dc:	e037      	b.n	800744e <HAL_RCC_OscConfig+0x4da>
      }
    }
    else
    {
      /* Check if there is a request to disable the PLL used as System clock source */
      if((RCC_OscInitStruct->PLL.PLLState) == RCC_PLL_OFF)
 80073de:	687b      	ldr	r3, [r7, #4]
 80073e0:	699b      	ldr	r3, [r3, #24]
 80073e2:	2b01      	cmp	r3, #1
 80073e4:	d101      	bne.n	80073ea <HAL_RCC_OscConfig+0x476>
      {
        return HAL_ERROR;
 80073e6:	2301      	movs	r3, #1
 80073e8:	e032      	b.n	8007450 <HAL_RCC_OscConfig+0x4dc>
      }
      else
      {
        /* Do not return HAL_ERROR if request repeats the current configuration */
        pll_config = RCC->PLLCFGR;
 80073ea:	4b1c      	ldr	r3, [pc, #112]	; (800745c <HAL_RCC_OscConfig+0x4e8>)
 80073ec:	685b      	ldr	r3, [r3, #4]
 80073ee:	60fb      	str	r3, [r7, #12]
            (READ_BIT(pll_config, RCC_PLLCFGR_PLLN) != (RCC_OscInitStruct->PLL.PLLN) << RCC_PLLCFGR_PLLN_Pos) ||
            (READ_BIT(pll_config, RCC_PLLCFGR_PLLP) != (((RCC_OscInitStruct->PLL.PLLP >> 1U) - 1U)) << RCC_PLLCFGR_PLLP_Pos) ||
            (READ_BIT(pll_config, RCC_PLLCFGR_PLLQ) != (RCC_OscInitStruct->PLL.PLLQ << RCC_PLLCFGR_PLLQ_Pos)) ||
            (READ_BIT(pll_config, RCC_PLLCFGR_PLLR) != (RCC_OscInitStruct->PLL.PLLR << RCC_PLLCFGR_PLLR_Pos)))
#else
        if (((RCC_OscInitStruct->PLL.PLLState) == RCC_PLL_OFF) ||
 80073f0:	687b      	ldr	r3, [r7, #4]
 80073f2:	699b      	ldr	r3, [r3, #24]
 80073f4:	2b01      	cmp	r3, #1
 80073f6:	d028      	beq.n	800744a <HAL_RCC_OscConfig+0x4d6>
            (READ_BIT(pll_config, RCC_PLLCFGR_PLLSRC) != RCC_OscInitStruct->PLL.PLLSource) ||
 80073f8:	68fb      	ldr	r3, [r7, #12]
 80073fa:	f403 0280 	and.w	r2, r3, #4194304	; 0x400000
 80073fe:	687b      	ldr	r3, [r7, #4]
 8007400:	69db      	ldr	r3, [r3, #28]
        if (((RCC_OscInitStruct->PLL.PLLState) == RCC_PLL_OFF) ||
 8007402:	429a      	cmp	r2, r3
 8007404:	d121      	bne.n	800744a <HAL_RCC_OscConfig+0x4d6>
            (READ_BIT(pll_config, RCC_PLLCFGR_PLLM) != (RCC_OscInitStruct->PLL.PLLM) << RCC_PLLCFGR_PLLM_Pos) ||
 8007406:	68fb      	ldr	r3, [r7, #12]
 8007408:	f003 023f 	and.w	r2, r3, #63	; 0x3f
 800740c:	687b      	ldr	r3, [r7, #4]
 800740e:	6a1b      	ldr	r3, [r3, #32]
            (READ_BIT(pll_config, RCC_PLLCFGR_PLLSRC) != RCC_OscInitStruct->PLL.PLLSource) ||
 8007410:	429a      	cmp	r2, r3
 8007412:	d11a      	bne.n	800744a <HAL_RCC_OscConfig+0x4d6>
            (READ_BIT(pll_config, RCC_PLLCFGR_PLLN) != (RCC_OscInitStruct->PLL.PLLN) << RCC_PLLCFGR_PLLN_Pos) ||
 8007414:	68fa      	ldr	r2, [r7, #12]
 8007416:	f647 73c0 	movw	r3, #32704	; 0x7fc0
 800741a:	4013      	ands	r3, r2
 800741c:	687a      	ldr	r2, [r7, #4]
 800741e:	6a52      	ldr	r2, [r2, #36]	; 0x24
 8007420:	0192      	lsls	r2, r2, #6
            (READ_BIT(pll_config, RCC_PLLCFGR_PLLM) != (RCC_OscInitStruct->PLL.PLLM) << RCC_PLLCFGR_PLLM_Pos) ||
 8007422:	4293      	cmp	r3, r2
 8007424:	d111      	bne.n	800744a <HAL_RCC_OscConfig+0x4d6>
            (READ_BIT(pll_config, RCC_PLLCFGR_PLLP) != (((RCC_OscInitStruct->PLL.PLLP >> 1U) - 1U)) << RCC_PLLCFGR_PLLP_Pos) ||
 8007426:	68fb      	ldr	r3, [r7, #12]
 8007428:	f403 3240 	and.w	r2, r3, #196608	; 0x30000
 800742c:	687b      	ldr	r3, [r7, #4]
 800742e:	6a9b      	ldr	r3, [r3, #40]	; 0x28
 8007430:	085b      	lsrs	r3, r3, #1
 8007432:	3b01      	subs	r3, #1
 8007434:	041b      	lsls	r3, r3, #16
            (READ_BIT(pll_config, RCC_PLLCFGR_PLLN) != (RCC_OscInitStruct->PLL.PLLN) << RCC_PLLCFGR_PLLN_Pos) ||
 8007436:	429a      	cmp	r2, r3
 8007438:	d107      	bne.n	800744a <HAL_RCC_OscConfig+0x4d6>
            (READ_BIT(pll_config, RCC_PLLCFGR_PLLQ) != (RCC_OscInitStruct->PLL.PLLQ << RCC_PLLCFGR_PLLQ_Pos)))
 800743a:	68fb      	ldr	r3, [r7, #12]
 800743c:	f003 6270 	and.w	r2, r3, #251658240	; 0xf000000
 8007440:	687b      	ldr	r3, [r7, #4]
 8007442:	6adb      	ldr	r3, [r3, #44]	; 0x2c
 8007444:	061b      	lsls	r3, r3, #24
            (READ_BIT(pll_config, RCC_PLLCFGR_PLLP) != (((RCC_OscInitStruct->PLL.PLLP >> 1U) - 1U)) << RCC_PLLCFGR_PLLP_Pos) ||
 8007446:	429a      	cmp	r2, r3
 8007448:	d001      	beq.n	800744e <HAL_RCC_OscConfig+0x4da>
#endif
        {
          return HAL_ERROR;
 800744a:	2301      	movs	r3, #1
 800744c:	e000      	b.n	8007450 <HAL_RCC_OscConfig+0x4dc>
        }
      }
    }
  }
  return HAL_OK;
 800744e:	2300      	movs	r3, #0
}
 8007450:	4618      	mov	r0, r3
 8007452:	3718      	adds	r7, #24
 8007454:	46bd      	mov	sp, r7
 8007456:	bd80      	pop	{r7, pc}
 8007458:	40007000 	.word	0x40007000
 800745c:	40023800 	.word	0x40023800
 8007460:	42470060 	.word	0x42470060

08007464 <HAL_RCC_ClockConfig>:
  *         HPRE[3:0] bits to ensure that HCLK not exceed the maximum allowed frequency
  *         (for more details refer to section above "Initialization/de-initialization functions")
  * @retval None
  */
HAL_StatusTypeDef HAL_RCC_ClockConfig(RCC_ClkInitTypeDef  *RCC_ClkInitStruct, uint32_t FLatency)
{
 8007464:	b580      	push	{r7, lr}
 8007466:	b084      	sub	sp, #16
 8007468:	af00      	add	r7, sp, #0
 800746a:	6078      	str	r0, [r7, #4]
 800746c:	6039      	str	r1, [r7, #0]
  uint32_t tickstart;

  /* Check Null pointer */
  if(RCC_ClkInitStruct == NULL)
 800746e:	687b      	ldr	r3, [r7, #4]
 8007470:	2b00      	cmp	r3, #0
 8007472:	d101      	bne.n	8007478 <HAL_RCC_ClockConfig+0x14>
  {
    return HAL_ERROR;
 8007474:	2301      	movs	r3, #1
 8007476:	e0cc      	b.n	8007612 <HAL_RCC_ClockConfig+0x1ae>
  /* To correctly read data from FLASH memory, the number of wait states (LATENCY)
    must be correctly programmed according to the frequency of the CPU clock
    (HCLK) and the supply voltage of the device. */

  /* Increasing the number of wait states because of higher CPU frequency */
  if(FLatency > __HAL_FLASH_GET_LATENCY())
 8007478:	4b68      	ldr	r3, [pc, #416]	; (800761c <HAL_RCC_ClockConfig+0x1b8>)
 800747a:	681b      	ldr	r3, [r3, #0]
 800747c:	f003 0307 	and.w	r3, r3, #7
 8007480:	683a      	ldr	r2, [r7, #0]
 8007482:	429a      	cmp	r2, r3
 8007484:	d90c      	bls.n	80074a0 <HAL_RCC_ClockConfig+0x3c>
  {
    /* Program the new number of wait states to the LATENCY bits in the FLASH_ACR register */
    __HAL_FLASH_SET_LATENCY(FLatency);
 8007486:	4b65      	ldr	r3, [pc, #404]	; (800761c <HAL_RCC_ClockConfig+0x1b8>)
 8007488:	683a      	ldr	r2, [r7, #0]
 800748a:	b2d2      	uxtb	r2, r2
 800748c:	701a      	strb	r2, [r3, #0]

    /* Check that the new number of wait states is taken into account to access the Flash
    memory by reading the FLASH_ACR register */
    if(__HAL_FLASH_GET_LATENCY() != FLatency)
 800748e:	4b63      	ldr	r3, [pc, #396]	; (800761c <HAL_RCC_ClockConfig+0x1b8>)
 8007490:	681b      	ldr	r3, [r3, #0]
 8007492:	f003 0307 	and.w	r3, r3, #7
 8007496:	683a      	ldr	r2, [r7, #0]
 8007498:	429a      	cmp	r2, r3
 800749a:	d001      	beq.n	80074a0 <HAL_RCC_ClockConfig+0x3c>
    {
      return HAL_ERROR;
 800749c:	2301      	movs	r3, #1
 800749e:	e0b8      	b.n	8007612 <HAL_RCC_ClockConfig+0x1ae>
    }
  }

  /*-------------------------- HCLK Configuration --------------------------*/
  if(((RCC_ClkInitStruct->ClockType) & RCC_CLOCKTYPE_HCLK) == RCC_CLOCKTYPE_HCLK)
 80074a0:	687b      	ldr	r3, [r7, #4]
 80074a2:	681b      	ldr	r3, [r3, #0]
 80074a4:	f003 0302 	and.w	r3, r3, #2
 80074a8:	2b00      	cmp	r3, #0
 80074aa:	d020      	beq.n	80074ee <HAL_RCC_ClockConfig+0x8a>
  {
    /* Set the highest APBx dividers in order to ensure that we do not go through
       a non-spec phase whatever we decrease or increase HCLK. */
    if(((RCC_ClkInitStruct->ClockType) & RCC_CLOCKTYPE_PCLK1) == RCC_CLOCKTYPE_PCLK1)
 80074ac:	687b      	ldr	r3, [r7, #4]
 80074ae:	681b      	ldr	r3, [r3, #0]
 80074b0:	f003 0304 	and.w	r3, r3, #4
 80074b4:	2b00      	cmp	r3, #0
 80074b6:	d005      	beq.n	80074c4 <HAL_RCC_ClockConfig+0x60>
    {
      MODIFY_REG(RCC->CFGR, RCC_CFGR_PPRE1, RCC_HCLK_DIV16);
 80074b8:	4b59      	ldr	r3, [pc, #356]	; (8007620 <HAL_RCC_ClockConfig+0x1bc>)
 80074ba:	689b      	ldr	r3, [r3, #8]
 80074bc:	4a58      	ldr	r2, [pc, #352]	; (8007620 <HAL_RCC_ClockConfig+0x1bc>)
 80074be:	f443 53e0 	orr.w	r3, r3, #7168	; 0x1c00
 80074c2:	6093      	str	r3, [r2, #8]
    }

    if(((RCC_ClkInitStruct->ClockType) & RCC_CLOCKTYPE_PCLK2) == RCC_CLOCKTYPE_PCLK2)
 80074c4:	687b      	ldr	r3, [r7, #4]
 80074c6:	681b      	ldr	r3, [r3, #0]
 80074c8:	f003 0308 	and.w	r3, r3, #8
 80074cc:	2b00      	cmp	r3, #0
 80074ce:	d005      	beq.n	80074dc <HAL_RCC_ClockConfig+0x78>
    {
      MODIFY_REG(RCC->CFGR, RCC_CFGR_PPRE2, (RCC_HCLK_DIV16 << 3));
 80074d0:	4b53      	ldr	r3, [pc, #332]	; (8007620 <HAL_RCC_ClockConfig+0x1bc>)
 80074d2:	689b      	ldr	r3, [r3, #8]
 80074d4:	4a52      	ldr	r2, [pc, #328]	; (8007620 <HAL_RCC_ClockConfig+0x1bc>)
 80074d6:	f443 4360 	orr.w	r3, r3, #57344	; 0xe000
 80074da:	6093      	str	r3, [r2, #8]
    }

    assert_param(IS_RCC_HCLK(RCC_ClkInitStruct->AHBCLKDivider));
    MODIFY_REG(RCC->CFGR, RCC_CFGR_HPRE, RCC_ClkInitStruct->AHBCLKDivider);
 80074dc:	4b50      	ldr	r3, [pc, #320]	; (8007620 <HAL_RCC_ClockConfig+0x1bc>)
 80074de:	689b      	ldr	r3, [r3, #8]
 80074e0:	f023 02f0 	bic.w	r2, r3, #240	; 0xf0
 80074e4:	687b      	ldr	r3, [r7, #4]
 80074e6:	689b      	ldr	r3, [r3, #8]
 80074e8:	494d      	ldr	r1, [pc, #308]	; (8007620 <HAL_RCC_ClockConfig+0x1bc>)
 80074ea:	4313      	orrs	r3, r2
 80074ec:	608b      	str	r3, [r1, #8]
  }

  /*------------------------- SYSCLK Configuration ---------------------------*/
  if(((RCC_ClkInitStruct->ClockType) & RCC_CLOCKTYPE_SYSCLK) == RCC_CLOCKTYPE_SYSCLK)
 80074ee:	687b      	ldr	r3, [r7, #4]
 80074f0:	681b      	ldr	r3, [r3, #0]
 80074f2:	f003 0301 	and.w	r3, r3, #1
 80074f6:	2b00      	cmp	r3, #0
 80074f8:	d044      	beq.n	8007584 <HAL_RCC_ClockConfig+0x120>
  {
    assert_param(IS_RCC_SYSCLKSOURCE(RCC_ClkInitStruct->SYSCLKSource));

    /* HSE is selected as System Clock Source */
    if(RCC_ClkInitStruct->SYSCLKSource == RCC_SYSCLKSOURCE_HSE)
 80074fa:	687b      	ldr	r3, [r7, #4]
 80074fc:	685b      	ldr	r3, [r3, #4]
 80074fe:	2b01      	cmp	r3, #1
 8007500:	d107      	bne.n	8007512 <HAL_RCC_ClockConfig+0xae>
    {
      /* Check the HSE ready flag */
      if(__HAL_RCC_GET_FLAG(RCC_FLAG_HSERDY) == RESET)
 8007502:	4b47      	ldr	r3, [pc, #284]	; (8007620 <HAL_RCC_ClockConfig+0x1bc>)
 8007504:	681b      	ldr	r3, [r3, #0]
 8007506:	f403 3300 	and.w	r3, r3, #131072	; 0x20000
 800750a:	2b00      	cmp	r3, #0
 800750c:	d119      	bne.n	8007542 <HAL_RCC_ClockConfig+0xde>
      {
        return HAL_ERROR;
 800750e:	2301      	movs	r3, #1
 8007510:	e07f      	b.n	8007612 <HAL_RCC_ClockConfig+0x1ae>
      }
    }
    /* PLL is selected as System Clock Source */
    else if((RCC_ClkInitStruct->SYSCLKSource == RCC_SYSCLKSOURCE_PLLCLK)   ||
 8007512:	687b      	ldr	r3, [r7, #4]
 8007514:	685b      	ldr	r3, [r3, #4]
 8007516:	2b02      	cmp	r3, #2
 8007518:	d003      	beq.n	8007522 <HAL_RCC_ClockConfig+0xbe>
            (RCC_ClkInitStruct->SYSCLKSource == RCC_SYSCLKSOURCE_PLLRCLK))
 800751a:	687b      	ldr	r3, [r7, #4]
 800751c:	685b      	ldr	r3, [r3, #4]
    else if((RCC_ClkInitStruct->SYSCLKSource == RCC_SYSCLKSOURCE_PLLCLK)   ||
 800751e:	2b03      	cmp	r3, #3
 8007520:	d107      	bne.n	8007532 <HAL_RCC_ClockConfig+0xce>
    {
      /* Check the PLL ready flag */
      if(__HAL_RCC_GET_FLAG(RCC_FLAG_PLLRDY) == RESET)
 8007522:	4b3f      	ldr	r3, [pc, #252]	; (8007620 <HAL_RCC_ClockConfig+0x1bc>)
 8007524:	681b      	ldr	r3, [r3, #0]
 8007526:	f003 7300 	and.w	r3, r3, #33554432	; 0x2000000
 800752a:	2b00      	cmp	r3, #0
 800752c:	d109      	bne.n	8007542 <HAL_RCC_ClockConfig+0xde>
      {
        return HAL_ERROR;
 800752e:	2301      	movs	r3, #1
 8007530:	e06f      	b.n	8007612 <HAL_RCC_ClockConfig+0x1ae>
    }
    /* HSI is selected as System Clock Source */
    else
    {
      /* Check the HSI ready flag */
      if(__HAL_RCC_GET_FLAG(RCC_FLAG_HSIRDY) == RESET)
 8007532:	4b3b      	ldr	r3, [pc, #236]	; (8007620 <HAL_RCC_ClockConfig+0x1bc>)
 8007534:	681b      	ldr	r3, [r3, #0]
 8007536:	f003 0302 	and.w	r3, r3, #2
 800753a:	2b00      	cmp	r3, #0
 800753c:	d101      	bne.n	8007542 <HAL_RCC_ClockConfig+0xde>
      {
        return HAL_ERROR;
 800753e:	2301      	movs	r3, #1
 8007540:	e067      	b.n	8007612 <HAL_RCC_ClockConfig+0x1ae>
      }
    }

    __HAL_RCC_SYSCLK_CONFIG(RCC_ClkInitStruct->SYSCLKSource);
 8007542:	4b37      	ldr	r3, [pc, #220]	; (8007620 <HAL_RCC_ClockConfig+0x1bc>)
 8007544:	689b      	ldr	r3, [r3, #8]
 8007546:	f023 0203 	bic.w	r2, r3, #3
 800754a:	687b      	ldr	r3, [r7, #4]
 800754c:	685b      	ldr	r3, [r3, #4]
 800754e:	4934      	ldr	r1, [pc, #208]	; (8007620 <HAL_RCC_ClockConfig+0x1bc>)
 8007550:	4313      	orrs	r3, r2
 8007552:	608b      	str	r3, [r1, #8]

    /* Get Start Tick */
    tickstart = HAL_GetTick();
 8007554:	f7fe fb98 	bl	8005c88 <HAL_GetTick>
 8007558:	60f8      	str	r0, [r7, #12]

    while (__HAL_RCC_GET_SYSCLK_SOURCE() != (RCC_ClkInitStruct->SYSCLKSource << RCC_CFGR_SWS_Pos))
 800755a:	e00a      	b.n	8007572 <HAL_RCC_ClockConfig+0x10e>
    {
      if ((HAL_GetTick() - tickstart) > CLOCKSWITCH_TIMEOUT_VALUE)
 800755c:	f7fe fb94 	bl	8005c88 <HAL_GetTick>
 8007560:	4602      	mov	r2, r0
 8007562:	68fb      	ldr	r3, [r7, #12]
 8007564:	1ad3      	subs	r3, r2, r3
 8007566:	f241 3288 	movw	r2, #5000	; 0x1388
 800756a:	4293      	cmp	r3, r2
 800756c:	d901      	bls.n	8007572 <HAL_RCC_ClockConfig+0x10e>
      {
        return HAL_TIMEOUT;
 800756e:	2303      	movs	r3, #3
 8007570:	e04f      	b.n	8007612 <HAL_RCC_ClockConfig+0x1ae>
    while (__HAL_RCC_GET_SYSCLK_SOURCE() != (RCC_ClkInitStruct->SYSCLKSource << RCC_CFGR_SWS_Pos))
 8007572:	4b2b      	ldr	r3, [pc, #172]	; (8007620 <HAL_RCC_ClockConfig+0x1bc>)
 8007574:	689b      	ldr	r3, [r3, #8]
 8007576:	f003 020c 	and.w	r2, r3, #12
 800757a:	687b      	ldr	r3, [r7, #4]
 800757c:	685b      	ldr	r3, [r3, #4]
 800757e:	009b      	lsls	r3, r3, #2
 8007580:	429a      	cmp	r2, r3
 8007582:	d1eb      	bne.n	800755c <HAL_RCC_ClockConfig+0xf8>
      }
    }
  }

  /* Decreasing the number of wait states because of lower CPU frequency */
  if(FLatency < __HAL_FLASH_GET_LATENCY())
 8007584:	4b25      	ldr	r3, [pc, #148]	; (800761c <HAL_RCC_ClockConfig+0x1b8>)
 8007586:	681b      	ldr	r3, [r3, #0]
 8007588:	f003 0307 	and.w	r3, r3, #7
 800758c:	683a      	ldr	r2, [r7, #0]
 800758e:	429a      	cmp	r2, r3
 8007590:	d20c      	bcs.n	80075ac <HAL_RCC_ClockConfig+0x148>
  {
     /* Program the new number of wait states to the LATENCY bits in the FLASH_ACR register */
    __HAL_FLASH_SET_LATENCY(FLatency);
 8007592:	4b22      	ldr	r3, [pc, #136]	; (800761c <HAL_RCC_ClockConfig+0x1b8>)
 8007594:	683a      	ldr	r2, [r7, #0]
 8007596:	b2d2      	uxtb	r2, r2
 8007598:	701a      	strb	r2, [r3, #0]

    /* Check that the new number of wait states is taken into account to access the Flash
    memory by reading the FLASH_ACR register */
    if(__HAL_FLASH_GET_LATENCY() != FLatency)
 800759a:	4b20      	ldr	r3, [pc, #128]	; (800761c <HAL_RCC_ClockConfig+0x1b8>)
 800759c:	681b      	ldr	r3, [r3, #0]
 800759e:	f003 0307 	and.w	r3, r3, #7
 80075a2:	683a      	ldr	r2, [r7, #0]
 80075a4:	429a      	cmp	r2, r3
 80075a6:	d001      	beq.n	80075ac <HAL_RCC_ClockConfig+0x148>
    {
      return HAL_ERROR;
 80075a8:	2301      	movs	r3, #1
 80075aa:	e032      	b.n	8007612 <HAL_RCC_ClockConfig+0x1ae>
    }
  }

  /*-------------------------- PCLK1 Configuration ---------------------------*/
  if(((RCC_ClkInitStruct->ClockType) & RCC_CLOCKTYPE_PCLK1) == RCC_CLOCKTYPE_PCLK1)
 80075ac:	687b      	ldr	r3, [r7, #4]
 80075ae:	681b      	ldr	r3, [r3, #0]
 80075b0:	f003 0304 	and.w	r3, r3, #4
 80075b4:	2b00      	cmp	r3, #0
 80075b6:	d008      	beq.n	80075ca <HAL_RCC_ClockConfig+0x166>
  {
    assert_param(IS_RCC_PCLK(RCC_ClkInitStruct->APB1CLKDivider));
    MODIFY_REG(RCC->CFGR, RCC_CFGR_PPRE1, RCC_ClkInitStruct->APB1CLKDivider);
 80075b8:	4b19      	ldr	r3, [pc, #100]	; (8007620 <HAL_RCC_ClockConfig+0x1bc>)
 80075ba:	689b      	ldr	r3, [r3, #8]
 80075bc:	f423 52e0 	bic.w	r2, r3, #7168	; 0x1c00
 80075c0:	687b      	ldr	r3, [r7, #4]
 80075c2:	68db      	ldr	r3, [r3, #12]
 80075c4:	4916      	ldr	r1, [pc, #88]	; (8007620 <HAL_RCC_ClockConfig+0x1bc>)
 80075c6:	4313      	orrs	r3, r2
 80075c8:	608b      	str	r3, [r1, #8]
  }

  /*-------------------------- PCLK2 Configuration ---------------------------*/
  if(((RCC_ClkInitStruct->ClockType) & RCC_CLOCKTYPE_PCLK2) == RCC_CLOCKTYPE_PCLK2)
 80075ca:	687b      	ldr	r3, [r7, #4]
 80075cc:	681b      	ldr	r3, [r3, #0]
 80075ce:	f003 0308 	and.w	r3, r3, #8
 80075d2:	2b00      	cmp	r3, #0
 80075d4:	d009      	beq.n	80075ea <HAL_RCC_ClockConfig+0x186>
  {
    assert_param(IS_RCC_PCLK(RCC_ClkInitStruct->APB2CLKDivider));
    MODIFY_REG(RCC->CFGR, RCC_CFGR_PPRE2, ((RCC_ClkInitStruct->APB2CLKDivider) << 3U));
 80075d6:	4b12      	ldr	r3, [pc, #72]	; (8007620 <HAL_RCC_ClockConfig+0x1bc>)
 80075d8:	689b      	ldr	r3, [r3, #8]
 80075da:	f423 4260 	bic.w	r2, r3, #57344	; 0xe000
 80075de:	687b      	ldr	r3, [r7, #4]
 80075e0:	691b      	ldr	r3, [r3, #16]
 80075e2:	00db      	lsls	r3, r3, #3
 80075e4:	490e      	ldr	r1, [pc, #56]	; (8007620 <HAL_RCC_ClockConfig+0x1bc>)
 80075e6:	4313      	orrs	r3, r2
 80075e8:	608b      	str	r3, [r1, #8]
  }

  /* Update the SystemCoreClock global variable */
  SystemCoreClock = HAL_RCC_GetSysClockFreq() >> AHBPrescTable[(RCC->CFGR & RCC_CFGR_HPRE)>> RCC_CFGR_HPRE_Pos];
 80075ea:	f000 f821 	bl	8007630 <HAL_RCC_GetSysClockFreq>
 80075ee:	4602      	mov	r2, r0
 80075f0:	4b0b      	ldr	r3, [pc, #44]	; (8007620 <HAL_RCC_ClockConfig+0x1bc>)
 80075f2:	689b      	ldr	r3, [r3, #8]
 80075f4:	091b      	lsrs	r3, r3, #4
 80075f6:	f003 030f 	and.w	r3, r3, #15
 80075fa:	490a      	ldr	r1, [pc, #40]	; (8007624 <HAL_RCC_ClockConfig+0x1c0>)
 80075fc:	5ccb      	ldrb	r3, [r1, r3]
 80075fe:	fa22 f303 	lsr.w	r3, r2, r3
 8007602:	4a09      	ldr	r2, [pc, #36]	; (8007628 <HAL_RCC_ClockConfig+0x1c4>)
 8007604:	6013      	str	r3, [r2, #0]

  /* Configure the source of time base considering new system clocks settings */
  HAL_InitTick (uwTickPrio);
 8007606:	4b09      	ldr	r3, [pc, #36]	; (800762c <HAL_RCC_ClockConfig+0x1c8>)
 8007608:	681b      	ldr	r3, [r3, #0]
 800760a:	4618      	mov	r0, r3
 800760c:	f7fe faf8 	bl	8005c00 <HAL_InitTick>

  return HAL_OK;
 8007610:	2300      	movs	r3, #0
}
 8007612:	4618      	mov	r0, r3
 8007614:	3710      	adds	r7, #16
 8007616:	46bd      	mov	sp, r7
 8007618:	bd80      	pop	{r7, pc}
 800761a:	bf00      	nop
 800761c:	40023c00 	.word	0x40023c00
 8007620:	40023800 	.word	0x40023800
 8007624:	0800b2c0 	.word	0x0800b2c0
 8007628:	20000030 	.word	0x20000030
 800762c:	20000034 	.word	0x20000034

08007630 <HAL_RCC_GetSysClockFreq>:
  *
  *
  * @retval SYSCLK frequency
  */
__weak uint32_t HAL_RCC_GetSysClockFreq(void)
{
 8007630:	e92d 43b0 	stmdb	sp!, {r4, r5, r7, r8, r9, lr}
 8007634:	b084      	sub	sp, #16
 8007636:	af00      	add	r7, sp, #0
  uint32_t pllm = 0U, pllvco = 0U, pllp = 0U;
 8007638:	2300      	movs	r3, #0
 800763a:	607b      	str	r3, [r7, #4]
 800763c:	2300      	movs	r3, #0
 800763e:	60fb      	str	r3, [r7, #12]
 8007640:	2300      	movs	r3, #0
 8007642:	603b      	str	r3, [r7, #0]
  uint32_t sysclockfreq = 0U;
 8007644:	2300      	movs	r3, #0
 8007646:	60bb      	str	r3, [r7, #8]

  /* Get SYSCLK source -------------------------------------------------------*/
  switch (RCC->CFGR & RCC_CFGR_SWS)
 8007648:	4b67      	ldr	r3, [pc, #412]	; (80077e8 <HAL_RCC_GetSysClockFreq+0x1b8>)
 800764a:	689b      	ldr	r3, [r3, #8]
 800764c:	f003 030c 	and.w	r3, r3, #12
 8007650:	2b08      	cmp	r3, #8
 8007652:	d00d      	beq.n	8007670 <HAL_RCC_GetSysClockFreq+0x40>
 8007654:	2b08      	cmp	r3, #8
 8007656:	f200 80bd 	bhi.w	80077d4 <HAL_RCC_GetSysClockFreq+0x1a4>
 800765a:	2b00      	cmp	r3, #0
 800765c:	d002      	beq.n	8007664 <HAL_RCC_GetSysClockFreq+0x34>
 800765e:	2b04      	cmp	r3, #4
 8007660:	d003      	beq.n	800766a <HAL_RCC_GetSysClockFreq+0x3a>
 8007662:	e0b7      	b.n	80077d4 <HAL_RCC_GetSysClockFreq+0x1a4>
  {
    case RCC_CFGR_SWS_HSI:  /* HSI used as system clock source */
    {
      sysclockfreq = HSI_VALUE;
 8007664:	4b61      	ldr	r3, [pc, #388]	; (80077ec <HAL_RCC_GetSysClockFreq+0x1bc>)
 8007666:	60bb      	str	r3, [r7, #8]
       break;
 8007668:	e0b7      	b.n	80077da <HAL_RCC_GetSysClockFreq+0x1aa>
    }
    case RCC_CFGR_SWS_HSE:  /* HSE used as system clock  source */
    {
      sysclockfreq = HSE_VALUE;
 800766a:	4b61      	ldr	r3, [pc, #388]	; (80077f0 <HAL_RCC_GetSysClockFreq+0x1c0>)
 800766c:	60bb      	str	r3, [r7, #8]
      break;
 800766e:	e0b4      	b.n	80077da <HAL_RCC_GetSysClockFreq+0x1aa>
    }
    case RCC_CFGR_SWS_PLL:  /* PLL used as system clock  source */
    {
      /* PLL_VCO = (HSE_VALUE or HSI_VALUE / PLLM) * PLLN
      SYSCLK = PLL_VCO / PLLP */
      pllm = RCC->PLLCFGR & RCC_PLLCFGR_PLLM;
 8007670:	4b5d      	ldr	r3, [pc, #372]	; (80077e8 <HAL_RCC_GetSysClockFreq+0x1b8>)
 8007672:	685b      	ldr	r3, [r3, #4]
 8007674:	f003 033f 	and.w	r3, r3, #63	; 0x3f
 8007678:	607b      	str	r3, [r7, #4]
      if(__HAL_RCC_GET_PLL_OSCSOURCE() != RCC_PLLSOURCE_HSI)
 800767a:	4b5b      	ldr	r3, [pc, #364]	; (80077e8 <HAL_RCC_GetSysClockFreq+0x1b8>)
 800767c:	685b      	ldr	r3, [r3, #4]
 800767e:	f403 0380 	and.w	r3, r3, #4194304	; 0x400000
 8007682:	2b00      	cmp	r3, #0
 8007684:	d04d      	beq.n	8007722 <HAL_RCC_GetSysClockFreq+0xf2>
      {
        /* HSE used as PLL clock source */
        pllvco = (uint32_t) ((((uint64_t) HSE_VALUE * ((uint64_t) ((RCC->PLLCFGR & RCC_PLLCFGR_PLLN) >> RCC_PLLCFGR_PLLN_Pos)))) / (uint64_t)pllm);
 8007686:	4b58      	ldr	r3, [pc, #352]	; (80077e8 <HAL_RCC_GetSysClockFreq+0x1b8>)
 8007688:	685b      	ldr	r3, [r3, #4]
 800768a:	099b      	lsrs	r3, r3, #6
 800768c:	461a      	mov	r2, r3
 800768e:	f04f 0300 	mov.w	r3, #0
 8007692:	f240 10ff 	movw	r0, #511	; 0x1ff
 8007696:	f04f 0100 	mov.w	r1, #0
 800769a:	ea02 0800 	and.w	r8, r2, r0
 800769e:	ea03 0901 	and.w	r9, r3, r1
 80076a2:	4640      	mov	r0, r8
 80076a4:	4649      	mov	r1, r9
 80076a6:	f04f 0200 	mov.w	r2, #0
 80076aa:	f04f 0300 	mov.w	r3, #0
 80076ae:	014b      	lsls	r3, r1, #5
 80076b0:	ea43 63d0 	orr.w	r3, r3, r0, lsr #27
 80076b4:	0142      	lsls	r2, r0, #5
 80076b6:	4610      	mov	r0, r2
 80076b8:	4619      	mov	r1, r3
 80076ba:	ebb0 0008 	subs.w	r0, r0, r8
 80076be:	eb61 0109 	sbc.w	r1, r1, r9
 80076c2:	f04f 0200 	mov.w	r2, #0
 80076c6:	f04f 0300 	mov.w	r3, #0
 80076ca:	018b      	lsls	r3, r1, #6
 80076cc:	ea43 6390 	orr.w	r3, r3, r0, lsr #26
 80076d0:	0182      	lsls	r2, r0, #6
 80076d2:	1a12      	subs	r2, r2, r0
 80076d4:	eb63 0301 	sbc.w	r3, r3, r1
 80076d8:	f04f 0000 	mov.w	r0, #0
 80076dc:	f04f 0100 	mov.w	r1, #0
 80076e0:	00d9      	lsls	r1, r3, #3
 80076e2:	ea41 7152 	orr.w	r1, r1, r2, lsr #29
 80076e6:	00d0      	lsls	r0, r2, #3
 80076e8:	4602      	mov	r2, r0
 80076ea:	460b      	mov	r3, r1
 80076ec:	eb12 0208 	adds.w	r2, r2, r8
 80076f0:	eb43 0309 	adc.w	r3, r3, r9
 80076f4:	f04f 0000 	mov.w	r0, #0
 80076f8:	f04f 0100 	mov.w	r1, #0
 80076fc:	0259      	lsls	r1, r3, #9
 80076fe:	ea41 51d2 	orr.w	r1, r1, r2, lsr #23
 8007702:	0250      	lsls	r0, r2, #9
 8007704:	4602      	mov	r2, r0
 8007706:	460b      	mov	r3, r1
 8007708:	4610      	mov	r0, r2
 800770a:	4619      	mov	r1, r3
 800770c:	687b      	ldr	r3, [r7, #4]
 800770e:	461a      	mov	r2, r3
 8007710:	f04f 0300 	mov.w	r3, #0
 8007714:	f7f9 fa26 	bl	8000b64 <__aeabi_uldivmod>
 8007718:	4602      	mov	r2, r0
 800771a:	460b      	mov	r3, r1
 800771c:	4613      	mov	r3, r2
 800771e:	60fb      	str	r3, [r7, #12]
 8007720:	e04a      	b.n	80077b8 <HAL_RCC_GetSysClockFreq+0x188>
      }
      else
      {
        /* HSI used as PLL clock source */
        pllvco = (uint32_t) ((((uint64_t) HSI_VALUE * ((uint64_t) ((RCC->PLLCFGR & RCC_PLLCFGR_PLLN) >> RCC_PLLCFGR_PLLN_Pos)))) / (uint64_t)pllm);
 8007722:	4b31      	ldr	r3, [pc, #196]	; (80077e8 <HAL_RCC_GetSysClockFreq+0x1b8>)
 8007724:	685b      	ldr	r3, [r3, #4]
 8007726:	099b      	lsrs	r3, r3, #6
 8007728:	461a      	mov	r2, r3
 800772a:	f04f 0300 	mov.w	r3, #0
 800772e:	f240 10ff 	movw	r0, #511	; 0x1ff
 8007732:	f04f 0100 	mov.w	r1, #0
 8007736:	ea02 0400 	and.w	r4, r2, r0
 800773a:	ea03 0501 	and.w	r5, r3, r1
 800773e:	4620      	mov	r0, r4
 8007740:	4629      	mov	r1, r5
 8007742:	f04f 0200 	mov.w	r2, #0
 8007746:	f04f 0300 	mov.w	r3, #0
 800774a:	014b      	lsls	r3, r1, #5
 800774c:	ea43 63d0 	orr.w	r3, r3, r0, lsr #27
 8007750:	0142      	lsls	r2, r0, #5
 8007752:	4610      	mov	r0, r2
 8007754:	4619      	mov	r1, r3
 8007756:	1b00      	subs	r0, r0, r4
 8007758:	eb61 0105 	sbc.w	r1, r1, r5
 800775c:	f04f 0200 	mov.w	r2, #0
 8007760:	f04f 0300 	mov.w	r3, #0
 8007764:	018b      	lsls	r3, r1, #6
 8007766:	ea43 6390 	orr.w	r3, r3, r0, lsr #26
 800776a:	0182      	lsls	r2, r0, #6
 800776c:	1a12      	subs	r2, r2, r0
 800776e:	eb63 0301 	sbc.w	r3, r3, r1
 8007772:	f04f 0000 	mov.w	r0, #0
 8007776:	f04f 0100 	mov.w	r1, #0
 800777a:	00d9      	lsls	r1, r3, #3
 800777c:	ea41 7152 	orr.w	r1, r1, r2, lsr #29
 8007780:	00d0      	lsls	r0, r2, #3
 8007782:	4602      	mov	r2, r0
 8007784:	460b      	mov	r3, r1
 8007786:	1912      	adds	r2, r2, r4
 8007788:	eb45 0303 	adc.w	r3, r5, r3
 800778c:	f04f 0000 	mov.w	r0, #0
 8007790:	f04f 0100 	mov.w	r1, #0
 8007794:	0299      	lsls	r1, r3, #10
 8007796:	ea41 5192 	orr.w	r1, r1, r2, lsr #22
 800779a:	0290      	lsls	r0, r2, #10
 800779c:	4602      	mov	r2, r0
 800779e:	460b      	mov	r3, r1
 80077a0:	4610      	mov	r0, r2
 80077a2:	4619      	mov	r1, r3
 80077a4:	687b      	ldr	r3, [r7, #4]
 80077a6:	461a      	mov	r2, r3
 80077a8:	f04f 0300 	mov.w	r3, #0
 80077ac:	f7f9 f9da 	bl	8000b64 <__aeabi_uldivmod>
 80077b0:	4602      	mov	r2, r0
 80077b2:	460b      	mov	r3, r1
 80077b4:	4613      	mov	r3, r2
 80077b6:	60fb      	str	r3, [r7, #12]
      }
      pllp = ((((RCC->PLLCFGR & RCC_PLLCFGR_PLLP) >> RCC_PLLCFGR_PLLP_Pos) + 1U) *2U);
 80077b8:	4b0b      	ldr	r3, [pc, #44]	; (80077e8 <HAL_RCC_GetSysClockFreq+0x1b8>)
 80077ba:	685b      	ldr	r3, [r3, #4]
 80077bc:	0c1b      	lsrs	r3, r3, #16
 80077be:	f003 0303 	and.w	r3, r3, #3
 80077c2:	3301      	adds	r3, #1
 80077c4:	005b      	lsls	r3, r3, #1
 80077c6:	603b      	str	r3, [r7, #0]

      sysclockfreq = pllvco/pllp;
 80077c8:	68fa      	ldr	r2, [r7, #12]
 80077ca:	683b      	ldr	r3, [r7, #0]
 80077cc:	fbb2 f3f3 	udiv	r3, r2, r3
 80077d0:	60bb      	str	r3, [r7, #8]
      break;
 80077d2:	e002      	b.n	80077da <HAL_RCC_GetSysClockFreq+0x1aa>
    }
    default:
    {
      sysclockfreq = HSI_VALUE;
 80077d4:	4b05      	ldr	r3, [pc, #20]	; (80077ec <HAL_RCC_GetSysClockFreq+0x1bc>)
 80077d6:	60bb      	str	r3, [r7, #8]
      break;
 80077d8:	bf00      	nop
    }
  }
  return sysclockfreq;
 80077da:	68bb      	ldr	r3, [r7, #8]
}
 80077dc:	4618      	mov	r0, r3
 80077de:	3710      	adds	r7, #16
 80077e0:	46bd      	mov	sp, r7
 80077e2:	e8bd 83b0 	ldmia.w	sp!, {r4, r5, r7, r8, r9, pc}
 80077e6:	bf00      	nop
 80077e8:	40023800 	.word	0x40023800
 80077ec:	00f42400 	.word	0x00f42400
 80077f0:	007a1200 	.word	0x007a1200

080077f4 <HAL_RCC_GetHCLKFreq>:
  * @note   The SystemCoreClock CMSIS variable is used to store System Clock Frequency
  *         and updated within this function
  * @retval HCLK frequency
  */
uint32_t HAL_RCC_GetHCLKFreq(void)
{
 80077f4:	b480      	push	{r7}
 80077f6:	af00      	add	r7, sp, #0
  return SystemCoreClock;
 80077f8:	4b03      	ldr	r3, [pc, #12]	; (8007808 <HAL_RCC_GetHCLKFreq+0x14>)
 80077fa:	681b      	ldr	r3, [r3, #0]
}
 80077fc:	4618      	mov	r0, r3
 80077fe:	46bd      	mov	sp, r7
 8007800:	f85d 7b04 	ldr.w	r7, [sp], #4
 8007804:	4770      	bx	lr
 8007806:	bf00      	nop
 8007808:	20000030 	.word	0x20000030

0800780c <HAL_RCC_GetPCLK1Freq>:
  * @note   Each time PCLK1 changes, this function must be called to update the
  *         right PCLK1 value. Otherwise, any configuration based on this function will be incorrect.
  * @retval PCLK1 frequency
  */
uint32_t HAL_RCC_GetPCLK1Freq(void)
{
 800780c:	b580      	push	{r7, lr}
 800780e:	af00      	add	r7, sp, #0
  /* Get HCLK source and Compute PCLK1 frequency ---------------------------*/
  return (HAL_RCC_GetHCLKFreq() >> APBPrescTable[(RCC->CFGR & RCC_CFGR_PPRE1)>> RCC_CFGR_PPRE1_Pos]);
 8007810:	f7ff fff0 	bl	80077f4 <HAL_RCC_GetHCLKFreq>
 8007814:	4602      	mov	r2, r0
 8007816:	4b05      	ldr	r3, [pc, #20]	; (800782c <HAL_RCC_GetPCLK1Freq+0x20>)
 8007818:	689b      	ldr	r3, [r3, #8]
 800781a:	0a9b      	lsrs	r3, r3, #10
 800781c:	f003 0307 	and.w	r3, r3, #7
 8007820:	4903      	ldr	r1, [pc, #12]	; (8007830 <HAL_RCC_GetPCLK1Freq+0x24>)
 8007822:	5ccb      	ldrb	r3, [r1, r3]
 8007824:	fa22 f303 	lsr.w	r3, r2, r3
}
 8007828:	4618      	mov	r0, r3
 800782a:	bd80      	pop	{r7, pc}
 800782c:	40023800 	.word	0x40023800
 8007830:	0800b2d0 	.word	0x0800b2d0

08007834 <HAL_RCC_GetPCLK2Freq>:
  * @note   Each time PCLK2 changes, this function must be called to update the
  *         right PCLK2 value. Otherwise, any configuration based on this function will be incorrect.
  * @retval PCLK2 frequency
  */
uint32_t HAL_RCC_GetPCLK2Freq(void)
{
 8007834:	b580      	push	{r7, lr}
 8007836:	af00      	add	r7, sp, #0
  /* Get HCLK source and Compute PCLK2 frequency ---------------------------*/
  return (HAL_RCC_GetHCLKFreq()>> APBPrescTable[(RCC->CFGR & RCC_CFGR_PPRE2)>> RCC_CFGR_PPRE2_Pos]);
 8007838:	f7ff ffdc 	bl	80077f4 <HAL_RCC_GetHCLKFreq>
 800783c:	4602      	mov	r2, r0
 800783e:	4b05      	ldr	r3, [pc, #20]	; (8007854 <HAL_RCC_GetPCLK2Freq+0x20>)
 8007840:	689b      	ldr	r3, [r3, #8]
 8007842:	0b5b      	lsrs	r3, r3, #13
 8007844:	f003 0307 	and.w	r3, r3, #7
 8007848:	4903      	ldr	r1, [pc, #12]	; (8007858 <HAL_RCC_GetPCLK2Freq+0x24>)
 800784a:	5ccb      	ldrb	r3, [r1, r3]
 800784c:	fa22 f303 	lsr.w	r3, r2, r3
}
 8007850:	4618      	mov	r0, r3
 8007852:	bd80      	pop	{r7, pc}
 8007854:	40023800 	.word	0x40023800
 8007858:	0800b2d0 	.word	0x0800b2d0

0800785c <HAL_SPI_Init>:
  * @param  hspi pointer to a SPI_HandleTypeDef structure that contains
  *               the configuration information for SPI module.
  * @retval HAL status
  */
HAL_StatusTypeDef HAL_SPI_Init(SPI_HandleTypeDef *hspi)
{
 800785c:	b580      	push	{r7, lr}
 800785e:	b082      	sub	sp, #8
 8007860:	af00      	add	r7, sp, #0
 8007862:	6078      	str	r0, [r7, #4]
  /* Check the SPI handle allocation */
  if (hspi == NULL)
 8007864:	687b      	ldr	r3, [r7, #4]
 8007866:	2b00      	cmp	r3, #0
 8007868:	d101      	bne.n	800786e <HAL_SPI_Init+0x12>
  {
    return HAL_ERROR;
 800786a:	2301      	movs	r3, #1
 800786c:	e07b      	b.n	8007966 <HAL_SPI_Init+0x10a>
  assert_param(IS_SPI_DATASIZE(hspi->Init.DataSize));
  assert_param(IS_SPI_NSS(hspi->Init.NSS));
  assert_param(IS_SPI_BAUDRATE_PRESCALER(hspi->Init.BaudRatePrescaler));
  assert_param(IS_SPI_FIRST_BIT(hspi->Init.FirstBit));
  assert_param(IS_SPI_TIMODE(hspi->Init.TIMode));
  if (hspi->Init.TIMode == SPI_TIMODE_DISABLE)
 800786e:	687b      	ldr	r3, [r7, #4]
 8007870:	6a5b      	ldr	r3, [r3, #36]	; 0x24
 8007872:	2b00      	cmp	r3, #0
 8007874:	d108      	bne.n	8007888 <HAL_SPI_Init+0x2c>
  {
    assert_param(IS_SPI_CPOL(hspi->Init.CLKPolarity));
    assert_param(IS_SPI_CPHA(hspi->Init.CLKPhase));

    if (hspi->Init.Mode == SPI_MODE_MASTER)
 8007876:	687b      	ldr	r3, [r7, #4]
 8007878:	685b      	ldr	r3, [r3, #4]
 800787a:	f5b3 7f82 	cmp.w	r3, #260	; 0x104
 800787e:	d009      	beq.n	8007894 <HAL_SPI_Init+0x38>
      assert_param(IS_SPI_BAUDRATE_PRESCALER(hspi->Init.BaudRatePrescaler));
    }
    else
    {
      /* Baudrate prescaler not use in Motoraola Slave mode. force to default value */
      hspi->Init.BaudRatePrescaler = SPI_BAUDRATEPRESCALER_2;
 8007880:	687b      	ldr	r3, [r7, #4]
 8007882:	2200      	movs	r2, #0
 8007884:	61da      	str	r2, [r3, #28]
 8007886:	e005      	b.n	8007894 <HAL_SPI_Init+0x38>
  else
  {
    assert_param(IS_SPI_BAUDRATE_PRESCALER(hspi->Init.BaudRatePrescaler));

    /* Force polarity and phase to TI protocaol requirements */
    hspi->Init.CLKPolarity = SPI_POLARITY_LOW;
 8007888:	687b      	ldr	r3, [r7, #4]
 800788a:	2200      	movs	r2, #0
 800788c:	611a      	str	r2, [r3, #16]
    hspi->Init.CLKPhase    = SPI_PHASE_1EDGE;
 800788e:	687b      	ldr	r3, [r7, #4]
 8007890:	2200      	movs	r2, #0
 8007892:	615a      	str	r2, [r3, #20]
  if (hspi->Init.CRCCalculation == SPI_CRCCALCULATION_ENABLE)
  {
    assert_param(IS_SPI_CRC_POLYNOMIAL(hspi->Init.CRCPolynomial));
  }
#else
  hspi->Init.CRCCalculation = SPI_CRCCALCULATION_DISABLE;
 8007894:	687b      	ldr	r3, [r7, #4]
 8007896:	2200      	movs	r2, #0
 8007898:	629a      	str	r2, [r3, #40]	; 0x28
#endif /* USE_SPI_CRC */

  if (hspi->State == HAL_SPI_STATE_RESET)
 800789a:	687b      	ldr	r3, [r7, #4]
 800789c:	f893 3051 	ldrb.w	r3, [r3, #81]	; 0x51
 80078a0:	b2db      	uxtb	r3, r3
 80078a2:	2b00      	cmp	r3, #0
 80078a4:	d106      	bne.n	80078b4 <HAL_SPI_Init+0x58>
  {
    /* Allocate lock resource and initialize it */
    hspi->Lock = HAL_UNLOCKED;
 80078a6:	687b      	ldr	r3, [r7, #4]
 80078a8:	2200      	movs	r2, #0
 80078aa:	f883 2050 	strb.w	r2, [r3, #80]	; 0x50

    /* Init the low level hardware : GPIO, CLOCK, NVIC... */
    hspi->MspInitCallback(hspi);
#else
    /* Init the low level hardware : GPIO, CLOCK, NVIC... */
    HAL_SPI_MspInit(hspi);
 80078ae:	6878      	ldr	r0, [r7, #4]
 80078b0:	f7fd fc90 	bl	80051d4 <HAL_SPI_MspInit>
#endif /* USE_HAL_SPI_REGISTER_CALLBACKS */
  }

  hspi->State = HAL_SPI_STATE_BUSY;
 80078b4:	687b      	ldr	r3, [r7, #4]
 80078b6:	2202      	movs	r2, #2
 80078b8:	f883 2051 	strb.w	r2, [r3, #81]	; 0x51

  /* Disable the selected SPI peripheral */
  __HAL_SPI_DISABLE(hspi);
 80078bc:	687b      	ldr	r3, [r7, #4]
 80078be:	681b      	ldr	r3, [r3, #0]
 80078c0:	681a      	ldr	r2, [r3, #0]
 80078c2:	687b      	ldr	r3, [r7, #4]
 80078c4:	681b      	ldr	r3, [r3, #0]
 80078c6:	f022 0240 	bic.w	r2, r2, #64	; 0x40
 80078ca:	601a      	str	r2, [r3, #0]

  /*----------------------- SPIx CR1 & CR2 Configuration ---------------------*/
  /* Configure : SPI Mode, Communication Mode, Data size, Clock polarity and phase, NSS management,
  Communication speed, First bit and CRC calculation state */
  WRITE_REG(hspi->Instance->CR1, ((hspi->Init.Mode & (SPI_CR1_MSTR | SPI_CR1_SSI)) |
 80078cc:	687b      	ldr	r3, [r7, #4]
 80078ce:	685b      	ldr	r3, [r3, #4]
 80078d0:	f403 7282 	and.w	r2, r3, #260	; 0x104
 80078d4:	687b      	ldr	r3, [r7, #4]
 80078d6:	689b      	ldr	r3, [r3, #8]
 80078d8:	f403 4304 	and.w	r3, r3, #33792	; 0x8400
 80078dc:	431a      	orrs	r2, r3
 80078de:	687b      	ldr	r3, [r7, #4]
 80078e0:	68db      	ldr	r3, [r3, #12]
 80078e2:	f403 6300 	and.w	r3, r3, #2048	; 0x800
 80078e6:	431a      	orrs	r2, r3
 80078e8:	687b      	ldr	r3, [r7, #4]
 80078ea:	691b      	ldr	r3, [r3, #16]
 80078ec:	f003 0302 	and.w	r3, r3, #2
 80078f0:	431a      	orrs	r2, r3
 80078f2:	687b      	ldr	r3, [r7, #4]
 80078f4:	695b      	ldr	r3, [r3, #20]
 80078f6:	f003 0301 	and.w	r3, r3, #1
 80078fa:	431a      	orrs	r2, r3
 80078fc:	687b      	ldr	r3, [r7, #4]
 80078fe:	699b      	ldr	r3, [r3, #24]
 8007900:	f403 7300 	and.w	r3, r3, #512	; 0x200
 8007904:	431a      	orrs	r2, r3
 8007906:	687b      	ldr	r3, [r7, #4]
 8007908:	69db      	ldr	r3, [r3, #28]
 800790a:	f003 0338 	and.w	r3, r3, #56	; 0x38
 800790e:	431a      	orrs	r2, r3
 8007910:	687b      	ldr	r3, [r7, #4]
 8007912:	6a1b      	ldr	r3, [r3, #32]
 8007914:	f003 0380 	and.w	r3, r3, #128	; 0x80
 8007918:	ea42 0103 	orr.w	r1, r2, r3
 800791c:	687b      	ldr	r3, [r7, #4]
 800791e:	6a9b      	ldr	r3, [r3, #40]	; 0x28
 8007920:	f403 5200 	and.w	r2, r3, #8192	; 0x2000
 8007924:	687b      	ldr	r3, [r7, #4]
 8007926:	681b      	ldr	r3, [r3, #0]
 8007928:	430a      	orrs	r2, r1
 800792a:	601a      	str	r2, [r3, #0]
                                  (hspi->Init.BaudRatePrescaler & SPI_CR1_BR_Msk) |
                                  (hspi->Init.FirstBit  & SPI_CR1_LSBFIRST) |
                                  (hspi->Init.CRCCalculation & SPI_CR1_CRCEN)));

  /* Configure : NSS management, TI Mode */
  WRITE_REG(hspi->Instance->CR2, (((hspi->Init.NSS >> 16U) & SPI_CR2_SSOE) | (hspi->Init.TIMode & SPI_CR2_FRF)));
 800792c:	687b      	ldr	r3, [r7, #4]
 800792e:	699b      	ldr	r3, [r3, #24]
 8007930:	0c1b      	lsrs	r3, r3, #16
 8007932:	f003 0104 	and.w	r1, r3, #4
 8007936:	687b      	ldr	r3, [r7, #4]
 8007938:	6a5b      	ldr	r3, [r3, #36]	; 0x24
 800793a:	f003 0210 	and.w	r2, r3, #16
 800793e:	687b      	ldr	r3, [r7, #4]
 8007940:	681b      	ldr	r3, [r3, #0]
 8007942:	430a      	orrs	r2, r1
 8007944:	605a      	str	r2, [r3, #4]
  }
#endif /* USE_SPI_CRC */

#if defined(SPI_I2SCFGR_I2SMOD)
  /* Activate the SPI mode (Make sure that I2SMOD bit in I2SCFGR register is reset) */
  CLEAR_BIT(hspi->Instance->I2SCFGR, SPI_I2SCFGR_I2SMOD);
 8007946:	687b      	ldr	r3, [r7, #4]
 8007948:	681b      	ldr	r3, [r3, #0]
 800794a:	69da      	ldr	r2, [r3, #28]
 800794c:	687b      	ldr	r3, [r7, #4]
 800794e:	681b      	ldr	r3, [r3, #0]
 8007950:	f422 6200 	bic.w	r2, r2, #2048	; 0x800
 8007954:	61da      	str	r2, [r3, #28]
#endif /* SPI_I2SCFGR_I2SMOD */

  hspi->ErrorCode = HAL_SPI_ERROR_NONE;
 8007956:	687b      	ldr	r3, [r7, #4]
 8007958:	2200      	movs	r2, #0
 800795a:	655a      	str	r2, [r3, #84]	; 0x54
  hspi->State     = HAL_SPI_STATE_READY;
 800795c:	687b      	ldr	r3, [r7, #4]
 800795e:	2201      	movs	r2, #1
 8007960:	f883 2051 	strb.w	r2, [r3, #81]	; 0x51

  return HAL_OK;
 8007964:	2300      	movs	r3, #0
}
 8007966:	4618      	mov	r0, r3
 8007968:	3708      	adds	r7, #8
 800796a:	46bd      	mov	sp, r7
 800796c:	bd80      	pop	{r7, pc}

0800796e <HAL_SPI_Transmit>:
  * @param  Size amount of data to be sent
  * @param  Timeout Timeout duration
  * @retval HAL status
  */
HAL_StatusTypeDef HAL_SPI_Transmit(SPI_HandleTypeDef *hspi, uint8_t *pData, uint16_t Size, uint32_t Timeout)
{
 800796e:	b580      	push	{r7, lr}
 8007970:	b088      	sub	sp, #32
 8007972:	af00      	add	r7, sp, #0
 8007974:	60f8      	str	r0, [r7, #12]
 8007976:	60b9      	str	r1, [r7, #8]
 8007978:	603b      	str	r3, [r7, #0]
 800797a:	4613      	mov	r3, r2
 800797c:	80fb      	strh	r3, [r7, #6]
  uint32_t tickstart;
  HAL_StatusTypeDef errorcode = HAL_OK;
 800797e:	2300      	movs	r3, #0
 8007980:	77fb      	strb	r3, [r7, #31]

  /* Check Direction parameter */
  assert_param(IS_SPI_DIRECTION_2LINES_OR_1LINE(hspi->Init.Direction));

  /* Process Locked */
  __HAL_LOCK(hspi);
 8007982:	68fb      	ldr	r3, [r7, #12]
 8007984:	f893 3050 	ldrb.w	r3, [r3, #80]	; 0x50
 8007988:	2b01      	cmp	r3, #1
 800798a:	d101      	bne.n	8007990 <HAL_SPI_Transmit+0x22>
 800798c:	2302      	movs	r3, #2
 800798e:	e126      	b.n	8007bde <HAL_SPI_Transmit+0x270>
 8007990:	68fb      	ldr	r3, [r7, #12]
 8007992:	2201      	movs	r2, #1
 8007994:	f883 2050 	strb.w	r2, [r3, #80]	; 0x50

  /* Init tickstart for timeout management*/
  tickstart = HAL_GetTick();
 8007998:	f7fe f976 	bl	8005c88 <HAL_GetTick>
 800799c:	61b8      	str	r0, [r7, #24]
  initial_TxXferCount = Size;
 800799e:	88fb      	ldrh	r3, [r7, #6]
 80079a0:	82fb      	strh	r3, [r7, #22]

  if (hspi->State != HAL_SPI_STATE_READY)
 80079a2:	68fb      	ldr	r3, [r7, #12]
 80079a4:	f893 3051 	ldrb.w	r3, [r3, #81]	; 0x51
 80079a8:	b2db      	uxtb	r3, r3
 80079aa:	2b01      	cmp	r3, #1
 80079ac:	d002      	beq.n	80079b4 <HAL_SPI_Transmit+0x46>
  {
    errorcode = HAL_BUSY;
 80079ae:	2302      	movs	r3, #2
 80079b0:	77fb      	strb	r3, [r7, #31]
    goto error;
 80079b2:	e10b      	b.n	8007bcc <HAL_SPI_Transmit+0x25e>
  }

  if ((pData == NULL) || (Size == 0U))
 80079b4:	68bb      	ldr	r3, [r7, #8]
 80079b6:	2b00      	cmp	r3, #0
 80079b8:	d002      	beq.n	80079c0 <HAL_SPI_Transmit+0x52>
 80079ba:	88fb      	ldrh	r3, [r7, #6]
 80079bc:	2b00      	cmp	r3, #0
 80079be:	d102      	bne.n	80079c6 <HAL_SPI_Transmit+0x58>
  {
    errorcode = HAL_ERROR;
 80079c0:	2301      	movs	r3, #1
 80079c2:	77fb      	strb	r3, [r7, #31]
    goto error;
 80079c4:	e102      	b.n	8007bcc <HAL_SPI_Transmit+0x25e>
  }

  /* Set the transaction information */
  hspi->State       = HAL_SPI_STATE_BUSY_TX;
 80079c6:	68fb      	ldr	r3, [r7, #12]
 80079c8:	2203      	movs	r2, #3
 80079ca:	f883 2051 	strb.w	r2, [r3, #81]	; 0x51
  hspi->ErrorCode   = HAL_SPI_ERROR_NONE;
 80079ce:	68fb      	ldr	r3, [r7, #12]
 80079d0:	2200      	movs	r2, #0
 80079d2:	655a      	str	r2, [r3, #84]	; 0x54
  hspi->pTxBuffPtr  = (uint8_t *)pData;
 80079d4:	68fb      	ldr	r3, [r7, #12]
 80079d6:	68ba      	ldr	r2, [r7, #8]
 80079d8:	631a      	str	r2, [r3, #48]	; 0x30
  hspi->TxXferSize  = Size;
 80079da:	68fb      	ldr	r3, [r7, #12]
 80079dc:	88fa      	ldrh	r2, [r7, #6]
 80079de:	869a      	strh	r2, [r3, #52]	; 0x34
  hspi->TxXferCount = Size;
 80079e0:	68fb      	ldr	r3, [r7, #12]
 80079e2:	88fa      	ldrh	r2, [r7, #6]
 80079e4:	86da      	strh	r2, [r3, #54]	; 0x36

  /*Init field not used in handle to zero */
  hspi->pRxBuffPtr  = (uint8_t *)NULL;
 80079e6:	68fb      	ldr	r3, [r7, #12]
 80079e8:	2200      	movs	r2, #0
 80079ea:	639a      	str	r2, [r3, #56]	; 0x38
  hspi->RxXferSize  = 0U;
 80079ec:	68fb      	ldr	r3, [r7, #12]
 80079ee:	2200      	movs	r2, #0
 80079f0:	879a      	strh	r2, [r3, #60]	; 0x3c
  hspi->RxXferCount = 0U;
 80079f2:	68fb      	ldr	r3, [r7, #12]
 80079f4:	2200      	movs	r2, #0
 80079f6:	87da      	strh	r2, [r3, #62]	; 0x3e
  hspi->TxISR       = NULL;
 80079f8:	68fb      	ldr	r3, [r7, #12]
 80079fa:	2200      	movs	r2, #0
 80079fc:	645a      	str	r2, [r3, #68]	; 0x44
  hspi->RxISR       = NULL;
 80079fe:	68fb      	ldr	r3, [r7, #12]
 8007a00:	2200      	movs	r2, #0
 8007a02:	641a      	str	r2, [r3, #64]	; 0x40

  /* Configure communication direction : 1Line */
  if (hspi->Init.Direction == SPI_DIRECTION_1LINE)
 8007a04:	68fb      	ldr	r3, [r7, #12]
 8007a06:	689b      	ldr	r3, [r3, #8]
 8007a08:	f5b3 4f00 	cmp.w	r3, #32768	; 0x8000
 8007a0c:	d10f      	bne.n	8007a2e <HAL_SPI_Transmit+0xc0>
  {
    /* Disable SPI Peripheral before set 1Line direction (BIDIOE bit) */
    __HAL_SPI_DISABLE(hspi);
 8007a0e:	68fb      	ldr	r3, [r7, #12]
 8007a10:	681b      	ldr	r3, [r3, #0]
 8007a12:	681a      	ldr	r2, [r3, #0]
 8007a14:	68fb      	ldr	r3, [r7, #12]
 8007a16:	681b      	ldr	r3, [r3, #0]
 8007a18:	f022 0240 	bic.w	r2, r2, #64	; 0x40
 8007a1c:	601a      	str	r2, [r3, #0]
    SPI_1LINE_TX(hspi);
 8007a1e:	68fb      	ldr	r3, [r7, #12]
 8007a20:	681b      	ldr	r3, [r3, #0]
 8007a22:	681a      	ldr	r2, [r3, #0]
 8007a24:	68fb      	ldr	r3, [r7, #12]
 8007a26:	681b      	ldr	r3, [r3, #0]
 8007a28:	f442 4280 	orr.w	r2, r2, #16384	; 0x4000
 8007a2c:	601a      	str	r2, [r3, #0]
    SPI_RESET_CRC(hspi);
  }
#endif /* USE_SPI_CRC */

  /* Check if the SPI is already enabled */
  if ((hspi->Instance->CR1 & SPI_CR1_SPE) != SPI_CR1_SPE)
 8007a2e:	68fb      	ldr	r3, [r7, #12]
 8007a30:	681b      	ldr	r3, [r3, #0]
 8007a32:	681b      	ldr	r3, [r3, #0]
 8007a34:	f003 0340 	and.w	r3, r3, #64	; 0x40
 8007a38:	2b40      	cmp	r3, #64	; 0x40
 8007a3a:	d007      	beq.n	8007a4c <HAL_SPI_Transmit+0xde>
  {
    /* Enable SPI peripheral */
    __HAL_SPI_ENABLE(hspi);
 8007a3c:	68fb      	ldr	r3, [r7, #12]
 8007a3e:	681b      	ldr	r3, [r3, #0]
 8007a40:	681a      	ldr	r2, [r3, #0]
 8007a42:	68fb      	ldr	r3, [r7, #12]
 8007a44:	681b      	ldr	r3, [r3, #0]
 8007a46:	f042 0240 	orr.w	r2, r2, #64	; 0x40
 8007a4a:	601a      	str	r2, [r3, #0]
  }

  /* Transmit data in 16 Bit mode */
  if (hspi->Init.DataSize == SPI_DATASIZE_16BIT)
 8007a4c:	68fb      	ldr	r3, [r7, #12]
 8007a4e:	68db      	ldr	r3, [r3, #12]
 8007a50:	f5b3 6f00 	cmp.w	r3, #2048	; 0x800
 8007a54:	d14b      	bne.n	8007aee <HAL_SPI_Transmit+0x180>
  {
    if ((hspi->Init.Mode == SPI_MODE_SLAVE) || (initial_TxXferCount == 0x01U))
 8007a56:	68fb      	ldr	r3, [r7, #12]
 8007a58:	685b      	ldr	r3, [r3, #4]
 8007a5a:	2b00      	cmp	r3, #0
 8007a5c:	d002      	beq.n	8007a64 <HAL_SPI_Transmit+0xf6>
 8007a5e:	8afb      	ldrh	r3, [r7, #22]
 8007a60:	2b01      	cmp	r3, #1
 8007a62:	d13e      	bne.n	8007ae2 <HAL_SPI_Transmit+0x174>
    {
      hspi->Instance->DR = *((uint16_t *)hspi->pTxBuffPtr);
 8007a64:	68fb      	ldr	r3, [r7, #12]
 8007a66:	6b1b      	ldr	r3, [r3, #48]	; 0x30
 8007a68:	881a      	ldrh	r2, [r3, #0]
 8007a6a:	68fb      	ldr	r3, [r7, #12]
 8007a6c:	681b      	ldr	r3, [r3, #0]
 8007a6e:	60da      	str	r2, [r3, #12]
      hspi->pTxBuffPtr += sizeof(uint16_t);
 8007a70:	68fb      	ldr	r3, [r7, #12]
 8007a72:	6b1b      	ldr	r3, [r3, #48]	; 0x30
 8007a74:	1c9a      	adds	r2, r3, #2
 8007a76:	68fb      	ldr	r3, [r7, #12]
 8007a78:	631a      	str	r2, [r3, #48]	; 0x30
      hspi->TxXferCount--;
 8007a7a:	68fb      	ldr	r3, [r7, #12]
 8007a7c:	8edb      	ldrh	r3, [r3, #54]	; 0x36
 8007a7e:	b29b      	uxth	r3, r3
 8007a80:	3b01      	subs	r3, #1
 8007a82:	b29a      	uxth	r2, r3
 8007a84:	68fb      	ldr	r3, [r7, #12]
 8007a86:	86da      	strh	r2, [r3, #54]	; 0x36
    }
    /* Transmit data in 16 Bit mode */
    while (hspi->TxXferCount > 0U)
 8007a88:	e02b      	b.n	8007ae2 <HAL_SPI_Transmit+0x174>
    {
      /* Wait until TXE flag is set to send data */
      if (__HAL_SPI_GET_FLAG(hspi, SPI_FLAG_TXE))
 8007a8a:	68fb      	ldr	r3, [r7, #12]
 8007a8c:	681b      	ldr	r3, [r3, #0]
 8007a8e:	689b      	ldr	r3, [r3, #8]
 8007a90:	f003 0302 	and.w	r3, r3, #2
 8007a94:	2b02      	cmp	r3, #2
 8007a96:	d112      	bne.n	8007abe <HAL_SPI_Transmit+0x150>
      {
        hspi->Instance->DR = *((uint16_t *)hspi->pTxBuffPtr);
 8007a98:	68fb      	ldr	r3, [r7, #12]
 8007a9a:	6b1b      	ldr	r3, [r3, #48]	; 0x30
 8007a9c:	881a      	ldrh	r2, [r3, #0]
 8007a9e:	68fb      	ldr	r3, [r7, #12]
 8007aa0:	681b      	ldr	r3, [r3, #0]
 8007aa2:	60da      	str	r2, [r3, #12]
        hspi->pTxBuffPtr += sizeof(uint16_t);
 8007aa4:	68fb      	ldr	r3, [r7, #12]
 8007aa6:	6b1b      	ldr	r3, [r3, #48]	; 0x30
 8007aa8:	1c9a      	adds	r2, r3, #2
 8007aaa:	68fb      	ldr	r3, [r7, #12]
 8007aac:	631a      	str	r2, [r3, #48]	; 0x30
        hspi->TxXferCount--;
 8007aae:	68fb      	ldr	r3, [r7, #12]
 8007ab0:	8edb      	ldrh	r3, [r3, #54]	; 0x36
 8007ab2:	b29b      	uxth	r3, r3
 8007ab4:	3b01      	subs	r3, #1
 8007ab6:	b29a      	uxth	r2, r3
 8007ab8:	68fb      	ldr	r3, [r7, #12]
 8007aba:	86da      	strh	r2, [r3, #54]	; 0x36
 8007abc:	e011      	b.n	8007ae2 <HAL_SPI_Transmit+0x174>
      }
      else
      {
        /* Timeout management */
        if ((((HAL_GetTick() - tickstart) >=  Timeout) && (Timeout != HAL_MAX_DELAY)) || (Timeout == 0U))
 8007abe:	f7fe f8e3 	bl	8005c88 <HAL_GetTick>
 8007ac2:	4602      	mov	r2, r0
 8007ac4:	69bb      	ldr	r3, [r7, #24]
 8007ac6:	1ad3      	subs	r3, r2, r3
 8007ac8:	683a      	ldr	r2, [r7, #0]
 8007aca:	429a      	cmp	r2, r3
 8007acc:	d803      	bhi.n	8007ad6 <HAL_SPI_Transmit+0x168>
 8007ace:	683b      	ldr	r3, [r7, #0]
 8007ad0:	f1b3 3fff 	cmp.w	r3, #4294967295
 8007ad4:	d102      	bne.n	8007adc <HAL_SPI_Transmit+0x16e>
 8007ad6:	683b      	ldr	r3, [r7, #0]
 8007ad8:	2b00      	cmp	r3, #0
 8007ada:	d102      	bne.n	8007ae2 <HAL_SPI_Transmit+0x174>
        {
          errorcode = HAL_TIMEOUT;
 8007adc:	2303      	movs	r3, #3
 8007ade:	77fb      	strb	r3, [r7, #31]
          goto error;
 8007ae0:	e074      	b.n	8007bcc <HAL_SPI_Transmit+0x25e>
    while (hspi->TxXferCount > 0U)
 8007ae2:	68fb      	ldr	r3, [r7, #12]
 8007ae4:	8edb      	ldrh	r3, [r3, #54]	; 0x36
 8007ae6:	b29b      	uxth	r3, r3
 8007ae8:	2b00      	cmp	r3, #0
 8007aea:	d1ce      	bne.n	8007a8a <HAL_SPI_Transmit+0x11c>
 8007aec:	e04c      	b.n	8007b88 <HAL_SPI_Transmit+0x21a>
    }
  }
  /* Transmit data in 8 Bit mode */
  else
  {
    if ((hspi->Init.Mode == SPI_MODE_SLAVE) || (initial_TxXferCount == 0x01U))
 8007aee:	68fb      	ldr	r3, [r7, #12]
 8007af0:	685b      	ldr	r3, [r3, #4]
 8007af2:	2b00      	cmp	r3, #0
 8007af4:	d002      	beq.n	8007afc <HAL_SPI_Transmit+0x18e>
 8007af6:	8afb      	ldrh	r3, [r7, #22]
 8007af8:	2b01      	cmp	r3, #1
 8007afa:	d140      	bne.n	8007b7e <HAL_SPI_Transmit+0x210>
    {
      *((__IO uint8_t *)&hspi->Instance->DR) = (*hspi->pTxBuffPtr);
 8007afc:	68fb      	ldr	r3, [r7, #12]
 8007afe:	6b1a      	ldr	r2, [r3, #48]	; 0x30
 8007b00:	68fb      	ldr	r3, [r7, #12]
 8007b02:	681b      	ldr	r3, [r3, #0]
 8007b04:	330c      	adds	r3, #12
 8007b06:	7812      	ldrb	r2, [r2, #0]
 8007b08:	701a      	strb	r2, [r3, #0]
      hspi->pTxBuffPtr += sizeof(uint8_t);
 8007b0a:	68fb      	ldr	r3, [r7, #12]
 8007b0c:	6b1b      	ldr	r3, [r3, #48]	; 0x30
 8007b0e:	1c5a      	adds	r2, r3, #1
 8007b10:	68fb      	ldr	r3, [r7, #12]
 8007b12:	631a      	str	r2, [r3, #48]	; 0x30
      hspi->TxXferCount--;
 8007b14:	68fb      	ldr	r3, [r7, #12]
 8007b16:	8edb      	ldrh	r3, [r3, #54]	; 0x36
 8007b18:	b29b      	uxth	r3, r3
 8007b1a:	3b01      	subs	r3, #1
 8007b1c:	b29a      	uxth	r2, r3
 8007b1e:	68fb      	ldr	r3, [r7, #12]
 8007b20:	86da      	strh	r2, [r3, #54]	; 0x36
    }
    while (hspi->TxXferCount > 0U)
 8007b22:	e02c      	b.n	8007b7e <HAL_SPI_Transmit+0x210>
    {
      /* Wait until TXE flag is set to send data */
      if (__HAL_SPI_GET_FLAG(hspi, SPI_FLAG_TXE))
 8007b24:	68fb      	ldr	r3, [r7, #12]
 8007b26:	681b      	ldr	r3, [r3, #0]
 8007b28:	689b      	ldr	r3, [r3, #8]
 8007b2a:	f003 0302 	and.w	r3, r3, #2
 8007b2e:	2b02      	cmp	r3, #2
 8007b30:	d113      	bne.n	8007b5a <HAL_SPI_Transmit+0x1ec>
      {
        *((__IO uint8_t *)&hspi->Instance->DR) = (*hspi->pTxBuffPtr);
 8007b32:	68fb      	ldr	r3, [r7, #12]
 8007b34:	6b1a      	ldr	r2, [r3, #48]	; 0x30
 8007b36:	68fb      	ldr	r3, [r7, #12]
 8007b38:	681b      	ldr	r3, [r3, #0]
 8007b3a:	330c      	adds	r3, #12
 8007b3c:	7812      	ldrb	r2, [r2, #0]
 8007b3e:	701a      	strb	r2, [r3, #0]
        hspi->pTxBuffPtr += sizeof(uint8_t);
 8007b40:	68fb      	ldr	r3, [r7, #12]
 8007b42:	6b1b      	ldr	r3, [r3, #48]	; 0x30
 8007b44:	1c5a      	adds	r2, r3, #1
 8007b46:	68fb      	ldr	r3, [r7, #12]
 8007b48:	631a      	str	r2, [r3, #48]	; 0x30
        hspi->TxXferCount--;
 8007b4a:	68fb      	ldr	r3, [r7, #12]
 8007b4c:	8edb      	ldrh	r3, [r3, #54]	; 0x36
 8007b4e:	b29b      	uxth	r3, r3
 8007b50:	3b01      	subs	r3, #1
 8007b52:	b29a      	uxth	r2, r3
 8007b54:	68fb      	ldr	r3, [r7, #12]
 8007b56:	86da      	strh	r2, [r3, #54]	; 0x36
 8007b58:	e011      	b.n	8007b7e <HAL_SPI_Transmit+0x210>
      }
      else
      {
        /* Timeout management */
        if ((((HAL_GetTick() - tickstart) >=  Timeout) && (Timeout != HAL_MAX_DELAY)) || (Timeout == 0U))
 8007b5a:	f7fe f895 	bl	8005c88 <HAL_GetTick>
 8007b5e:	4602      	mov	r2, r0
 8007b60:	69bb      	ldr	r3, [r7, #24]
 8007b62:	1ad3      	subs	r3, r2, r3
 8007b64:	683a      	ldr	r2, [r7, #0]
 8007b66:	429a      	cmp	r2, r3
 8007b68:	d803      	bhi.n	8007b72 <HAL_SPI_Transmit+0x204>
 8007b6a:	683b      	ldr	r3, [r7, #0]
 8007b6c:	f1b3 3fff 	cmp.w	r3, #4294967295
 8007b70:	d102      	bne.n	8007b78 <HAL_SPI_Transmit+0x20a>
 8007b72:	683b      	ldr	r3, [r7, #0]
 8007b74:	2b00      	cmp	r3, #0
 8007b76:	d102      	bne.n	8007b7e <HAL_SPI_Transmit+0x210>
        {
          errorcode = HAL_TIMEOUT;
 8007b78:	2303      	movs	r3, #3
 8007b7a:	77fb      	strb	r3, [r7, #31]
          goto error;
 8007b7c:	e026      	b.n	8007bcc <HAL_SPI_Transmit+0x25e>
    while (hspi->TxXferCount > 0U)
 8007b7e:	68fb      	ldr	r3, [r7, #12]
 8007b80:	8edb      	ldrh	r3, [r3, #54]	; 0x36
 8007b82:	b29b      	uxth	r3, r3
 8007b84:	2b00      	cmp	r3, #0
 8007b86:	d1cd      	bne.n	8007b24 <HAL_SPI_Transmit+0x1b6>
    SET_BIT(hspi->Instance->CR1, SPI_CR1_CRCNEXT);
  }
#endif /* USE_SPI_CRC */

  /* Check the end of the transaction */
  if (SPI_EndRxTxTransaction(hspi, Timeout, tickstart) != HAL_OK)
 8007b88:	69ba      	ldr	r2, [r7, #24]
 8007b8a:	6839      	ldr	r1, [r7, #0]
 8007b8c:	68f8      	ldr	r0, [r7, #12]
 8007b8e:	f000 fbcb 	bl	8008328 <SPI_EndRxTxTransaction>
 8007b92:	4603      	mov	r3, r0
 8007b94:	2b00      	cmp	r3, #0
 8007b96:	d002      	beq.n	8007b9e <HAL_SPI_Transmit+0x230>
  {
    hspi->ErrorCode = HAL_SPI_ERROR_FLAG;
 8007b98:	68fb      	ldr	r3, [r7, #12]
 8007b9a:	2220      	movs	r2, #32
 8007b9c:	655a      	str	r2, [r3, #84]	; 0x54
  }

  /* Clear overrun flag in 2 Lines communication mode because received is not read */
  if (hspi->Init.Direction == SPI_DIRECTION_2LINES)
 8007b9e:	68fb      	ldr	r3, [r7, #12]
 8007ba0:	689b      	ldr	r3, [r3, #8]
 8007ba2:	2b00      	cmp	r3, #0
 8007ba4:	d10a      	bne.n	8007bbc <HAL_SPI_Transmit+0x24e>
  {
    __HAL_SPI_CLEAR_OVRFLAG(hspi);
 8007ba6:	2300      	movs	r3, #0
 8007ba8:	613b      	str	r3, [r7, #16]
 8007baa:	68fb      	ldr	r3, [r7, #12]
 8007bac:	681b      	ldr	r3, [r3, #0]
 8007bae:	68db      	ldr	r3, [r3, #12]
 8007bb0:	613b      	str	r3, [r7, #16]
 8007bb2:	68fb      	ldr	r3, [r7, #12]
 8007bb4:	681b      	ldr	r3, [r3, #0]
 8007bb6:	689b      	ldr	r3, [r3, #8]
 8007bb8:	613b      	str	r3, [r7, #16]
 8007bba:	693b      	ldr	r3, [r7, #16]
  }

  if (hspi->ErrorCode != HAL_SPI_ERROR_NONE)
 8007bbc:	68fb      	ldr	r3, [r7, #12]
 8007bbe:	6d5b      	ldr	r3, [r3, #84]	; 0x54
 8007bc0:	2b00      	cmp	r3, #0
 8007bc2:	d002      	beq.n	8007bca <HAL_SPI_Transmit+0x25c>
  {
    errorcode = HAL_ERROR;
 8007bc4:	2301      	movs	r3, #1
 8007bc6:	77fb      	strb	r3, [r7, #31]
 8007bc8:	e000      	b.n	8007bcc <HAL_SPI_Transmit+0x25e>
  }

error:
 8007bca:	bf00      	nop
  hspi->State = HAL_SPI_STATE_READY;
 8007bcc:	68fb      	ldr	r3, [r7, #12]
 8007bce:	2201      	movs	r2, #1
 8007bd0:	f883 2051 	strb.w	r2, [r3, #81]	; 0x51
  /* Process Unlocked */
  __HAL_UNLOCK(hspi);
 8007bd4:	68fb      	ldr	r3, [r7, #12]
 8007bd6:	2200      	movs	r2, #0
 8007bd8:	f883 2050 	strb.w	r2, [r3, #80]	; 0x50
  return errorcode;
 8007bdc:	7ffb      	ldrb	r3, [r7, #31]
}
 8007bde:	4618      	mov	r0, r3
 8007be0:	3720      	adds	r7, #32
 8007be2:	46bd      	mov	sp, r7
 8007be4:	bd80      	pop	{r7, pc}

08007be6 <HAL_SPI_Receive>:
  * @param  Size amount of data to be received
  * @param  Timeout Timeout duration
  * @retval HAL status
  */
HAL_StatusTypeDef HAL_SPI_Receive(SPI_HandleTypeDef *hspi, uint8_t *pData, uint16_t Size, uint32_t Timeout)
{
 8007be6:	b580      	push	{r7, lr}
 8007be8:	b088      	sub	sp, #32
 8007bea:	af02      	add	r7, sp, #8
 8007bec:	60f8      	str	r0, [r7, #12]
 8007bee:	60b9      	str	r1, [r7, #8]
 8007bf0:	603b      	str	r3, [r7, #0]
 8007bf2:	4613      	mov	r3, r2
 8007bf4:	80fb      	strh	r3, [r7, #6]
#if (USE_SPI_CRC != 0U)
  __IO uint32_t tmpreg = 0U;
#endif /* USE_SPI_CRC */
  uint32_t tickstart;
  HAL_StatusTypeDef errorcode = HAL_OK;
 8007bf6:	2300      	movs	r3, #0
 8007bf8:	75fb      	strb	r3, [r7, #23]

  if ((hspi->Init.Mode == SPI_MODE_MASTER) && (hspi->Init.Direction == SPI_DIRECTION_2LINES))
 8007bfa:	68fb      	ldr	r3, [r7, #12]
 8007bfc:	685b      	ldr	r3, [r3, #4]
 8007bfe:	f5b3 7f82 	cmp.w	r3, #260	; 0x104
 8007c02:	d112      	bne.n	8007c2a <HAL_SPI_Receive+0x44>
 8007c04:	68fb      	ldr	r3, [r7, #12]
 8007c06:	689b      	ldr	r3, [r3, #8]
 8007c08:	2b00      	cmp	r3, #0
 8007c0a:	d10e      	bne.n	8007c2a <HAL_SPI_Receive+0x44>
  {
    hspi->State = HAL_SPI_STATE_BUSY_RX;
 8007c0c:	68fb      	ldr	r3, [r7, #12]
 8007c0e:	2204      	movs	r2, #4
 8007c10:	f883 2051 	strb.w	r2, [r3, #81]	; 0x51
    /* Call transmit-receive function to send Dummy data on Tx line and generate clock on CLK line */
    return HAL_SPI_TransmitReceive(hspi, pData, pData, Size, Timeout);
 8007c14:	88fa      	ldrh	r2, [r7, #6]
 8007c16:	683b      	ldr	r3, [r7, #0]
 8007c18:	9300      	str	r3, [sp, #0]
 8007c1a:	4613      	mov	r3, r2
 8007c1c:	68ba      	ldr	r2, [r7, #8]
 8007c1e:	68b9      	ldr	r1, [r7, #8]
 8007c20:	68f8      	ldr	r0, [r7, #12]
 8007c22:	f000 f8f1 	bl	8007e08 <HAL_SPI_TransmitReceive>
 8007c26:	4603      	mov	r3, r0
 8007c28:	e0ea      	b.n	8007e00 <HAL_SPI_Receive+0x21a>
  }

  /* Process Locked */
  __HAL_LOCK(hspi);
 8007c2a:	68fb      	ldr	r3, [r7, #12]
 8007c2c:	f893 3050 	ldrb.w	r3, [r3, #80]	; 0x50
 8007c30:	2b01      	cmp	r3, #1
 8007c32:	d101      	bne.n	8007c38 <HAL_SPI_Receive+0x52>
 8007c34:	2302      	movs	r3, #2
 8007c36:	e0e3      	b.n	8007e00 <HAL_SPI_Receive+0x21a>
 8007c38:	68fb      	ldr	r3, [r7, #12]
 8007c3a:	2201      	movs	r2, #1
 8007c3c:	f883 2050 	strb.w	r2, [r3, #80]	; 0x50

  /* Init tickstart for timeout management*/
  tickstart = HAL_GetTick();
 8007c40:	f7fe f822 	bl	8005c88 <HAL_GetTick>
 8007c44:	6138      	str	r0, [r7, #16]

  if (hspi->State != HAL_SPI_STATE_READY)
 8007c46:	68fb      	ldr	r3, [r7, #12]
 8007c48:	f893 3051 	ldrb.w	r3, [r3, #81]	; 0x51
 8007c4c:	b2db      	uxtb	r3, r3
 8007c4e:	2b01      	cmp	r3, #1
 8007c50:	d002      	beq.n	8007c58 <HAL_SPI_Receive+0x72>
  {
    errorcode = HAL_BUSY;
 8007c52:	2302      	movs	r3, #2
 8007c54:	75fb      	strb	r3, [r7, #23]
    goto error;
 8007c56:	e0ca      	b.n	8007dee <HAL_SPI_Receive+0x208>
  }

  if ((pData == NULL) || (Size == 0U))
 8007c58:	68bb      	ldr	r3, [r7, #8]
 8007c5a:	2b00      	cmp	r3, #0
 8007c5c:	d002      	beq.n	8007c64 <HAL_SPI_Receive+0x7e>
 8007c5e:	88fb      	ldrh	r3, [r7, #6]
 8007c60:	2b00      	cmp	r3, #0
 8007c62:	d102      	bne.n	8007c6a <HAL_SPI_Receive+0x84>
  {
    errorcode = HAL_ERROR;
 8007c64:	2301      	movs	r3, #1
 8007c66:	75fb      	strb	r3, [r7, #23]
    goto error;
 8007c68:	e0c1      	b.n	8007dee <HAL_SPI_Receive+0x208>
  }

  /* Set the transaction information */
  hspi->State       = HAL_SPI_STATE_BUSY_RX;
 8007c6a:	68fb      	ldr	r3, [r7, #12]
 8007c6c:	2204      	movs	r2, #4
 8007c6e:	f883 2051 	strb.w	r2, [r3, #81]	; 0x51
  hspi->ErrorCode   = HAL_SPI_ERROR_NONE;
 8007c72:	68fb      	ldr	r3, [r7, #12]
 8007c74:	2200      	movs	r2, #0
 8007c76:	655a      	str	r2, [r3, #84]	; 0x54
  hspi->pRxBuffPtr  = (uint8_t *)pData;
 8007c78:	68fb      	ldr	r3, [r7, #12]
 8007c7a:	68ba      	ldr	r2, [r7, #8]
 8007c7c:	639a      	str	r2, [r3, #56]	; 0x38
  hspi->RxXferSize  = Size;
 8007c7e:	68fb      	ldr	r3, [r7, #12]
 8007c80:	88fa      	ldrh	r2, [r7, #6]
 8007c82:	879a      	strh	r2, [r3, #60]	; 0x3c
  hspi->RxXferCount = Size;
 8007c84:	68fb      	ldr	r3, [r7, #12]
 8007c86:	88fa      	ldrh	r2, [r7, #6]
 8007c88:	87da      	strh	r2, [r3, #62]	; 0x3e

  /*Init field not used in handle to zero */
  hspi->pTxBuffPtr  = (uint8_t *)NULL;
 8007c8a:	68fb      	ldr	r3, [r7, #12]
 8007c8c:	2200      	movs	r2, #0
 8007c8e:	631a      	str	r2, [r3, #48]	; 0x30
  hspi->TxXferSize  = 0U;
 8007c90:	68fb      	ldr	r3, [r7, #12]
 8007c92:	2200      	movs	r2, #0
 8007c94:	869a      	strh	r2, [r3, #52]	; 0x34
  hspi->TxXferCount = 0U;
 8007c96:	68fb      	ldr	r3, [r7, #12]
 8007c98:	2200      	movs	r2, #0
 8007c9a:	86da      	strh	r2, [r3, #54]	; 0x36
  hspi->RxISR       = NULL;
 8007c9c:	68fb      	ldr	r3, [r7, #12]
 8007c9e:	2200      	movs	r2, #0
 8007ca0:	641a      	str	r2, [r3, #64]	; 0x40
  hspi->TxISR       = NULL;
 8007ca2:	68fb      	ldr	r3, [r7, #12]
 8007ca4:	2200      	movs	r2, #0
 8007ca6:	645a      	str	r2, [r3, #68]	; 0x44
    hspi->RxXferCount--;
  }
#endif /* USE_SPI_CRC */

  /* Configure communication direction: 1Line */
  if (hspi->Init.Direction == SPI_DIRECTION_1LINE)
 8007ca8:	68fb      	ldr	r3, [r7, #12]
 8007caa:	689b      	ldr	r3, [r3, #8]
 8007cac:	f5b3 4f00 	cmp.w	r3, #32768	; 0x8000
 8007cb0:	d10f      	bne.n	8007cd2 <HAL_SPI_Receive+0xec>
  {
    /* Disable SPI Peripheral before set 1Line direction (BIDIOE bit) */
    __HAL_SPI_DISABLE(hspi);
 8007cb2:	68fb      	ldr	r3, [r7, #12]
 8007cb4:	681b      	ldr	r3, [r3, #0]
 8007cb6:	681a      	ldr	r2, [r3, #0]
 8007cb8:	68fb      	ldr	r3, [r7, #12]
 8007cba:	681b      	ldr	r3, [r3, #0]
 8007cbc:	f022 0240 	bic.w	r2, r2, #64	; 0x40
 8007cc0:	601a      	str	r2, [r3, #0]
    SPI_1LINE_RX(hspi);
 8007cc2:	68fb      	ldr	r3, [r7, #12]
 8007cc4:	681b      	ldr	r3, [r3, #0]
 8007cc6:	681a      	ldr	r2, [r3, #0]
 8007cc8:	68fb      	ldr	r3, [r7, #12]
 8007cca:	681b      	ldr	r3, [r3, #0]
 8007ccc:	f422 4280 	bic.w	r2, r2, #16384	; 0x4000
 8007cd0:	601a      	str	r2, [r3, #0]
  }

  /* Check if the SPI is already enabled */
  if ((hspi->Instance->CR1 & SPI_CR1_SPE) != SPI_CR1_SPE)
 8007cd2:	68fb      	ldr	r3, [r7, #12]
 8007cd4:	681b      	ldr	r3, [r3, #0]
 8007cd6:	681b      	ldr	r3, [r3, #0]
 8007cd8:	f003 0340 	and.w	r3, r3, #64	; 0x40
 8007cdc:	2b40      	cmp	r3, #64	; 0x40
 8007cde:	d007      	beq.n	8007cf0 <HAL_SPI_Receive+0x10a>
  {
    /* Enable SPI peripheral */
    __HAL_SPI_ENABLE(hspi);
 8007ce0:	68fb      	ldr	r3, [r7, #12]
 8007ce2:	681b      	ldr	r3, [r3, #0]
 8007ce4:	681a      	ldr	r2, [r3, #0]
 8007ce6:	68fb      	ldr	r3, [r7, #12]
 8007ce8:	681b      	ldr	r3, [r3, #0]
 8007cea:	f042 0240 	orr.w	r2, r2, #64	; 0x40
 8007cee:	601a      	str	r2, [r3, #0]
  }

  /* Receive data in 8 Bit mode */
  if (hspi->Init.DataSize == SPI_DATASIZE_8BIT)
 8007cf0:	68fb      	ldr	r3, [r7, #12]
 8007cf2:	68db      	ldr	r3, [r3, #12]
 8007cf4:	2b00      	cmp	r3, #0
 8007cf6:	d162      	bne.n	8007dbe <HAL_SPI_Receive+0x1d8>
  {
    /* Transfer loop */
    while (hspi->RxXferCount > 0U)
 8007cf8:	e02e      	b.n	8007d58 <HAL_SPI_Receive+0x172>
    {
      /* Check the RXNE flag */
      if (__HAL_SPI_GET_FLAG(hspi, SPI_FLAG_RXNE))
 8007cfa:	68fb      	ldr	r3, [r7, #12]
 8007cfc:	681b      	ldr	r3, [r3, #0]
 8007cfe:	689b      	ldr	r3, [r3, #8]
 8007d00:	f003 0301 	and.w	r3, r3, #1
 8007d04:	2b01      	cmp	r3, #1
 8007d06:	d115      	bne.n	8007d34 <HAL_SPI_Receive+0x14e>
      {
        /* read the received data */
        (* (uint8_t *)hspi->pRxBuffPtr) = *(__IO uint8_t *)&hspi->Instance->DR;
 8007d08:	68fb      	ldr	r3, [r7, #12]
 8007d0a:	681b      	ldr	r3, [r3, #0]
 8007d0c:	f103 020c 	add.w	r2, r3, #12
 8007d10:	68fb      	ldr	r3, [r7, #12]
 8007d12:	6b9b      	ldr	r3, [r3, #56]	; 0x38
 8007d14:	7812      	ldrb	r2, [r2, #0]
 8007d16:	b2d2      	uxtb	r2, r2
 8007d18:	701a      	strb	r2, [r3, #0]
        hspi->pRxBuffPtr += sizeof(uint8_t);
 8007d1a:	68fb      	ldr	r3, [r7, #12]
 8007d1c:	6b9b      	ldr	r3, [r3, #56]	; 0x38
 8007d1e:	1c5a      	adds	r2, r3, #1
 8007d20:	68fb      	ldr	r3, [r7, #12]
 8007d22:	639a      	str	r2, [r3, #56]	; 0x38
        hspi->RxXferCount--;
 8007d24:	68fb      	ldr	r3, [r7, #12]
 8007d26:	8fdb      	ldrh	r3, [r3, #62]	; 0x3e
 8007d28:	b29b      	uxth	r3, r3
 8007d2a:	3b01      	subs	r3, #1
 8007d2c:	b29a      	uxth	r2, r3
 8007d2e:	68fb      	ldr	r3, [r7, #12]
 8007d30:	87da      	strh	r2, [r3, #62]	; 0x3e
 8007d32:	e011      	b.n	8007d58 <HAL_SPI_Receive+0x172>
      }
      else
      {
        /* Timeout management */
        if ((((HAL_GetTick() - tickstart) >=  Timeout) && (Timeout != HAL_MAX_DELAY)) || (Timeout == 0U))
 8007d34:	f7fd ffa8 	bl	8005c88 <HAL_GetTick>
 8007d38:	4602      	mov	r2, r0
 8007d3a:	693b      	ldr	r3, [r7, #16]
 8007d3c:	1ad3      	subs	r3, r2, r3
 8007d3e:	683a      	ldr	r2, [r7, #0]
 8007d40:	429a      	cmp	r2, r3
 8007d42:	d803      	bhi.n	8007d4c <HAL_SPI_Receive+0x166>
 8007d44:	683b      	ldr	r3, [r7, #0]
 8007d46:	f1b3 3fff 	cmp.w	r3, #4294967295
 8007d4a:	d102      	bne.n	8007d52 <HAL_SPI_Receive+0x16c>
 8007d4c:	683b      	ldr	r3, [r7, #0]
 8007d4e:	2b00      	cmp	r3, #0
 8007d50:	d102      	bne.n	8007d58 <HAL_SPI_Receive+0x172>
        {
          errorcode = HAL_TIMEOUT;
 8007d52:	2303      	movs	r3, #3
 8007d54:	75fb      	strb	r3, [r7, #23]
          goto error;
 8007d56:	e04a      	b.n	8007dee <HAL_SPI_Receive+0x208>
    while (hspi->RxXferCount > 0U)
 8007d58:	68fb      	ldr	r3, [r7, #12]
 8007d5a:	8fdb      	ldrh	r3, [r3, #62]	; 0x3e
 8007d5c:	b29b      	uxth	r3, r3
 8007d5e:	2b00      	cmp	r3, #0
 8007d60:	d1cb      	bne.n	8007cfa <HAL_SPI_Receive+0x114>
 8007d62:	e031      	b.n	8007dc8 <HAL_SPI_Receive+0x1e2>
  {
    /* Transfer loop */
    while (hspi->RxXferCount > 0U)
    {
      /* Check the RXNE flag */
      if (__HAL_SPI_GET_FLAG(hspi, SPI_FLAG_RXNE))
 8007d64:	68fb      	ldr	r3, [r7, #12]
 8007d66:	681b      	ldr	r3, [r3, #0]
 8007d68:	689b      	ldr	r3, [r3, #8]
 8007d6a:	f003 0301 	and.w	r3, r3, #1
 8007d6e:	2b01      	cmp	r3, #1
 8007d70:	d113      	bne.n	8007d9a <HAL_SPI_Receive+0x1b4>
      {
        *((uint16_t *)hspi->pRxBuffPtr) = (uint16_t)hspi->Instance->DR;
 8007d72:	68fb      	ldr	r3, [r7, #12]
 8007d74:	681b      	ldr	r3, [r3, #0]
 8007d76:	68da      	ldr	r2, [r3, #12]
 8007d78:	68fb      	ldr	r3, [r7, #12]
 8007d7a:	6b9b      	ldr	r3, [r3, #56]	; 0x38
 8007d7c:	b292      	uxth	r2, r2
 8007d7e:	801a      	strh	r2, [r3, #0]
        hspi->pRxBuffPtr += sizeof(uint16_t);
 8007d80:	68fb      	ldr	r3, [r7, #12]
 8007d82:	6b9b      	ldr	r3, [r3, #56]	; 0x38
 8007d84:	1c9a      	adds	r2, r3, #2
 8007d86:	68fb      	ldr	r3, [r7, #12]
 8007d88:	639a      	str	r2, [r3, #56]	; 0x38
        hspi->RxXferCount--;
 8007d8a:	68fb      	ldr	r3, [r7, #12]
 8007d8c:	8fdb      	ldrh	r3, [r3, #62]	; 0x3e
 8007d8e:	b29b      	uxth	r3, r3
 8007d90:	3b01      	subs	r3, #1
 8007d92:	b29a      	uxth	r2, r3
 8007d94:	68fb      	ldr	r3, [r7, #12]
 8007d96:	87da      	strh	r2, [r3, #62]	; 0x3e
 8007d98:	e011      	b.n	8007dbe <HAL_SPI_Receive+0x1d8>
      }
      else
      {
        /* Timeout management */
        if ((((HAL_GetTick() - tickstart) >=  Timeout) && (Timeout != HAL_MAX_DELAY)) || (Timeout == 0U))
 8007d9a:	f7fd ff75 	bl	8005c88 <HAL_GetTick>
 8007d9e:	4602      	mov	r2, r0
 8007da0:	693b      	ldr	r3, [r7, #16]
 8007da2:	1ad3      	subs	r3, r2, r3
 8007da4:	683a      	ldr	r2, [r7, #0]
 8007da6:	429a      	cmp	r2, r3
 8007da8:	d803      	bhi.n	8007db2 <HAL_SPI_Receive+0x1cc>
 8007daa:	683b      	ldr	r3, [r7, #0]
 8007dac:	f1b3 3fff 	cmp.w	r3, #4294967295
 8007db0:	d102      	bne.n	8007db8 <HAL_SPI_Receive+0x1d2>
 8007db2:	683b      	ldr	r3, [r7, #0]
 8007db4:	2b00      	cmp	r3, #0
 8007db6:	d102      	bne.n	8007dbe <HAL_SPI_Receive+0x1d8>
        {
          errorcode = HAL_TIMEOUT;
 8007db8:	2303      	movs	r3, #3
 8007dba:	75fb      	strb	r3, [r7, #23]
          goto error;
 8007dbc:	e017      	b.n	8007dee <HAL_SPI_Receive+0x208>
    while (hspi->RxXferCount > 0U)
 8007dbe:	68fb      	ldr	r3, [r7, #12]
 8007dc0:	8fdb      	ldrh	r3, [r3, #62]	; 0x3e
 8007dc2:	b29b      	uxth	r3, r3
 8007dc4:	2b00      	cmp	r3, #0
 8007dc6:	d1cd      	bne.n	8007d64 <HAL_SPI_Receive+0x17e>
    UNUSED(tmpreg);
  }
#endif /* USE_SPI_CRC */

  /* Check the end of the transaction */
  if (SPI_EndRxTransaction(hspi, Timeout, tickstart) != HAL_OK)
 8007dc8:	693a      	ldr	r2, [r7, #16]
 8007dca:	6839      	ldr	r1, [r7, #0]
 8007dcc:	68f8      	ldr	r0, [r7, #12]
 8007dce:	f000 fa45 	bl	800825c <SPI_EndRxTransaction>
 8007dd2:	4603      	mov	r3, r0
 8007dd4:	2b00      	cmp	r3, #0
 8007dd6:	d002      	beq.n	8007dde <HAL_SPI_Receive+0x1f8>
  {
    hspi->ErrorCode = HAL_SPI_ERROR_FLAG;
 8007dd8:	68fb      	ldr	r3, [r7, #12]
 8007dda:	2220      	movs	r2, #32
 8007ddc:	655a      	str	r2, [r3, #84]	; 0x54
    SET_BIT(hspi->ErrorCode, HAL_SPI_ERROR_CRC);
    __HAL_SPI_CLEAR_CRCERRFLAG(hspi);
  }
#endif /* USE_SPI_CRC */

  if (hspi->ErrorCode != HAL_SPI_ERROR_NONE)
 8007dde:	68fb      	ldr	r3, [r7, #12]
 8007de0:	6d5b      	ldr	r3, [r3, #84]	; 0x54
 8007de2:	2b00      	cmp	r3, #0
 8007de4:	d002      	beq.n	8007dec <HAL_SPI_Receive+0x206>
  {
    errorcode = HAL_ERROR;
 8007de6:	2301      	movs	r3, #1
 8007de8:	75fb      	strb	r3, [r7, #23]
 8007dea:	e000      	b.n	8007dee <HAL_SPI_Receive+0x208>
  }

error :
 8007dec:	bf00      	nop
  hspi->State = HAL_SPI_STATE_READY;
 8007dee:	68fb      	ldr	r3, [r7, #12]
 8007df0:	2201      	movs	r2, #1
 8007df2:	f883 2051 	strb.w	r2, [r3, #81]	; 0x51
  __HAL_UNLOCK(hspi);
 8007df6:	68fb      	ldr	r3, [r7, #12]
 8007df8:	2200      	movs	r2, #0
 8007dfa:	f883 2050 	strb.w	r2, [r3, #80]	; 0x50
  return errorcode;
 8007dfe:	7dfb      	ldrb	r3, [r7, #23]
}
 8007e00:	4618      	mov	r0, r3
 8007e02:	3718      	adds	r7, #24
 8007e04:	46bd      	mov	sp, r7
 8007e06:	bd80      	pop	{r7, pc}

08007e08 <HAL_SPI_TransmitReceive>:
  * @param  Timeout Timeout duration
  * @retval HAL status
  */
HAL_StatusTypeDef HAL_SPI_TransmitReceive(SPI_HandleTypeDef *hspi, uint8_t *pTxData, uint8_t *pRxData, uint16_t Size,
                                          uint32_t Timeout)
{
 8007e08:	b580      	push	{r7, lr}
 8007e0a:	b08c      	sub	sp, #48	; 0x30
 8007e0c:	af00      	add	r7, sp, #0
 8007e0e:	60f8      	str	r0, [r7, #12]
 8007e10:	60b9      	str	r1, [r7, #8]
 8007e12:	607a      	str	r2, [r7, #4]
 8007e14:	807b      	strh	r3, [r7, #2]
#if (USE_SPI_CRC != 0U)
  __IO uint32_t tmpreg = 0U;
#endif /* USE_SPI_CRC */

  /* Variable used to alternate Rx and Tx during transfer */
  uint32_t             txallowed = 1U;
 8007e16:	2301      	movs	r3, #1
 8007e18:	62fb      	str	r3, [r7, #44]	; 0x2c
  HAL_StatusTypeDef    errorcode = HAL_OK;
 8007e1a:	2300      	movs	r3, #0
 8007e1c:	f887 302b 	strb.w	r3, [r7, #43]	; 0x2b

  /* Check Direction parameter */
  assert_param(IS_SPI_DIRECTION_2LINES(hspi->Init.Direction));

  /* Process Locked */
  __HAL_LOCK(hspi);
 8007e20:	68fb      	ldr	r3, [r7, #12]
 8007e22:	f893 3050 	ldrb.w	r3, [r3, #80]	; 0x50
 8007e26:	2b01      	cmp	r3, #1
 8007e28:	d101      	bne.n	8007e2e <HAL_SPI_TransmitReceive+0x26>
 8007e2a:	2302      	movs	r3, #2
 8007e2c:	e18a      	b.n	8008144 <HAL_SPI_TransmitReceive+0x33c>
 8007e2e:	68fb      	ldr	r3, [r7, #12]
 8007e30:	2201      	movs	r2, #1
 8007e32:	f883 2050 	strb.w	r2, [r3, #80]	; 0x50

  /* Init tickstart for timeout management*/
  tickstart = HAL_GetTick();
 8007e36:	f7fd ff27 	bl	8005c88 <HAL_GetTick>
 8007e3a:	6278      	str	r0, [r7, #36]	; 0x24

  /* Init temporary variables */
  tmp_state           = hspi->State;
 8007e3c:	68fb      	ldr	r3, [r7, #12]
 8007e3e:	f893 3051 	ldrb.w	r3, [r3, #81]	; 0x51
 8007e42:	f887 3023 	strb.w	r3, [r7, #35]	; 0x23
  tmp_mode            = hspi->Init.Mode;
 8007e46:	68fb      	ldr	r3, [r7, #12]
 8007e48:	685b      	ldr	r3, [r3, #4]
 8007e4a:	61fb      	str	r3, [r7, #28]
  initial_TxXferCount = Size;
 8007e4c:	887b      	ldrh	r3, [r7, #2]
 8007e4e:	837b      	strh	r3, [r7, #26]

  if (!((tmp_state == HAL_SPI_STATE_READY) || \
 8007e50:	f897 3023 	ldrb.w	r3, [r7, #35]	; 0x23
 8007e54:	2b01      	cmp	r3, #1
 8007e56:	d00f      	beq.n	8007e78 <HAL_SPI_TransmitReceive+0x70>
 8007e58:	69fb      	ldr	r3, [r7, #28]
 8007e5a:	f5b3 7f82 	cmp.w	r3, #260	; 0x104
 8007e5e:	d107      	bne.n	8007e70 <HAL_SPI_TransmitReceive+0x68>
        ((tmp_mode == SPI_MODE_MASTER) && (hspi->Init.Direction == SPI_DIRECTION_2LINES) && (tmp_state == HAL_SPI_STATE_BUSY_RX))))
 8007e60:	68fb      	ldr	r3, [r7, #12]
 8007e62:	689b      	ldr	r3, [r3, #8]
 8007e64:	2b00      	cmp	r3, #0
 8007e66:	d103      	bne.n	8007e70 <HAL_SPI_TransmitReceive+0x68>
 8007e68:	f897 3023 	ldrb.w	r3, [r7, #35]	; 0x23
 8007e6c:	2b04      	cmp	r3, #4
 8007e6e:	d003      	beq.n	8007e78 <HAL_SPI_TransmitReceive+0x70>
  {
    errorcode = HAL_BUSY;
 8007e70:	2302      	movs	r3, #2
 8007e72:	f887 302b 	strb.w	r3, [r7, #43]	; 0x2b
    goto error;
 8007e76:	e15b      	b.n	8008130 <HAL_SPI_TransmitReceive+0x328>
  }

  if ((pTxData == NULL) || (pRxData == NULL) || (Size == 0U))
 8007e78:	68bb      	ldr	r3, [r7, #8]
 8007e7a:	2b00      	cmp	r3, #0
 8007e7c:	d005      	beq.n	8007e8a <HAL_SPI_TransmitReceive+0x82>
 8007e7e:	687b      	ldr	r3, [r7, #4]
 8007e80:	2b00      	cmp	r3, #0
 8007e82:	d002      	beq.n	8007e8a <HAL_SPI_TransmitReceive+0x82>
 8007e84:	887b      	ldrh	r3, [r7, #2]
 8007e86:	2b00      	cmp	r3, #0
 8007e88:	d103      	bne.n	8007e92 <HAL_SPI_TransmitReceive+0x8a>
  {
    errorcode = HAL_ERROR;
 8007e8a:	2301      	movs	r3, #1
 8007e8c:	f887 302b 	strb.w	r3, [r7, #43]	; 0x2b
    goto error;
 8007e90:	e14e      	b.n	8008130 <HAL_SPI_TransmitReceive+0x328>
  }

  /* Don't overwrite in case of HAL_SPI_STATE_BUSY_RX */
  if (hspi->State != HAL_SPI_STATE_BUSY_RX)
 8007e92:	68fb      	ldr	r3, [r7, #12]
 8007e94:	f893 3051 	ldrb.w	r3, [r3, #81]	; 0x51
 8007e98:	b2db      	uxtb	r3, r3
 8007e9a:	2b04      	cmp	r3, #4
 8007e9c:	d003      	beq.n	8007ea6 <HAL_SPI_TransmitReceive+0x9e>
  {
    hspi->State = HAL_SPI_STATE_BUSY_TX_RX;
 8007e9e:	68fb      	ldr	r3, [r7, #12]
 8007ea0:	2205      	movs	r2, #5
 8007ea2:	f883 2051 	strb.w	r2, [r3, #81]	; 0x51
  }

  /* Set the transaction information */
  hspi->ErrorCode   = HAL_SPI_ERROR_NONE;
 8007ea6:	68fb      	ldr	r3, [r7, #12]
 8007ea8:	2200      	movs	r2, #0
 8007eaa:	655a      	str	r2, [r3, #84]	; 0x54
  hspi->pRxBuffPtr  = (uint8_t *)pRxData;
 8007eac:	68fb      	ldr	r3, [r7, #12]
 8007eae:	687a      	ldr	r2, [r7, #4]
 8007eb0:	639a      	str	r2, [r3, #56]	; 0x38
  hspi->RxXferCount = Size;
 8007eb2:	68fb      	ldr	r3, [r7, #12]
 8007eb4:	887a      	ldrh	r2, [r7, #2]
 8007eb6:	87da      	strh	r2, [r3, #62]	; 0x3e
  hspi->RxXferSize  = Size;
 8007eb8:	68fb      	ldr	r3, [r7, #12]
 8007eba:	887a      	ldrh	r2, [r7, #2]
 8007ebc:	879a      	strh	r2, [r3, #60]	; 0x3c
  hspi->pTxBuffPtr  = (uint8_t *)pTxData;
 8007ebe:	68fb      	ldr	r3, [r7, #12]
 8007ec0:	68ba      	ldr	r2, [r7, #8]
 8007ec2:	631a      	str	r2, [r3, #48]	; 0x30
  hspi->TxXferCount = Size;
 8007ec4:	68fb      	ldr	r3, [r7, #12]
 8007ec6:	887a      	ldrh	r2, [r7, #2]
 8007ec8:	86da      	strh	r2, [r3, #54]	; 0x36
  hspi->TxXferSize  = Size;
 8007eca:	68fb      	ldr	r3, [r7, #12]
 8007ecc:	887a      	ldrh	r2, [r7, #2]
 8007ece:	869a      	strh	r2, [r3, #52]	; 0x34

  /*Init field not used in handle to zero */
  hspi->RxISR       = NULL;
 8007ed0:	68fb      	ldr	r3, [r7, #12]
 8007ed2:	2200      	movs	r2, #0
 8007ed4:	641a      	str	r2, [r3, #64]	; 0x40
  hspi->TxISR       = NULL;
 8007ed6:	68fb      	ldr	r3, [r7, #12]
 8007ed8:	2200      	movs	r2, #0
 8007eda:	645a      	str	r2, [r3, #68]	; 0x44
    SPI_RESET_CRC(hspi);
  }
#endif /* USE_SPI_CRC */

  /* Check if the SPI is already enabled */
  if ((hspi->Instance->CR1 & SPI_CR1_SPE) != SPI_CR1_SPE)
 8007edc:	68fb      	ldr	r3, [r7, #12]
 8007ede:	681b      	ldr	r3, [r3, #0]
 8007ee0:	681b      	ldr	r3, [r3, #0]
 8007ee2:	f003 0340 	and.w	r3, r3, #64	; 0x40
 8007ee6:	2b40      	cmp	r3, #64	; 0x40
 8007ee8:	d007      	beq.n	8007efa <HAL_SPI_TransmitReceive+0xf2>
  {
    /* Enable SPI peripheral */
    __HAL_SPI_ENABLE(hspi);
 8007eea:	68fb      	ldr	r3, [r7, #12]
 8007eec:	681b      	ldr	r3, [r3, #0]
 8007eee:	681a      	ldr	r2, [r3, #0]
 8007ef0:	68fb      	ldr	r3, [r7, #12]
 8007ef2:	681b      	ldr	r3, [r3, #0]
 8007ef4:	f042 0240 	orr.w	r2, r2, #64	; 0x40
 8007ef8:	601a      	str	r2, [r3, #0]
  }

  /* Transmit and Receive data in 16 Bit mode */
  if (hspi->Init.DataSize == SPI_DATASIZE_16BIT)
 8007efa:	68fb      	ldr	r3, [r7, #12]
 8007efc:	68db      	ldr	r3, [r3, #12]
 8007efe:	f5b3 6f00 	cmp.w	r3, #2048	; 0x800
 8007f02:	d178      	bne.n	8007ff6 <HAL_SPI_TransmitReceive+0x1ee>
  {
    if ((hspi->Init.Mode == SPI_MODE_SLAVE) || (initial_TxXferCount == 0x01U))
 8007f04:	68fb      	ldr	r3, [r7, #12]
 8007f06:	685b      	ldr	r3, [r3, #4]
 8007f08:	2b00      	cmp	r3, #0
 8007f0a:	d002      	beq.n	8007f12 <HAL_SPI_TransmitReceive+0x10a>
 8007f0c:	8b7b      	ldrh	r3, [r7, #26]
 8007f0e:	2b01      	cmp	r3, #1
 8007f10:	d166      	bne.n	8007fe0 <HAL_SPI_TransmitReceive+0x1d8>
    {
      hspi->Instance->DR = *((uint16_t *)hspi->pTxBuffPtr);
 8007f12:	68fb      	ldr	r3, [r7, #12]
 8007f14:	6b1b      	ldr	r3, [r3, #48]	; 0x30
 8007f16:	881a      	ldrh	r2, [r3, #0]
 8007f18:	68fb      	ldr	r3, [r7, #12]
 8007f1a:	681b      	ldr	r3, [r3, #0]
 8007f1c:	60da      	str	r2, [r3, #12]
      hspi->pTxBuffPtr += sizeof(uint16_t);
 8007f1e:	68fb      	ldr	r3, [r7, #12]
 8007f20:	6b1b      	ldr	r3, [r3, #48]	; 0x30
 8007f22:	1c9a      	adds	r2, r3, #2
 8007f24:	68fb      	ldr	r3, [r7, #12]
 8007f26:	631a      	str	r2, [r3, #48]	; 0x30
      hspi->TxXferCount--;
 8007f28:	68fb      	ldr	r3, [r7, #12]
 8007f2a:	8edb      	ldrh	r3, [r3, #54]	; 0x36
 8007f2c:	b29b      	uxth	r3, r3
 8007f2e:	3b01      	subs	r3, #1
 8007f30:	b29a      	uxth	r2, r3
 8007f32:	68fb      	ldr	r3, [r7, #12]
 8007f34:	86da      	strh	r2, [r3, #54]	; 0x36
    }
    while ((hspi->TxXferCount > 0U) || (hspi->RxXferCount > 0U))
 8007f36:	e053      	b.n	8007fe0 <HAL_SPI_TransmitReceive+0x1d8>
    {
      /* Check TXE flag */
      if ((__HAL_SPI_GET_FLAG(hspi, SPI_FLAG_TXE)) && (hspi->TxXferCount > 0U) && (txallowed == 1U))
 8007f38:	68fb      	ldr	r3, [r7, #12]
 8007f3a:	681b      	ldr	r3, [r3, #0]
 8007f3c:	689b      	ldr	r3, [r3, #8]
 8007f3e:	f003 0302 	and.w	r3, r3, #2
 8007f42:	2b02      	cmp	r3, #2
 8007f44:	d11b      	bne.n	8007f7e <HAL_SPI_TransmitReceive+0x176>
 8007f46:	68fb      	ldr	r3, [r7, #12]
 8007f48:	8edb      	ldrh	r3, [r3, #54]	; 0x36
 8007f4a:	b29b      	uxth	r3, r3
 8007f4c:	2b00      	cmp	r3, #0
 8007f4e:	d016      	beq.n	8007f7e <HAL_SPI_TransmitReceive+0x176>
 8007f50:	6afb      	ldr	r3, [r7, #44]	; 0x2c
 8007f52:	2b01      	cmp	r3, #1
 8007f54:	d113      	bne.n	8007f7e <HAL_SPI_TransmitReceive+0x176>
      {
        hspi->Instance->DR = *((uint16_t *)hspi->pTxBuffPtr);
 8007f56:	68fb      	ldr	r3, [r7, #12]
 8007f58:	6b1b      	ldr	r3, [r3, #48]	; 0x30
 8007f5a:	881a      	ldrh	r2, [r3, #0]
 8007f5c:	68fb      	ldr	r3, [r7, #12]
 8007f5e:	681b      	ldr	r3, [r3, #0]
 8007f60:	60da      	str	r2, [r3, #12]
        hspi->pTxBuffPtr += sizeof(uint16_t);
 8007f62:	68fb      	ldr	r3, [r7, #12]
 8007f64:	6b1b      	ldr	r3, [r3, #48]	; 0x30
 8007f66:	1c9a      	adds	r2, r3, #2
 8007f68:	68fb      	ldr	r3, [r7, #12]
 8007f6a:	631a      	str	r2, [r3, #48]	; 0x30
        hspi->TxXferCount--;
 8007f6c:	68fb      	ldr	r3, [r7, #12]
 8007f6e:	8edb      	ldrh	r3, [r3, #54]	; 0x36
 8007f70:	b29b      	uxth	r3, r3
 8007f72:	3b01      	subs	r3, #1
 8007f74:	b29a      	uxth	r2, r3
 8007f76:	68fb      	ldr	r3, [r7, #12]
 8007f78:	86da      	strh	r2, [r3, #54]	; 0x36
        /* Next Data is a reception (Rx). Tx not allowed */
        txallowed = 0U;
 8007f7a:	2300      	movs	r3, #0
 8007f7c:	62fb      	str	r3, [r7, #44]	; 0x2c
        }
#endif /* USE_SPI_CRC */
      }

      /* Check RXNE flag */
      if ((__HAL_SPI_GET_FLAG(hspi, SPI_FLAG_RXNE)) && (hspi->RxXferCount > 0U))
 8007f7e:	68fb      	ldr	r3, [r7, #12]
 8007f80:	681b      	ldr	r3, [r3, #0]
 8007f82:	689b      	ldr	r3, [r3, #8]
 8007f84:	f003 0301 	and.w	r3, r3, #1
 8007f88:	2b01      	cmp	r3, #1
 8007f8a:	d119      	bne.n	8007fc0 <HAL_SPI_TransmitReceive+0x1b8>
 8007f8c:	68fb      	ldr	r3, [r7, #12]
 8007f8e:	8fdb      	ldrh	r3, [r3, #62]	; 0x3e
 8007f90:	b29b      	uxth	r3, r3
 8007f92:	2b00      	cmp	r3, #0
 8007f94:	d014      	beq.n	8007fc0 <HAL_SPI_TransmitReceive+0x1b8>
      {
        *((uint16_t *)hspi->pRxBuffPtr) = (uint16_t)hspi->Instance->DR;
 8007f96:	68fb      	ldr	r3, [r7, #12]
 8007f98:	681b      	ldr	r3, [r3, #0]
 8007f9a:	68da      	ldr	r2, [r3, #12]
 8007f9c:	68fb      	ldr	r3, [r7, #12]
 8007f9e:	6b9b      	ldr	r3, [r3, #56]	; 0x38
 8007fa0:	b292      	uxth	r2, r2
 8007fa2:	801a      	strh	r2, [r3, #0]
        hspi->pRxBuffPtr += sizeof(uint16_t);
 8007fa4:	68fb      	ldr	r3, [r7, #12]
 8007fa6:	6b9b      	ldr	r3, [r3, #56]	; 0x38
 8007fa8:	1c9a      	adds	r2, r3, #2
 8007faa:	68fb      	ldr	r3, [r7, #12]
 8007fac:	639a      	str	r2, [r3, #56]	; 0x38
        hspi->RxXferCount--;
 8007fae:	68fb      	ldr	r3, [r7, #12]
 8007fb0:	8fdb      	ldrh	r3, [r3, #62]	; 0x3e
 8007fb2:	b29b      	uxth	r3, r3
 8007fb4:	3b01      	subs	r3, #1
 8007fb6:	b29a      	uxth	r2, r3
 8007fb8:	68fb      	ldr	r3, [r7, #12]
 8007fba:	87da      	strh	r2, [r3, #62]	; 0x3e
        /* Next Data is a Transmission (Tx). Tx is allowed */
        txallowed = 1U;
 8007fbc:	2301      	movs	r3, #1
 8007fbe:	62fb      	str	r3, [r7, #44]	; 0x2c
      }
      if (((HAL_GetTick() - tickstart) >=  Timeout) && (Timeout != HAL_MAX_DELAY))
 8007fc0:	f7fd fe62 	bl	8005c88 <HAL_GetTick>
 8007fc4:	4602      	mov	r2, r0
 8007fc6:	6a7b      	ldr	r3, [r7, #36]	; 0x24
 8007fc8:	1ad3      	subs	r3, r2, r3
 8007fca:	6bba      	ldr	r2, [r7, #56]	; 0x38
 8007fcc:	429a      	cmp	r2, r3
 8007fce:	d807      	bhi.n	8007fe0 <HAL_SPI_TransmitReceive+0x1d8>
 8007fd0:	6bbb      	ldr	r3, [r7, #56]	; 0x38
 8007fd2:	f1b3 3fff 	cmp.w	r3, #4294967295
 8007fd6:	d003      	beq.n	8007fe0 <HAL_SPI_TransmitReceive+0x1d8>
      {
        errorcode = HAL_TIMEOUT;
 8007fd8:	2303      	movs	r3, #3
 8007fda:	f887 302b 	strb.w	r3, [r7, #43]	; 0x2b
        goto error;
 8007fde:	e0a7      	b.n	8008130 <HAL_SPI_TransmitReceive+0x328>
    while ((hspi->TxXferCount > 0U) || (hspi->RxXferCount > 0U))
 8007fe0:	68fb      	ldr	r3, [r7, #12]
 8007fe2:	8edb      	ldrh	r3, [r3, #54]	; 0x36
 8007fe4:	b29b      	uxth	r3, r3
 8007fe6:	2b00      	cmp	r3, #0
 8007fe8:	d1a6      	bne.n	8007f38 <HAL_SPI_TransmitReceive+0x130>
 8007fea:	68fb      	ldr	r3, [r7, #12]
 8007fec:	8fdb      	ldrh	r3, [r3, #62]	; 0x3e
 8007fee:	b29b      	uxth	r3, r3
 8007ff0:	2b00      	cmp	r3, #0
 8007ff2:	d1a1      	bne.n	8007f38 <HAL_SPI_TransmitReceive+0x130>
 8007ff4:	e07c      	b.n	80080f0 <HAL_SPI_TransmitReceive+0x2e8>
    }
  }
  /* Transmit and Receive data in 8 Bit mode */
  else
  {
    if ((hspi->Init.Mode == SPI_MODE_SLAVE) || (initial_TxXferCount == 0x01U))
 8007ff6:	68fb      	ldr	r3, [r7, #12]
 8007ff8:	685b      	ldr	r3, [r3, #4]
 8007ffa:	2b00      	cmp	r3, #0
 8007ffc:	d002      	beq.n	8008004 <HAL_SPI_TransmitReceive+0x1fc>
 8007ffe:	8b7b      	ldrh	r3, [r7, #26]
 8008000:	2b01      	cmp	r3, #1
 8008002:	d16b      	bne.n	80080dc <HAL_SPI_TransmitReceive+0x2d4>
    {
      *((__IO uint8_t *)&hspi->Instance->DR) = (*hspi->pTxBuffPtr);
 8008004:	68fb      	ldr	r3, [r7, #12]
 8008006:	6b1a      	ldr	r2, [r3, #48]	; 0x30
 8008008:	68fb      	ldr	r3, [r7, #12]
 800800a:	681b      	ldr	r3, [r3, #0]
 800800c:	330c      	adds	r3, #12
 800800e:	7812      	ldrb	r2, [r2, #0]
 8008010:	701a      	strb	r2, [r3, #0]
      hspi->pTxBuffPtr += sizeof(uint8_t);
 8008012:	68fb      	ldr	r3, [r7, #12]
 8008014:	6b1b      	ldr	r3, [r3, #48]	; 0x30
 8008016:	1c5a      	adds	r2, r3, #1
 8008018:	68fb      	ldr	r3, [r7, #12]
 800801a:	631a      	str	r2, [r3, #48]	; 0x30
      hspi->TxXferCount--;
 800801c:	68fb      	ldr	r3, [r7, #12]
 800801e:	8edb      	ldrh	r3, [r3, #54]	; 0x36
 8008020:	b29b      	uxth	r3, r3
 8008022:	3b01      	subs	r3, #1
 8008024:	b29a      	uxth	r2, r3
 8008026:	68fb      	ldr	r3, [r7, #12]
 8008028:	86da      	strh	r2, [r3, #54]	; 0x36
    }
    while ((hspi->TxXferCount > 0U) || (hspi->RxXferCount > 0U))
 800802a:	e057      	b.n	80080dc <HAL_SPI_TransmitReceive+0x2d4>
    {
      /* Check TXE flag */
      if ((__HAL_SPI_GET_FLAG(hspi, SPI_FLAG_TXE)) && (hspi->TxXferCount > 0U) && (txallowed == 1U))
 800802c:	68fb      	ldr	r3, [r7, #12]
 800802e:	681b      	ldr	r3, [r3, #0]
 8008030:	689b      	ldr	r3, [r3, #8]
 8008032:	f003 0302 	and.w	r3, r3, #2
 8008036:	2b02      	cmp	r3, #2
 8008038:	d11c      	bne.n	8008074 <HAL_SPI_TransmitReceive+0x26c>
 800803a:	68fb      	ldr	r3, [r7, #12]
 800803c:	8edb      	ldrh	r3, [r3, #54]	; 0x36
 800803e:	b29b      	uxth	r3, r3
 8008040:	2b00      	cmp	r3, #0
 8008042:	d017      	beq.n	8008074 <HAL_SPI_TransmitReceive+0x26c>
 8008044:	6afb      	ldr	r3, [r7, #44]	; 0x2c
 8008046:	2b01      	cmp	r3, #1
 8008048:	d114      	bne.n	8008074 <HAL_SPI_TransmitReceive+0x26c>
      {
        *(__IO uint8_t *)&hspi->Instance->DR = (*hspi->pTxBuffPtr);
 800804a:	68fb      	ldr	r3, [r7, #12]
 800804c:	6b1a      	ldr	r2, [r3, #48]	; 0x30
 800804e:	68fb      	ldr	r3, [r7, #12]
 8008050:	681b      	ldr	r3, [r3, #0]
 8008052:	330c      	adds	r3, #12
 8008054:	7812      	ldrb	r2, [r2, #0]
 8008056:	701a      	strb	r2, [r3, #0]
        hspi->pTxBuffPtr++;
 8008058:	68fb      	ldr	r3, [r7, #12]
 800805a:	6b1b      	ldr	r3, [r3, #48]	; 0x30
 800805c:	1c5a      	adds	r2, r3, #1
 800805e:	68fb      	ldr	r3, [r7, #12]
 8008060:	631a      	str	r2, [r3, #48]	; 0x30
        hspi->TxXferCount--;
 8008062:	68fb      	ldr	r3, [r7, #12]
 8008064:	8edb      	ldrh	r3, [r3, #54]	; 0x36
 8008066:	b29b      	uxth	r3, r3
 8008068:	3b01      	subs	r3, #1
 800806a:	b29a      	uxth	r2, r3
 800806c:	68fb      	ldr	r3, [r7, #12]
 800806e:	86da      	strh	r2, [r3, #54]	; 0x36
        /* Next Data is a reception (Rx). Tx not allowed */
        txallowed = 0U;
 8008070:	2300      	movs	r3, #0
 8008072:	62fb      	str	r3, [r7, #44]	; 0x2c
        }
#endif /* USE_SPI_CRC */
      }

      /* Wait until RXNE flag is reset */
      if ((__HAL_SPI_GET_FLAG(hspi, SPI_FLAG_RXNE)) && (hspi->RxXferCount > 0U))
 8008074:	68fb      	ldr	r3, [r7, #12]
 8008076:	681b      	ldr	r3, [r3, #0]
 8008078:	689b      	ldr	r3, [r3, #8]
 800807a:	f003 0301 	and.w	r3, r3, #1
 800807e:	2b01      	cmp	r3, #1
 8008080:	d119      	bne.n	80080b6 <HAL_SPI_TransmitReceive+0x2ae>
 8008082:	68fb      	ldr	r3, [r7, #12]
 8008084:	8fdb      	ldrh	r3, [r3, #62]	; 0x3e
 8008086:	b29b      	uxth	r3, r3
 8008088:	2b00      	cmp	r3, #0
 800808a:	d014      	beq.n	80080b6 <HAL_SPI_TransmitReceive+0x2ae>
      {
        (*(uint8_t *)hspi->pRxBuffPtr) = hspi->Instance->DR;
 800808c:	68fb      	ldr	r3, [r7, #12]
 800808e:	681b      	ldr	r3, [r3, #0]
 8008090:	68da      	ldr	r2, [r3, #12]
 8008092:	68fb      	ldr	r3, [r7, #12]
 8008094:	6b9b      	ldr	r3, [r3, #56]	; 0x38
 8008096:	b2d2      	uxtb	r2, r2
 8008098:	701a      	strb	r2, [r3, #0]
        hspi->pRxBuffPtr++;
 800809a:	68fb      	ldr	r3, [r7, #12]
 800809c:	6b9b      	ldr	r3, [r3, #56]	; 0x38
 800809e:	1c5a      	adds	r2, r3, #1
 80080a0:	68fb      	ldr	r3, [r7, #12]
 80080a2:	639a      	str	r2, [r3, #56]	; 0x38
        hspi->RxXferCount--;
 80080a4:	68fb      	ldr	r3, [r7, #12]
 80080a6:	8fdb      	ldrh	r3, [r3, #62]	; 0x3e
 80080a8:	b29b      	uxth	r3, r3
 80080aa:	3b01      	subs	r3, #1
 80080ac:	b29a      	uxth	r2, r3
 80080ae:	68fb      	ldr	r3, [r7, #12]
 80080b0:	87da      	strh	r2, [r3, #62]	; 0x3e
        /* Next Data is a Transmission (Tx). Tx is allowed */
        txallowed = 1U;
 80080b2:	2301      	movs	r3, #1
 80080b4:	62fb      	str	r3, [r7, #44]	; 0x2c
      }
      if ((((HAL_GetTick() - tickstart) >=  Timeout) && ((Timeout != HAL_MAX_DELAY))) || (Timeout == 0U))
 80080b6:	f7fd fde7 	bl	8005c88 <HAL_GetTick>
 80080ba:	4602      	mov	r2, r0
 80080bc:	6a7b      	ldr	r3, [r7, #36]	; 0x24
 80080be:	1ad3      	subs	r3, r2, r3
 80080c0:	6bba      	ldr	r2, [r7, #56]	; 0x38
 80080c2:	429a      	cmp	r2, r3
 80080c4:	d803      	bhi.n	80080ce <HAL_SPI_TransmitReceive+0x2c6>
 80080c6:	6bbb      	ldr	r3, [r7, #56]	; 0x38
 80080c8:	f1b3 3fff 	cmp.w	r3, #4294967295
 80080cc:	d102      	bne.n	80080d4 <HAL_SPI_TransmitReceive+0x2cc>
 80080ce:	6bbb      	ldr	r3, [r7, #56]	; 0x38
 80080d0:	2b00      	cmp	r3, #0
 80080d2:	d103      	bne.n	80080dc <HAL_SPI_TransmitReceive+0x2d4>
      {
        errorcode = HAL_TIMEOUT;
 80080d4:	2303      	movs	r3, #3
 80080d6:	f887 302b 	strb.w	r3, [r7, #43]	; 0x2b
        goto error;
 80080da:	e029      	b.n	8008130 <HAL_SPI_TransmitReceive+0x328>
    while ((hspi->TxXferCount > 0U) || (hspi->RxXferCount > 0U))
 80080dc:	68fb      	ldr	r3, [r7, #12]
 80080de:	8edb      	ldrh	r3, [r3, #54]	; 0x36
 80080e0:	b29b      	uxth	r3, r3
 80080e2:	2b00      	cmp	r3, #0
 80080e4:	d1a2      	bne.n	800802c <HAL_SPI_TransmitReceive+0x224>
 80080e6:	68fb      	ldr	r3, [r7, #12]
 80080e8:	8fdb      	ldrh	r3, [r3, #62]	; 0x3e
 80080ea:	b29b      	uxth	r3, r3
 80080ec:	2b00      	cmp	r3, #0
 80080ee:	d19d      	bne.n	800802c <HAL_SPI_TransmitReceive+0x224>
    errorcode = HAL_ERROR;
  }
#endif /* USE_SPI_CRC */

  /* Check the end of the transaction */
  if (SPI_EndRxTxTransaction(hspi, Timeout, tickstart) != HAL_OK)
 80080f0:	6a7a      	ldr	r2, [r7, #36]	; 0x24
 80080f2:	6bb9      	ldr	r1, [r7, #56]	; 0x38
 80080f4:	68f8      	ldr	r0, [r7, #12]
 80080f6:	f000 f917 	bl	8008328 <SPI_EndRxTxTransaction>
 80080fa:	4603      	mov	r3, r0
 80080fc:	2b00      	cmp	r3, #0
 80080fe:	d006      	beq.n	800810e <HAL_SPI_TransmitReceive+0x306>
  {
    errorcode = HAL_ERROR;
 8008100:	2301      	movs	r3, #1
 8008102:	f887 302b 	strb.w	r3, [r7, #43]	; 0x2b
    hspi->ErrorCode = HAL_SPI_ERROR_FLAG;
 8008106:	68fb      	ldr	r3, [r7, #12]
 8008108:	2220      	movs	r2, #32
 800810a:	655a      	str	r2, [r3, #84]	; 0x54
    goto error;
 800810c:	e010      	b.n	8008130 <HAL_SPI_TransmitReceive+0x328>
  }

  /* Clear overrun flag in 2 Lines communication mode because received is not read */
  if (hspi->Init.Direction == SPI_DIRECTION_2LINES)
 800810e:	68fb      	ldr	r3, [r7, #12]
 8008110:	689b      	ldr	r3, [r3, #8]
 8008112:	2b00      	cmp	r3, #0
 8008114:	d10b      	bne.n	800812e <HAL_SPI_TransmitReceive+0x326>
  {
    __HAL_SPI_CLEAR_OVRFLAG(hspi);
 8008116:	2300      	movs	r3, #0
 8008118:	617b      	str	r3, [r7, #20]
 800811a:	68fb      	ldr	r3, [r7, #12]
 800811c:	681b      	ldr	r3, [r3, #0]
 800811e:	68db      	ldr	r3, [r3, #12]
 8008120:	617b      	str	r3, [r7, #20]
 8008122:	68fb      	ldr	r3, [r7, #12]
 8008124:	681b      	ldr	r3, [r3, #0]
 8008126:	689b      	ldr	r3, [r3, #8]
 8008128:	617b      	str	r3, [r7, #20]
 800812a:	697b      	ldr	r3, [r7, #20]
 800812c:	e000      	b.n	8008130 <HAL_SPI_TransmitReceive+0x328>
  }

error :
 800812e:	bf00      	nop
  hspi->State = HAL_SPI_STATE_READY;
 8008130:	68fb      	ldr	r3, [r7, #12]
 8008132:	2201      	movs	r2, #1
 8008134:	f883 2051 	strb.w	r2, [r3, #81]	; 0x51
  __HAL_UNLOCK(hspi);
 8008138:	68fb      	ldr	r3, [r7, #12]
 800813a:	2200      	movs	r2, #0
 800813c:	f883 2050 	strb.w	r2, [r3, #80]	; 0x50
  return errorcode;
 8008140:	f897 302b 	ldrb.w	r3, [r7, #43]	; 0x2b
}
 8008144:	4618      	mov	r0, r3
 8008146:	3730      	adds	r7, #48	; 0x30
 8008148:	46bd      	mov	sp, r7
 800814a:	bd80      	pop	{r7, pc}

0800814c <SPI_WaitFlagStateUntilTimeout>:
  * @param  Tickstart tick start value
  * @retval HAL status
  */
static HAL_StatusTypeDef SPI_WaitFlagStateUntilTimeout(SPI_HandleTypeDef *hspi, uint32_t Flag, FlagStatus State,
                                                       uint32_t Timeout, uint32_t Tickstart)
{
 800814c:	b580      	push	{r7, lr}
 800814e:	b088      	sub	sp, #32
 8008150:	af00      	add	r7, sp, #0
 8008152:	60f8      	str	r0, [r7, #12]
 8008154:	60b9      	str	r1, [r7, #8]
 8008156:	603b      	str	r3, [r7, #0]
 8008158:	4613      	mov	r3, r2
 800815a:	71fb      	strb	r3, [r7, #7]
  __IO uint32_t count;
  uint32_t tmp_timeout;
  uint32_t tmp_tickstart;

  /* Adjust Timeout value  in case of end of transfer */
  tmp_timeout   = Timeout - (HAL_GetTick() - Tickstart);
 800815c:	f7fd fd94 	bl	8005c88 <HAL_GetTick>
 8008160:	4602      	mov	r2, r0
 8008162:	6abb      	ldr	r3, [r7, #40]	; 0x28
 8008164:	1a9b      	subs	r3, r3, r2
 8008166:	683a      	ldr	r2, [r7, #0]
 8008168:	4413      	add	r3, r2
 800816a:	61fb      	str	r3, [r7, #28]
  tmp_tickstart = HAL_GetTick();
 800816c:	f7fd fd8c 	bl	8005c88 <HAL_GetTick>
 8008170:	61b8      	str	r0, [r7, #24]

  /* Calculate Timeout based on a software loop to avoid blocking issue if Systick is disabled */
  count = tmp_timeout * ((SystemCoreClock * 32U) >> 20U);
 8008172:	4b39      	ldr	r3, [pc, #228]	; (8008258 <SPI_WaitFlagStateUntilTimeout+0x10c>)
 8008174:	681b      	ldr	r3, [r3, #0]
 8008176:	015b      	lsls	r3, r3, #5
 8008178:	0d1b      	lsrs	r3, r3, #20
 800817a:	69fa      	ldr	r2, [r7, #28]
 800817c:	fb02 f303 	mul.w	r3, r2, r3
 8008180:	617b      	str	r3, [r7, #20]

  while ((__HAL_SPI_GET_FLAG(hspi, Flag) ? SET : RESET) != State)
 8008182:	e054      	b.n	800822e <SPI_WaitFlagStateUntilTimeout+0xe2>
  {
    if (Timeout != HAL_MAX_DELAY)
 8008184:	683b      	ldr	r3, [r7, #0]
 8008186:	f1b3 3fff 	cmp.w	r3, #4294967295
 800818a:	d050      	beq.n	800822e <SPI_WaitFlagStateUntilTimeout+0xe2>
    {
      if (((HAL_GetTick() - tmp_tickstart) >= tmp_timeout) || (tmp_timeout == 0U))
 800818c:	f7fd fd7c 	bl	8005c88 <HAL_GetTick>
 8008190:	4602      	mov	r2, r0
 8008192:	69bb      	ldr	r3, [r7, #24]
 8008194:	1ad3      	subs	r3, r2, r3
 8008196:	69fa      	ldr	r2, [r7, #28]
 8008198:	429a      	cmp	r2, r3
 800819a:	d902      	bls.n	80081a2 <SPI_WaitFlagStateUntilTimeout+0x56>
 800819c:	69fb      	ldr	r3, [r7, #28]
 800819e:	2b00      	cmp	r3, #0
 80081a0:	d13d      	bne.n	800821e <SPI_WaitFlagStateUntilTimeout+0xd2>
        /* Disable the SPI and reset the CRC: the CRC value should be cleared
           on both master and slave sides in order to resynchronize the master
           and slave for their respective CRC calculation */

        /* Disable TXE, RXNE and ERR interrupts for the interrupt process */
        __HAL_SPI_DISABLE_IT(hspi, (SPI_IT_TXE | SPI_IT_RXNE | SPI_IT_ERR));
 80081a2:	68fb      	ldr	r3, [r7, #12]
 80081a4:	681b      	ldr	r3, [r3, #0]
 80081a6:	685a      	ldr	r2, [r3, #4]
 80081a8:	68fb      	ldr	r3, [r7, #12]
 80081aa:	681b      	ldr	r3, [r3, #0]
 80081ac:	f022 02e0 	bic.w	r2, r2, #224	; 0xe0
 80081b0:	605a      	str	r2, [r3, #4]

        if ((hspi->Init.Mode == SPI_MODE_MASTER) && ((hspi->Init.Direction == SPI_DIRECTION_1LINE)
 80081b2:	68fb      	ldr	r3, [r7, #12]
 80081b4:	685b      	ldr	r3, [r3, #4]
 80081b6:	f5b3 7f82 	cmp.w	r3, #260	; 0x104
 80081ba:	d111      	bne.n	80081e0 <SPI_WaitFlagStateUntilTimeout+0x94>
 80081bc:	68fb      	ldr	r3, [r7, #12]
 80081be:	689b      	ldr	r3, [r3, #8]
 80081c0:	f5b3 4f00 	cmp.w	r3, #32768	; 0x8000
 80081c4:	d004      	beq.n	80081d0 <SPI_WaitFlagStateUntilTimeout+0x84>
                                                     || (hspi->Init.Direction == SPI_DIRECTION_2LINES_RXONLY)))
 80081c6:	68fb      	ldr	r3, [r7, #12]
 80081c8:	689b      	ldr	r3, [r3, #8]
 80081ca:	f5b3 6f80 	cmp.w	r3, #1024	; 0x400
 80081ce:	d107      	bne.n	80081e0 <SPI_WaitFlagStateUntilTimeout+0x94>
        {
          /* Disable SPI peripheral */
          __HAL_SPI_DISABLE(hspi);
 80081d0:	68fb      	ldr	r3, [r7, #12]
 80081d2:	681b      	ldr	r3, [r3, #0]
 80081d4:	681a      	ldr	r2, [r3, #0]
 80081d6:	68fb      	ldr	r3, [r7, #12]
 80081d8:	681b      	ldr	r3, [r3, #0]
 80081da:	f022 0240 	bic.w	r2, r2, #64	; 0x40
 80081de:	601a      	str	r2, [r3, #0]
        }

        /* Reset CRC Calculation */
        if (hspi->Init.CRCCalculation == SPI_CRCCALCULATION_ENABLE)
 80081e0:	68fb      	ldr	r3, [r7, #12]
 80081e2:	6a9b      	ldr	r3, [r3, #40]	; 0x28
 80081e4:	f5b3 5f00 	cmp.w	r3, #8192	; 0x2000
 80081e8:	d10f      	bne.n	800820a <SPI_WaitFlagStateUntilTimeout+0xbe>
        {
          SPI_RESET_CRC(hspi);
 80081ea:	68fb      	ldr	r3, [r7, #12]
 80081ec:	681b      	ldr	r3, [r3, #0]
 80081ee:	681a      	ldr	r2, [r3, #0]
 80081f0:	68fb      	ldr	r3, [r7, #12]
 80081f2:	681b      	ldr	r3, [r3, #0]
 80081f4:	f422 5200 	bic.w	r2, r2, #8192	; 0x2000
 80081f8:	601a      	str	r2, [r3, #0]
 80081fa:	68fb      	ldr	r3, [r7, #12]
 80081fc:	681b      	ldr	r3, [r3, #0]
 80081fe:	681a      	ldr	r2, [r3, #0]
 8008200:	68fb      	ldr	r3, [r7, #12]
 8008202:	681b      	ldr	r3, [r3, #0]
 8008204:	f442 5200 	orr.w	r2, r2, #8192	; 0x2000
 8008208:	601a      	str	r2, [r3, #0]
        }

        hspi->State = HAL_SPI_STATE_READY;
 800820a:	68fb      	ldr	r3, [r7, #12]
 800820c:	2201      	movs	r2, #1
 800820e:	f883 2051 	strb.w	r2, [r3, #81]	; 0x51

        /* Process Unlocked */
        __HAL_UNLOCK(hspi);
 8008212:	68fb      	ldr	r3, [r7, #12]
 8008214:	2200      	movs	r2, #0
 8008216:	f883 2050 	strb.w	r2, [r3, #80]	; 0x50

        return HAL_TIMEOUT;
 800821a:	2303      	movs	r3, #3
 800821c:	e017      	b.n	800824e <SPI_WaitFlagStateUntilTimeout+0x102>
      }
      /* If Systick is disabled or not incremented, deactivate timeout to go in disable loop procedure */
      if(count == 0U)
 800821e:	697b      	ldr	r3, [r7, #20]
 8008220:	2b00      	cmp	r3, #0
 8008222:	d101      	bne.n	8008228 <SPI_WaitFlagStateUntilTimeout+0xdc>
      {
        tmp_timeout = 0U;
 8008224:	2300      	movs	r3, #0
 8008226:	61fb      	str	r3, [r7, #28]
      }
      count--;
 8008228:	697b      	ldr	r3, [r7, #20]
 800822a:	3b01      	subs	r3, #1
 800822c:	617b      	str	r3, [r7, #20]
  while ((__HAL_SPI_GET_FLAG(hspi, Flag) ? SET : RESET) != State)
 800822e:	68fb      	ldr	r3, [r7, #12]
 8008230:	681b      	ldr	r3, [r3, #0]
 8008232:	689a      	ldr	r2, [r3, #8]
 8008234:	68bb      	ldr	r3, [r7, #8]
 8008236:	4013      	ands	r3, r2
 8008238:	68ba      	ldr	r2, [r7, #8]
 800823a:	429a      	cmp	r2, r3
 800823c:	bf0c      	ite	eq
 800823e:	2301      	moveq	r3, #1
 8008240:	2300      	movne	r3, #0
 8008242:	b2db      	uxtb	r3, r3
 8008244:	461a      	mov	r2, r3
 8008246:	79fb      	ldrb	r3, [r7, #7]
 8008248:	429a      	cmp	r2, r3
 800824a:	d19b      	bne.n	8008184 <SPI_WaitFlagStateUntilTimeout+0x38>
    }
  }

  return HAL_OK;
 800824c:	2300      	movs	r3, #0
}
 800824e:	4618      	mov	r0, r3
 8008250:	3720      	adds	r7, #32
 8008252:	46bd      	mov	sp, r7
 8008254:	bd80      	pop	{r7, pc}
 8008256:	bf00      	nop
 8008258:	20000030 	.word	0x20000030

0800825c <SPI_EndRxTransaction>:
  * @param  Timeout Timeout duration
  * @param  Tickstart tick start value
  * @retval HAL status
  */
static HAL_StatusTypeDef SPI_EndRxTransaction(SPI_HandleTypeDef *hspi,  uint32_t Timeout, uint32_t Tickstart)
{
 800825c:	b580      	push	{r7, lr}
 800825e:	b086      	sub	sp, #24
 8008260:	af02      	add	r7, sp, #8
 8008262:	60f8      	str	r0, [r7, #12]
 8008264:	60b9      	str	r1, [r7, #8]
 8008266:	607a      	str	r2, [r7, #4]
  if ((hspi->Init.Mode == SPI_MODE_MASTER) && ((hspi->Init.Direction == SPI_DIRECTION_1LINE)
 8008268:	68fb      	ldr	r3, [r7, #12]
 800826a:	685b      	ldr	r3, [r3, #4]
 800826c:	f5b3 7f82 	cmp.w	r3, #260	; 0x104
 8008270:	d111      	bne.n	8008296 <SPI_EndRxTransaction+0x3a>
 8008272:	68fb      	ldr	r3, [r7, #12]
 8008274:	689b      	ldr	r3, [r3, #8]
 8008276:	f5b3 4f00 	cmp.w	r3, #32768	; 0x8000
 800827a:	d004      	beq.n	8008286 <SPI_EndRxTransaction+0x2a>
                                               || (hspi->Init.Direction == SPI_DIRECTION_2LINES_RXONLY)))
 800827c:	68fb      	ldr	r3, [r7, #12]
 800827e:	689b      	ldr	r3, [r3, #8]
 8008280:	f5b3 6f80 	cmp.w	r3, #1024	; 0x400
 8008284:	d107      	bne.n	8008296 <SPI_EndRxTransaction+0x3a>
  {
    /* Disable SPI peripheral */
    __HAL_SPI_DISABLE(hspi);
 8008286:	68fb      	ldr	r3, [r7, #12]
 8008288:	681b      	ldr	r3, [r3, #0]
 800828a:	681a      	ldr	r2, [r3, #0]
 800828c:	68fb      	ldr	r3, [r7, #12]
 800828e:	681b      	ldr	r3, [r3, #0]
 8008290:	f022 0240 	bic.w	r2, r2, #64	; 0x40
 8008294:	601a      	str	r2, [r3, #0]
  }

  /* Erratasheet: BSY bit may stay high at the end of a data transfer in Slave mode */
  if (hspi->Init.Mode == SPI_MODE_MASTER)
 8008296:	68fb      	ldr	r3, [r7, #12]
 8008298:	685b      	ldr	r3, [r3, #4]
 800829a:	f5b3 7f82 	cmp.w	r3, #260	; 0x104
 800829e:	d12a      	bne.n	80082f6 <SPI_EndRxTransaction+0x9a>
  {
    if (hspi->Init.Direction != SPI_DIRECTION_2LINES_RXONLY)
 80082a0:	68fb      	ldr	r3, [r7, #12]
 80082a2:	689b      	ldr	r3, [r3, #8]
 80082a4:	f5b3 6f80 	cmp.w	r3, #1024	; 0x400
 80082a8:	d012      	beq.n	80082d0 <SPI_EndRxTransaction+0x74>
    {
      /* Control the BSY flag */
      if (SPI_WaitFlagStateUntilTimeout(hspi, SPI_FLAG_BSY, RESET, Timeout, Tickstart) != HAL_OK)
 80082aa:	687b      	ldr	r3, [r7, #4]
 80082ac:	9300      	str	r3, [sp, #0]
 80082ae:	68bb      	ldr	r3, [r7, #8]
 80082b0:	2200      	movs	r2, #0
 80082b2:	2180      	movs	r1, #128	; 0x80
 80082b4:	68f8      	ldr	r0, [r7, #12]
 80082b6:	f7ff ff49 	bl	800814c <SPI_WaitFlagStateUntilTimeout>
 80082ba:	4603      	mov	r3, r0
 80082bc:	2b00      	cmp	r3, #0
 80082be:	d02d      	beq.n	800831c <SPI_EndRxTransaction+0xc0>
      {
        SET_BIT(hspi->ErrorCode, HAL_SPI_ERROR_FLAG);
 80082c0:	68fb      	ldr	r3, [r7, #12]
 80082c2:	6d5b      	ldr	r3, [r3, #84]	; 0x54
 80082c4:	f043 0220 	orr.w	r2, r3, #32
 80082c8:	68fb      	ldr	r3, [r7, #12]
 80082ca:	655a      	str	r2, [r3, #84]	; 0x54
        return HAL_TIMEOUT;
 80082cc:	2303      	movs	r3, #3
 80082ce:	e026      	b.n	800831e <SPI_EndRxTransaction+0xc2>
      }
    }
    else
    {
      /* Wait the RXNE reset */
      if (SPI_WaitFlagStateUntilTimeout(hspi, SPI_FLAG_RXNE, RESET, Timeout, Tickstart) != HAL_OK)
 80082d0:	687b      	ldr	r3, [r7, #4]
 80082d2:	9300      	str	r3, [sp, #0]
 80082d4:	68bb      	ldr	r3, [r7, #8]
 80082d6:	2200      	movs	r2, #0
 80082d8:	2101      	movs	r1, #1
 80082da:	68f8      	ldr	r0, [r7, #12]
 80082dc:	f7ff ff36 	bl	800814c <SPI_WaitFlagStateUntilTimeout>
 80082e0:	4603      	mov	r3, r0
 80082e2:	2b00      	cmp	r3, #0
 80082e4:	d01a      	beq.n	800831c <SPI_EndRxTransaction+0xc0>
      {
        SET_BIT(hspi->ErrorCode, HAL_SPI_ERROR_FLAG);
 80082e6:	68fb      	ldr	r3, [r7, #12]
 80082e8:	6d5b      	ldr	r3, [r3, #84]	; 0x54
 80082ea:	f043 0220 	orr.w	r2, r3, #32
 80082ee:	68fb      	ldr	r3, [r7, #12]
 80082f0:	655a      	str	r2, [r3, #84]	; 0x54
        return HAL_TIMEOUT;
 80082f2:	2303      	movs	r3, #3
 80082f4:	e013      	b.n	800831e <SPI_EndRxTransaction+0xc2>
    }
  }
  else
  {
    /* Wait the RXNE reset */
    if (SPI_WaitFlagStateUntilTimeout(hspi, SPI_FLAG_RXNE, RESET, Timeout, Tickstart) != HAL_OK)
 80082f6:	687b      	ldr	r3, [r7, #4]
 80082f8:	9300      	str	r3, [sp, #0]
 80082fa:	68bb      	ldr	r3, [r7, #8]
 80082fc:	2200      	movs	r2, #0
 80082fe:	2101      	movs	r1, #1
 8008300:	68f8      	ldr	r0, [r7, #12]
 8008302:	f7ff ff23 	bl	800814c <SPI_WaitFlagStateUntilTimeout>
 8008306:	4603      	mov	r3, r0
 8008308:	2b00      	cmp	r3, #0
 800830a:	d007      	beq.n	800831c <SPI_EndRxTransaction+0xc0>
    {
      SET_BIT(hspi->ErrorCode, HAL_SPI_ERROR_FLAG);
 800830c:	68fb      	ldr	r3, [r7, #12]
 800830e:	6d5b      	ldr	r3, [r3, #84]	; 0x54
 8008310:	f043 0220 	orr.w	r2, r3, #32
 8008314:	68fb      	ldr	r3, [r7, #12]
 8008316:	655a      	str	r2, [r3, #84]	; 0x54
      return HAL_TIMEOUT;
 8008318:	2303      	movs	r3, #3
 800831a:	e000      	b.n	800831e <SPI_EndRxTransaction+0xc2>
    }
  }
  return HAL_OK;
 800831c:	2300      	movs	r3, #0
}
 800831e:	4618      	mov	r0, r3
 8008320:	3710      	adds	r7, #16
 8008322:	46bd      	mov	sp, r7
 8008324:	bd80      	pop	{r7, pc}
	...

08008328 <SPI_EndRxTxTransaction>:
  * @param  Timeout Timeout duration
  * @param  Tickstart tick start value
  * @retval HAL status
  */
static HAL_StatusTypeDef SPI_EndRxTxTransaction(SPI_HandleTypeDef *hspi, uint32_t Timeout, uint32_t Tickstart)
{
 8008328:	b580      	push	{r7, lr}
 800832a:	b088      	sub	sp, #32
 800832c:	af02      	add	r7, sp, #8
 800832e:	60f8      	str	r0, [r7, #12]
 8008330:	60b9      	str	r1, [r7, #8]
 8008332:	607a      	str	r2, [r7, #4]
  /* Timeout in s */
  __IO uint32_t count = SPI_BSY_FLAG_WORKAROUND_TIMEOUT * (SystemCoreClock / 24U / 1000000U);
 8008334:	4b1b      	ldr	r3, [pc, #108]	; (80083a4 <SPI_EndRxTxTransaction+0x7c>)
 8008336:	681b      	ldr	r3, [r3, #0]
 8008338:	4a1b      	ldr	r2, [pc, #108]	; (80083a8 <SPI_EndRxTxTransaction+0x80>)
 800833a:	fba2 2303 	umull	r2, r3, r2, r3
 800833e:	0d5b      	lsrs	r3, r3, #21
 8008340:	f44f 727a 	mov.w	r2, #1000	; 0x3e8
 8008344:	fb02 f303 	mul.w	r3, r2, r3
 8008348:	617b      	str	r3, [r7, #20]
  /* Erratasheet: BSY bit may stay high at the end of a data transfer in Slave mode */
  if (hspi->Init.Mode == SPI_MODE_MASTER)
 800834a:	68fb      	ldr	r3, [r7, #12]
 800834c:	685b      	ldr	r3, [r3, #4]
 800834e:	f5b3 7f82 	cmp.w	r3, #260	; 0x104
 8008352:	d112      	bne.n	800837a <SPI_EndRxTxTransaction+0x52>
  {
    /* Control the BSY flag */
    if (SPI_WaitFlagStateUntilTimeout(hspi, SPI_FLAG_BSY, RESET, Timeout, Tickstart) != HAL_OK)
 8008354:	687b      	ldr	r3, [r7, #4]
 8008356:	9300      	str	r3, [sp, #0]
 8008358:	68bb      	ldr	r3, [r7, #8]
 800835a:	2200      	movs	r2, #0
 800835c:	2180      	movs	r1, #128	; 0x80
 800835e:	68f8      	ldr	r0, [r7, #12]
 8008360:	f7ff fef4 	bl	800814c <SPI_WaitFlagStateUntilTimeout>
 8008364:	4603      	mov	r3, r0
 8008366:	2b00      	cmp	r3, #0
 8008368:	d016      	beq.n	8008398 <SPI_EndRxTxTransaction+0x70>
    {
      SET_BIT(hspi->ErrorCode, HAL_SPI_ERROR_FLAG);
 800836a:	68fb      	ldr	r3, [r7, #12]
 800836c:	6d5b      	ldr	r3, [r3, #84]	; 0x54
 800836e:	f043 0220 	orr.w	r2, r3, #32
 8008372:	68fb      	ldr	r3, [r7, #12]
 8008374:	655a      	str	r2, [r3, #84]	; 0x54
      return HAL_TIMEOUT;
 8008376:	2303      	movs	r3, #3
 8008378:	e00f      	b.n	800839a <SPI_EndRxTxTransaction+0x72>
    * User have to calculate the timeout value to fit with the time of 1 byte transfer.
    * This time is directly link with the SPI clock from Master device.
    */
    do
    {
      if (count == 0U)
 800837a:	697b      	ldr	r3, [r7, #20]
 800837c:	2b00      	cmp	r3, #0
 800837e:	d00a      	beq.n	8008396 <SPI_EndRxTxTransaction+0x6e>
      {
        break;
      }
      count--;
 8008380:	697b      	ldr	r3, [r7, #20]
 8008382:	3b01      	subs	r3, #1
 8008384:	617b      	str	r3, [r7, #20]
    } while (__HAL_SPI_GET_FLAG(hspi, SPI_FLAG_BSY) != RESET);
 8008386:	68fb      	ldr	r3, [r7, #12]
 8008388:	681b      	ldr	r3, [r3, #0]
 800838a:	689b      	ldr	r3, [r3, #8]
 800838c:	f003 0380 	and.w	r3, r3, #128	; 0x80
 8008390:	2b80      	cmp	r3, #128	; 0x80
 8008392:	d0f2      	beq.n	800837a <SPI_EndRxTxTransaction+0x52>
 8008394:	e000      	b.n	8008398 <SPI_EndRxTxTransaction+0x70>
        break;
 8008396:	bf00      	nop
  }

  return HAL_OK;
 8008398:	2300      	movs	r3, #0
}
 800839a:	4618      	mov	r0, r3
 800839c:	3718      	adds	r7, #24
 800839e:	46bd      	mov	sp, r7
 80083a0:	bd80      	pop	{r7, pc}
 80083a2:	bf00      	nop
 80083a4:	20000030 	.word	0x20000030
 80083a8:	165e9f81 	.word	0x165e9f81

080083ac <HAL_TIM_Base_Init>:
  *         Ex: call @ref HAL_TIM_Base_DeInit() before HAL_TIM_Base_Init()
  * @param  htim TIM Base handle
  * @retval HAL status
  */
HAL_StatusTypeDef HAL_TIM_Base_Init(TIM_HandleTypeDef *htim)
{
 80083ac:	b580      	push	{r7, lr}
 80083ae:	b082      	sub	sp, #8
 80083b0:	af00      	add	r7, sp, #0
 80083b2:	6078      	str	r0, [r7, #4]
  /* Check the TIM handle allocation */
  if (htim == NULL)
 80083b4:	687b      	ldr	r3, [r7, #4]
 80083b6:	2b00      	cmp	r3, #0
 80083b8:	d101      	bne.n	80083be <HAL_TIM_Base_Init+0x12>
  {
    return HAL_ERROR;
 80083ba:	2301      	movs	r3, #1
 80083bc:	e041      	b.n	8008442 <HAL_TIM_Base_Init+0x96>
  assert_param(IS_TIM_INSTANCE(htim->Instance));
  assert_param(IS_TIM_COUNTER_MODE(htim->Init.CounterMode));
  assert_param(IS_TIM_CLOCKDIVISION_DIV(htim->Init.ClockDivision));
  assert_param(IS_TIM_AUTORELOAD_PRELOAD(htim->Init.AutoReloadPreload));

  if (htim->State == HAL_TIM_STATE_RESET)
 80083be:	687b      	ldr	r3, [r7, #4]
 80083c0:	f893 303d 	ldrb.w	r3, [r3, #61]	; 0x3d
 80083c4:	b2db      	uxtb	r3, r3
 80083c6:	2b00      	cmp	r3, #0
 80083c8:	d106      	bne.n	80083d8 <HAL_TIM_Base_Init+0x2c>
  {
    /* Allocate lock resource and initialize it */
    htim->Lock = HAL_UNLOCKED;
 80083ca:	687b      	ldr	r3, [r7, #4]
 80083cc:	2200      	movs	r2, #0
 80083ce:	f883 203c 	strb.w	r2, [r3, #60]	; 0x3c
    }
    /* Init the low level hardware : GPIO, CLOCK, NVIC */
    htim->Base_MspInitCallback(htim);
#else
    /* Init the low level hardware : GPIO, CLOCK, NVIC */
    HAL_TIM_Base_MspInit(htim);
 80083d2:	6878      	ldr	r0, [r7, #4]
 80083d4:	f7fd f936 	bl	8005644 <HAL_TIM_Base_MspInit>
#endif /* USE_HAL_TIM_REGISTER_CALLBACKS */
  }

  /* Set the TIM state */
  htim->State = HAL_TIM_STATE_BUSY;
 80083d8:	687b      	ldr	r3, [r7, #4]
 80083da:	2202      	movs	r2, #2
 80083dc:	f883 203d 	strb.w	r2, [r3, #61]	; 0x3d

  /* Set the Time Base configuration */
  TIM_Base_SetConfig(htim->Instance, &htim->Init);
 80083e0:	687b      	ldr	r3, [r7, #4]
 80083e2:	681a      	ldr	r2, [r3, #0]
 80083e4:	687b      	ldr	r3, [r7, #4]
 80083e6:	3304      	adds	r3, #4
 80083e8:	4619      	mov	r1, r3
 80083ea:	4610      	mov	r0, r2
 80083ec:	f000 fa10 	bl	8008810 <TIM_Base_SetConfig>

  /* Initialize the DMA burst operation state */
  htim->DMABurstState = HAL_DMA_BURST_STATE_READY;
 80083f0:	687b      	ldr	r3, [r7, #4]
 80083f2:	2201      	movs	r2, #1
 80083f4:	f883 2046 	strb.w	r2, [r3, #70]	; 0x46

  /* Initialize the TIM channels state */
  TIM_CHANNEL_STATE_SET_ALL(htim, HAL_TIM_CHANNEL_STATE_READY);
 80083f8:	687b      	ldr	r3, [r7, #4]
 80083fa:	2201      	movs	r2, #1
 80083fc:	f883 203e 	strb.w	r2, [r3, #62]	; 0x3e
 8008400:	687b      	ldr	r3, [r7, #4]
 8008402:	2201      	movs	r2, #1
 8008404:	f883 203f 	strb.w	r2, [r3, #63]	; 0x3f
 8008408:	687b      	ldr	r3, [r7, #4]
 800840a:	2201      	movs	r2, #1
 800840c:	f883 2040 	strb.w	r2, [r3, #64]	; 0x40
 8008410:	687b      	ldr	r3, [r7, #4]
 8008412:	2201      	movs	r2, #1
 8008414:	f883 2041 	strb.w	r2, [r3, #65]	; 0x41
  TIM_CHANNEL_N_STATE_SET_ALL(htim, HAL_TIM_CHANNEL_STATE_READY);
 8008418:	687b      	ldr	r3, [r7, #4]
 800841a:	2201      	movs	r2, #1
 800841c:	f883 2042 	strb.w	r2, [r3, #66]	; 0x42
 8008420:	687b      	ldr	r3, [r7, #4]
 8008422:	2201      	movs	r2, #1
 8008424:	f883 2043 	strb.w	r2, [r3, #67]	; 0x43
 8008428:	687b      	ldr	r3, [r7, #4]
 800842a:	2201      	movs	r2, #1
 800842c:	f883 2044 	strb.w	r2, [r3, #68]	; 0x44
 8008430:	687b      	ldr	r3, [r7, #4]
 8008432:	2201      	movs	r2, #1
 8008434:	f883 2045 	strb.w	r2, [r3, #69]	; 0x45

  /* Initialize the TIM state*/
  htim->State = HAL_TIM_STATE_READY;
 8008438:	687b      	ldr	r3, [r7, #4]
 800843a:	2201      	movs	r2, #1
 800843c:	f883 203d 	strb.w	r2, [r3, #61]	; 0x3d

  return HAL_OK;
 8008440:	2300      	movs	r3, #0
}
 8008442:	4618      	mov	r0, r3
 8008444:	3708      	adds	r7, #8
 8008446:	46bd      	mov	sp, r7
 8008448:	bd80      	pop	{r7, pc}

0800844a <HAL_TIM_PWM_Init>:
  *         Ex: call @ref HAL_TIM_PWM_DeInit() before HAL_TIM_PWM_Init()
  * @param  htim TIM PWM handle
  * @retval HAL status
  */
HAL_StatusTypeDef HAL_TIM_PWM_Init(TIM_HandleTypeDef *htim)
{
 800844a:	b580      	push	{r7, lr}
 800844c:	b082      	sub	sp, #8
 800844e:	af00      	add	r7, sp, #0
 8008450:	6078      	str	r0, [r7, #4]
  /* Check the TIM handle allocation */
  if (htim == NULL)
 8008452:	687b      	ldr	r3, [r7, #4]
 8008454:	2b00      	cmp	r3, #0
 8008456:	d101      	bne.n	800845c <HAL_TIM_PWM_Init+0x12>
  {
    return HAL_ERROR;
 8008458:	2301      	movs	r3, #1
 800845a:	e041      	b.n	80084e0 <HAL_TIM_PWM_Init+0x96>
  assert_param(IS_TIM_INSTANCE(htim->Instance));
  assert_param(IS_TIM_COUNTER_MODE(htim->Init.CounterMode));
  assert_param(IS_TIM_CLOCKDIVISION_DIV(htim->Init.ClockDivision));
  assert_param(IS_TIM_AUTORELOAD_PRELOAD(htim->Init.AutoReloadPreload));

  if (htim->State == HAL_TIM_STATE_RESET)
 800845c:	687b      	ldr	r3, [r7, #4]
 800845e:	f893 303d 	ldrb.w	r3, [r3, #61]	; 0x3d
 8008462:	b2db      	uxtb	r3, r3
 8008464:	2b00      	cmp	r3, #0
 8008466:	d106      	bne.n	8008476 <HAL_TIM_PWM_Init+0x2c>
  {
    /* Allocate lock resource and initialize it */
    htim->Lock = HAL_UNLOCKED;
 8008468:	687b      	ldr	r3, [r7, #4]
 800846a:	2200      	movs	r2, #0
 800846c:	f883 203c 	strb.w	r2, [r3, #60]	; 0x3c
    }
    /* Init the low level hardware : GPIO, CLOCK, NVIC */
    htim->PWM_MspInitCallback(htim);
#else
    /* Init the low level hardware : GPIO, CLOCK, NVIC and DMA */
    HAL_TIM_PWM_MspInit(htim);
 8008470:	6878      	ldr	r0, [r7, #4]
 8008472:	f000 f839 	bl	80084e8 <HAL_TIM_PWM_MspInit>
#endif /* USE_HAL_TIM_REGISTER_CALLBACKS */
  }

  /* Set the TIM state */
  htim->State = HAL_TIM_STATE_BUSY;
 8008476:	687b      	ldr	r3, [r7, #4]
 8008478:	2202      	movs	r2, #2
 800847a:	f883 203d 	strb.w	r2, [r3, #61]	; 0x3d

  /* Init the base time for the PWM */
  TIM_Base_SetConfig(htim->Instance, &htim->Init);
 800847e:	687b      	ldr	r3, [r7, #4]
 8008480:	681a      	ldr	r2, [r3, #0]
 8008482:	687b      	ldr	r3, [r7, #4]
 8008484:	3304      	adds	r3, #4
 8008486:	4619      	mov	r1, r3
 8008488:	4610      	mov	r0, r2
 800848a:	f000 f9c1 	bl	8008810 <TIM_Base_SetConfig>

  /* Initialize the DMA burst operation state */
  htim->DMABurstState = HAL_DMA_BURST_STATE_READY;
 800848e:	687b      	ldr	r3, [r7, #4]
 8008490:	2201      	movs	r2, #1
 8008492:	f883 2046 	strb.w	r2, [r3, #70]	; 0x46

  /* Initialize the TIM channels state */
  TIM_CHANNEL_STATE_SET_ALL(htim, HAL_TIM_CHANNEL_STATE_READY);
 8008496:	687b      	ldr	r3, [r7, #4]
 8008498:	2201      	movs	r2, #1
 800849a:	f883 203e 	strb.w	r2, [r3, #62]	; 0x3e
 800849e:	687b      	ldr	r3, [r7, #4]
 80084a0:	2201      	movs	r2, #1
 80084a2:	f883 203f 	strb.w	r2, [r3, #63]	; 0x3f
 80084a6:	687b      	ldr	r3, [r7, #4]
 80084a8:	2201      	movs	r2, #1
 80084aa:	f883 2040 	strb.w	r2, [r3, #64]	; 0x40
 80084ae:	687b      	ldr	r3, [r7, #4]
 80084b0:	2201      	movs	r2, #1
 80084b2:	f883 2041 	strb.w	r2, [r3, #65]	; 0x41
  TIM_CHANNEL_N_STATE_SET_ALL(htim, HAL_TIM_CHANNEL_STATE_READY);
 80084b6:	687b      	ldr	r3, [r7, #4]
 80084b8:	2201      	movs	r2, #1
 80084ba:	f883 2042 	strb.w	r2, [r3, #66]	; 0x42
 80084be:	687b      	ldr	r3, [r7, #4]
 80084c0:	2201      	movs	r2, #1
 80084c2:	f883 2043 	strb.w	r2, [r3, #67]	; 0x43
 80084c6:	687b      	ldr	r3, [r7, #4]
 80084c8:	2201      	movs	r2, #1
 80084ca:	f883 2044 	strb.w	r2, [r3, #68]	; 0x44
 80084ce:	687b      	ldr	r3, [r7, #4]
 80084d0:	2201      	movs	r2, #1
 80084d2:	f883 2045 	strb.w	r2, [r3, #69]	; 0x45

  /* Initialize the TIM state*/
  htim->State = HAL_TIM_STATE_READY;
 80084d6:	687b      	ldr	r3, [r7, #4]
 80084d8:	2201      	movs	r2, #1
 80084da:	f883 203d 	strb.w	r2, [r3, #61]	; 0x3d

  return HAL_OK;
 80084de:	2300      	movs	r3, #0
}
 80084e0:	4618      	mov	r0, r3
 80084e2:	3708      	adds	r7, #8
 80084e4:	46bd      	mov	sp, r7
 80084e6:	bd80      	pop	{r7, pc}

080084e8 <HAL_TIM_PWM_MspInit>:
  * @brief  Initializes the TIM PWM MSP.
  * @param  htim TIM PWM handle
  * @retval None
  */
__weak void HAL_TIM_PWM_MspInit(TIM_HandleTypeDef *htim)
{
 80084e8:	b480      	push	{r7}
 80084ea:	b083      	sub	sp, #12
 80084ec:	af00      	add	r7, sp, #0
 80084ee:	6078      	str	r0, [r7, #4]
  UNUSED(htim);

  /* NOTE : This function should not be modified, when the callback is needed,
            the HAL_TIM_PWM_MspInit could be implemented in the user file
   */
}
 80084f0:	bf00      	nop
 80084f2:	370c      	adds	r7, #12
 80084f4:	46bd      	mov	sp, r7
 80084f6:	f85d 7b04 	ldr.w	r7, [sp], #4
 80084fa:	4770      	bx	lr

080084fc <HAL_TIM_PWM_ConfigChannel>:
  * @retval HAL status
  */
HAL_StatusTypeDef HAL_TIM_PWM_ConfigChannel(TIM_HandleTypeDef *htim,
                                            TIM_OC_InitTypeDef *sConfig,
                                            uint32_t Channel)
{
 80084fc:	b580      	push	{r7, lr}
 80084fe:	b086      	sub	sp, #24
 8008500:	af00      	add	r7, sp, #0
 8008502:	60f8      	str	r0, [r7, #12]
 8008504:	60b9      	str	r1, [r7, #8]
 8008506:	607a      	str	r2, [r7, #4]
  HAL_StatusTypeDef status = HAL_OK;
 8008508:	2300      	movs	r3, #0
 800850a:	75fb      	strb	r3, [r7, #23]
  assert_param(IS_TIM_PWM_MODE(sConfig->OCMode));
  assert_param(IS_TIM_OC_POLARITY(sConfig->OCPolarity));
  assert_param(IS_TIM_FAST_STATE(sConfig->OCFastMode));

  /* Process Locked */
  __HAL_LOCK(htim);
 800850c:	68fb      	ldr	r3, [r7, #12]
 800850e:	f893 303c 	ldrb.w	r3, [r3, #60]	; 0x3c
 8008512:	2b01      	cmp	r3, #1
 8008514:	d101      	bne.n	800851a <HAL_TIM_PWM_ConfigChannel+0x1e>
 8008516:	2302      	movs	r3, #2
 8008518:	e0ae      	b.n	8008678 <HAL_TIM_PWM_ConfigChannel+0x17c>
 800851a:	68fb      	ldr	r3, [r7, #12]
 800851c:	2201      	movs	r2, #1
 800851e:	f883 203c 	strb.w	r2, [r3, #60]	; 0x3c
 8008522:	687b      	ldr	r3, [r7, #4]
 8008524:	2b0c      	cmp	r3, #12
 8008526:	f200 809f 	bhi.w	8008668 <HAL_TIM_PWM_ConfigChannel+0x16c>
 800852a:	a201      	add	r2, pc, #4	; (adr r2, 8008530 <HAL_TIM_PWM_ConfigChannel+0x34>)
 800852c:	f852 f023 	ldr.w	pc, [r2, r3, lsl #2]
 8008530:	08008565 	.word	0x08008565
 8008534:	08008669 	.word	0x08008669
 8008538:	08008669 	.word	0x08008669
 800853c:	08008669 	.word	0x08008669
 8008540:	080085a5 	.word	0x080085a5
 8008544:	08008669 	.word	0x08008669
 8008548:	08008669 	.word	0x08008669
 800854c:	08008669 	.word	0x08008669
 8008550:	080085e7 	.word	0x080085e7
 8008554:	08008669 	.word	0x08008669
 8008558:	08008669 	.word	0x08008669
 800855c:	08008669 	.word	0x08008669
 8008560:	08008627 	.word	0x08008627
    {
      /* Check the parameters */
      assert_param(IS_TIM_CC1_INSTANCE(htim->Instance));

      /* Configure the Channel 1 in PWM mode */
      TIM_OC1_SetConfig(htim->Instance, sConfig);
 8008564:	68fb      	ldr	r3, [r7, #12]
 8008566:	681b      	ldr	r3, [r3, #0]
 8008568:	68b9      	ldr	r1, [r7, #8]
 800856a:	4618      	mov	r0, r3
 800856c:	f000 f9f0 	bl	8008950 <TIM_OC1_SetConfig>

      /* Set the Preload enable bit for channel1 */
      htim->Instance->CCMR1 |= TIM_CCMR1_OC1PE;
 8008570:	68fb      	ldr	r3, [r7, #12]
 8008572:	681b      	ldr	r3, [r3, #0]
 8008574:	699a      	ldr	r2, [r3, #24]
 8008576:	68fb      	ldr	r3, [r7, #12]
 8008578:	681b      	ldr	r3, [r3, #0]
 800857a:	f042 0208 	orr.w	r2, r2, #8
 800857e:	619a      	str	r2, [r3, #24]

      /* Configure the Output Fast mode */
      htim->Instance->CCMR1 &= ~TIM_CCMR1_OC1FE;
 8008580:	68fb      	ldr	r3, [r7, #12]
 8008582:	681b      	ldr	r3, [r3, #0]
 8008584:	699a      	ldr	r2, [r3, #24]
 8008586:	68fb      	ldr	r3, [r7, #12]
 8008588:	681b      	ldr	r3, [r3, #0]
 800858a:	f022 0204 	bic.w	r2, r2, #4
 800858e:	619a      	str	r2, [r3, #24]
      htim->Instance->CCMR1 |= sConfig->OCFastMode;
 8008590:	68fb      	ldr	r3, [r7, #12]
 8008592:	681b      	ldr	r3, [r3, #0]
 8008594:	6999      	ldr	r1, [r3, #24]
 8008596:	68bb      	ldr	r3, [r7, #8]
 8008598:	691a      	ldr	r2, [r3, #16]
 800859a:	68fb      	ldr	r3, [r7, #12]
 800859c:	681b      	ldr	r3, [r3, #0]
 800859e:	430a      	orrs	r2, r1
 80085a0:	619a      	str	r2, [r3, #24]
      break;
 80085a2:	e064      	b.n	800866e <HAL_TIM_PWM_ConfigChannel+0x172>
    {
      /* Check the parameters */
      assert_param(IS_TIM_CC2_INSTANCE(htim->Instance));

      /* Configure the Channel 2 in PWM mode */
      TIM_OC2_SetConfig(htim->Instance, sConfig);
 80085a4:	68fb      	ldr	r3, [r7, #12]
 80085a6:	681b      	ldr	r3, [r3, #0]
 80085a8:	68b9      	ldr	r1, [r7, #8]
 80085aa:	4618      	mov	r0, r3
 80085ac:	f000 fa40 	bl	8008a30 <TIM_OC2_SetConfig>

      /* Set the Preload enable bit for channel2 */
      htim->Instance->CCMR1 |= TIM_CCMR1_OC2PE;
 80085b0:	68fb      	ldr	r3, [r7, #12]
 80085b2:	681b      	ldr	r3, [r3, #0]
 80085b4:	699a      	ldr	r2, [r3, #24]
 80085b6:	68fb      	ldr	r3, [r7, #12]
 80085b8:	681b      	ldr	r3, [r3, #0]
 80085ba:	f442 6200 	orr.w	r2, r2, #2048	; 0x800
 80085be:	619a      	str	r2, [r3, #24]

      /* Configure the Output Fast mode */
      htim->Instance->CCMR1 &= ~TIM_CCMR1_OC2FE;
 80085c0:	68fb      	ldr	r3, [r7, #12]
 80085c2:	681b      	ldr	r3, [r3, #0]
 80085c4:	699a      	ldr	r2, [r3, #24]
 80085c6:	68fb      	ldr	r3, [r7, #12]
 80085c8:	681b      	ldr	r3, [r3, #0]
 80085ca:	f422 6280 	bic.w	r2, r2, #1024	; 0x400
 80085ce:	619a      	str	r2, [r3, #24]
      htim->Instance->CCMR1 |= sConfig->OCFastMode << 8U;
 80085d0:	68fb      	ldr	r3, [r7, #12]
 80085d2:	681b      	ldr	r3, [r3, #0]
 80085d4:	6999      	ldr	r1, [r3, #24]
 80085d6:	68bb      	ldr	r3, [r7, #8]
 80085d8:	691b      	ldr	r3, [r3, #16]
 80085da:	021a      	lsls	r2, r3, #8
 80085dc:	68fb      	ldr	r3, [r7, #12]
 80085de:	681b      	ldr	r3, [r3, #0]
 80085e0:	430a      	orrs	r2, r1
 80085e2:	619a      	str	r2, [r3, #24]
      break;
 80085e4:	e043      	b.n	800866e <HAL_TIM_PWM_ConfigChannel+0x172>
    {
      /* Check the parameters */
      assert_param(IS_TIM_CC3_INSTANCE(htim->Instance));

      /* Configure the Channel 3 in PWM mode */
      TIM_OC3_SetConfig(htim->Instance, sConfig);
 80085e6:	68fb      	ldr	r3, [r7, #12]
 80085e8:	681b      	ldr	r3, [r3, #0]
 80085ea:	68b9      	ldr	r1, [r7, #8]
 80085ec:	4618      	mov	r0, r3
 80085ee:	f000 fa95 	bl	8008b1c <TIM_OC3_SetConfig>

      /* Set the Preload enable bit for channel3 */
      htim->Instance->CCMR2 |= TIM_CCMR2_OC3PE;
 80085f2:	68fb      	ldr	r3, [r7, #12]
 80085f4:	681b      	ldr	r3, [r3, #0]
 80085f6:	69da      	ldr	r2, [r3, #28]
 80085f8:	68fb      	ldr	r3, [r7, #12]
 80085fa:	681b      	ldr	r3, [r3, #0]
 80085fc:	f042 0208 	orr.w	r2, r2, #8
 8008600:	61da      	str	r2, [r3, #28]

      /* Configure the Output Fast mode */
      htim->Instance->CCMR2 &= ~TIM_CCMR2_OC3FE;
 8008602:	68fb      	ldr	r3, [r7, #12]
 8008604:	681b      	ldr	r3, [r3, #0]
 8008606:	69da      	ldr	r2, [r3, #28]
 8008608:	68fb      	ldr	r3, [r7, #12]
 800860a:	681b      	ldr	r3, [r3, #0]
 800860c:	f022 0204 	bic.w	r2, r2, #4
 8008610:	61da      	str	r2, [r3, #28]
      htim->Instance->CCMR2 |= sConfig->OCFastMode;
 8008612:	68fb      	ldr	r3, [r7, #12]
 8008614:	681b      	ldr	r3, [r3, #0]
 8008616:	69d9      	ldr	r1, [r3, #28]
 8008618:	68bb      	ldr	r3, [r7, #8]
 800861a:	691a      	ldr	r2, [r3, #16]
 800861c:	68fb      	ldr	r3, [r7, #12]
 800861e:	681b      	ldr	r3, [r3, #0]
 8008620:	430a      	orrs	r2, r1
 8008622:	61da      	str	r2, [r3, #28]
      break;
 8008624:	e023      	b.n	800866e <HAL_TIM_PWM_ConfigChannel+0x172>
    {
      /* Check the parameters */
      assert_param(IS_TIM_CC4_INSTANCE(htim->Instance));

      /* Configure the Channel 4 in PWM mode */
      TIM_OC4_SetConfig(htim->Instance, sConfig);
 8008626:	68fb      	ldr	r3, [r7, #12]
 8008628:	681b      	ldr	r3, [r3, #0]
 800862a:	68b9      	ldr	r1, [r7, #8]
 800862c:	4618      	mov	r0, r3
 800862e:	f000 fae9 	bl	8008c04 <TIM_OC4_SetConfig>

      /* Set the Preload enable bit for channel4 */
      htim->Instance->CCMR2 |= TIM_CCMR2_OC4PE;
 8008632:	68fb      	ldr	r3, [r7, #12]
 8008634:	681b      	ldr	r3, [r3, #0]
 8008636:	69da      	ldr	r2, [r3, #28]
 8008638:	68fb      	ldr	r3, [r7, #12]
 800863a:	681b      	ldr	r3, [r3, #0]
 800863c:	f442 6200 	orr.w	r2, r2, #2048	; 0x800
 8008640:	61da      	str	r2, [r3, #28]

      /* Configure the Output Fast mode */
      htim->Instance->CCMR2 &= ~TIM_CCMR2_OC4FE;
 8008642:	68fb      	ldr	r3, [r7, #12]
 8008644:	681b      	ldr	r3, [r3, #0]
 8008646:	69da      	ldr	r2, [r3, #28]
 8008648:	68fb      	ldr	r3, [r7, #12]
 800864a:	681b      	ldr	r3, [r3, #0]
 800864c:	f422 6280 	bic.w	r2, r2, #1024	; 0x400
 8008650:	61da      	str	r2, [r3, #28]
      htim->Instance->CCMR2 |= sConfig->OCFastMode << 8U;
 8008652:	68fb      	ldr	r3, [r7, #12]
 8008654:	681b      	ldr	r3, [r3, #0]
 8008656:	69d9      	ldr	r1, [r3, #28]
 8008658:	68bb      	ldr	r3, [r7, #8]
 800865a:	691b      	ldr	r3, [r3, #16]
 800865c:	021a      	lsls	r2, r3, #8
 800865e:	68fb      	ldr	r3, [r7, #12]
 8008660:	681b      	ldr	r3, [r3, #0]
 8008662:	430a      	orrs	r2, r1
 8008664:	61da      	str	r2, [r3, #28]
      break;
 8008666:	e002      	b.n	800866e <HAL_TIM_PWM_ConfigChannel+0x172>
    }

    default:
      status = HAL_ERROR;
 8008668:	2301      	movs	r3, #1
 800866a:	75fb      	strb	r3, [r7, #23]
      break;
 800866c:	bf00      	nop
  }

  __HAL_UNLOCK(htim);
 800866e:	68fb      	ldr	r3, [r7, #12]
 8008670:	2200      	movs	r2, #0
 8008672:	f883 203c 	strb.w	r2, [r3, #60]	; 0x3c

  return status;
 8008676:	7dfb      	ldrb	r3, [r7, #23]
}
 8008678:	4618      	mov	r0, r3
 800867a:	3718      	adds	r7, #24
 800867c:	46bd      	mov	sp, r7
 800867e:	bd80      	pop	{r7, pc}

08008680 <HAL_TIM_ConfigClockSource>:
  * @param  sClockSourceConfig pointer to a TIM_ClockConfigTypeDef structure that
  *         contains the clock source information for the TIM peripheral.
  * @retval HAL status
  */
HAL_StatusTypeDef HAL_TIM_ConfigClockSource(TIM_HandleTypeDef *htim, TIM_ClockConfigTypeDef *sClockSourceConfig)
{
 8008680:	b580      	push	{r7, lr}
 8008682:	b084      	sub	sp, #16
 8008684:	af00      	add	r7, sp, #0
 8008686:	6078      	str	r0, [r7, #4]
 8008688:	6039      	str	r1, [r7, #0]
  HAL_StatusTypeDef status = HAL_OK;
 800868a:	2300      	movs	r3, #0
 800868c:	73fb      	strb	r3, [r7, #15]
  uint32_t tmpsmcr;

  /* Process Locked */
  __HAL_LOCK(htim);
 800868e:	687b      	ldr	r3, [r7, #4]
 8008690:	f893 303c 	ldrb.w	r3, [r3, #60]	; 0x3c
 8008694:	2b01      	cmp	r3, #1
 8008696:	d101      	bne.n	800869c <HAL_TIM_ConfigClockSource+0x1c>
 8008698:	2302      	movs	r3, #2
 800869a:	e0b4      	b.n	8008806 <HAL_TIM_ConfigClockSource+0x186>
 800869c:	687b      	ldr	r3, [r7, #4]
 800869e:	2201      	movs	r2, #1
 80086a0:	f883 203c 	strb.w	r2, [r3, #60]	; 0x3c

  htim->State = HAL_TIM_STATE_BUSY;
 80086a4:	687b      	ldr	r3, [r7, #4]
 80086a6:	2202      	movs	r2, #2
 80086a8:	f883 203d 	strb.w	r2, [r3, #61]	; 0x3d

  /* Check the parameters */
  assert_param(IS_TIM_CLOCKSOURCE(sClockSourceConfig->ClockSource));

  /* Reset the SMS, TS, ECE, ETPS and ETRF bits */
  tmpsmcr = htim->Instance->SMCR;
 80086ac:	687b      	ldr	r3, [r7, #4]
 80086ae:	681b      	ldr	r3, [r3, #0]
 80086b0:	689b      	ldr	r3, [r3, #8]
 80086b2:	60bb      	str	r3, [r7, #8]
  tmpsmcr &= ~(TIM_SMCR_SMS | TIM_SMCR_TS);
 80086b4:	68bb      	ldr	r3, [r7, #8]
 80086b6:	f023 0377 	bic.w	r3, r3, #119	; 0x77
 80086ba:	60bb      	str	r3, [r7, #8]
  tmpsmcr &= ~(TIM_SMCR_ETF | TIM_SMCR_ETPS | TIM_SMCR_ECE | TIM_SMCR_ETP);
 80086bc:	68bb      	ldr	r3, [r7, #8]
 80086be:	f423 437f 	bic.w	r3, r3, #65280	; 0xff00
 80086c2:	60bb      	str	r3, [r7, #8]
  htim->Instance->SMCR = tmpsmcr;
 80086c4:	687b      	ldr	r3, [r7, #4]
 80086c6:	681b      	ldr	r3, [r3, #0]
 80086c8:	68ba      	ldr	r2, [r7, #8]
 80086ca:	609a      	str	r2, [r3, #8]

  switch (sClockSourceConfig->ClockSource)
 80086cc:	683b      	ldr	r3, [r7, #0]
 80086ce:	681b      	ldr	r3, [r3, #0]
 80086d0:	f5b3 5f00 	cmp.w	r3, #8192	; 0x2000
 80086d4:	d03e      	beq.n	8008754 <HAL_TIM_ConfigClockSource+0xd4>
 80086d6:	f5b3 5f00 	cmp.w	r3, #8192	; 0x2000
 80086da:	f200 8087 	bhi.w	80087ec <HAL_TIM_ConfigClockSource+0x16c>
 80086de:	f5b3 5f80 	cmp.w	r3, #4096	; 0x1000
 80086e2:	f000 8086 	beq.w	80087f2 <HAL_TIM_ConfigClockSource+0x172>
 80086e6:	f5b3 5f80 	cmp.w	r3, #4096	; 0x1000
 80086ea:	d87f      	bhi.n	80087ec <HAL_TIM_ConfigClockSource+0x16c>
 80086ec:	2b70      	cmp	r3, #112	; 0x70
 80086ee:	d01a      	beq.n	8008726 <HAL_TIM_ConfigClockSource+0xa6>
 80086f0:	2b70      	cmp	r3, #112	; 0x70
 80086f2:	d87b      	bhi.n	80087ec <HAL_TIM_ConfigClockSource+0x16c>
 80086f4:	2b60      	cmp	r3, #96	; 0x60
 80086f6:	d050      	beq.n	800879a <HAL_TIM_ConfigClockSource+0x11a>
 80086f8:	2b60      	cmp	r3, #96	; 0x60
 80086fa:	d877      	bhi.n	80087ec <HAL_TIM_ConfigClockSource+0x16c>
 80086fc:	2b50      	cmp	r3, #80	; 0x50
 80086fe:	d03c      	beq.n	800877a <HAL_TIM_ConfigClockSource+0xfa>
 8008700:	2b50      	cmp	r3, #80	; 0x50
 8008702:	d873      	bhi.n	80087ec <HAL_TIM_ConfigClockSource+0x16c>
 8008704:	2b40      	cmp	r3, #64	; 0x40
 8008706:	d058      	beq.n	80087ba <HAL_TIM_ConfigClockSource+0x13a>
 8008708:	2b40      	cmp	r3, #64	; 0x40
 800870a:	d86f      	bhi.n	80087ec <HAL_TIM_ConfigClockSource+0x16c>
 800870c:	2b30      	cmp	r3, #48	; 0x30
 800870e:	d064      	beq.n	80087da <HAL_TIM_ConfigClockSource+0x15a>
 8008710:	2b30      	cmp	r3, #48	; 0x30
 8008712:	d86b      	bhi.n	80087ec <HAL_TIM_ConfigClockSource+0x16c>
 8008714:	2b20      	cmp	r3, #32
 8008716:	d060      	beq.n	80087da <HAL_TIM_ConfigClockSource+0x15a>
 8008718:	2b20      	cmp	r3, #32
 800871a:	d867      	bhi.n	80087ec <HAL_TIM_ConfigClockSource+0x16c>
 800871c:	2b00      	cmp	r3, #0
 800871e:	d05c      	beq.n	80087da <HAL_TIM_ConfigClockSource+0x15a>
 8008720:	2b10      	cmp	r3, #16
 8008722:	d05a      	beq.n	80087da <HAL_TIM_ConfigClockSource+0x15a>
 8008724:	e062      	b.n	80087ec <HAL_TIM_ConfigClockSource+0x16c>
      assert_param(IS_TIM_CLOCKPRESCALER(sClockSourceConfig->ClockPrescaler));
      assert_param(IS_TIM_CLOCKPOLARITY(sClockSourceConfig->ClockPolarity));
      assert_param(IS_TIM_CLOCKFILTER(sClockSourceConfig->ClockFilter));

      /* Configure the ETR Clock source */
      TIM_ETR_SetConfig(htim->Instance,
 8008726:	687b      	ldr	r3, [r7, #4]
 8008728:	6818      	ldr	r0, [r3, #0]
 800872a:	683b      	ldr	r3, [r7, #0]
 800872c:	6899      	ldr	r1, [r3, #8]
 800872e:	683b      	ldr	r3, [r7, #0]
 8008730:	685a      	ldr	r2, [r3, #4]
 8008732:	683b      	ldr	r3, [r7, #0]
 8008734:	68db      	ldr	r3, [r3, #12]
 8008736:	f000 fb35 	bl	8008da4 <TIM_ETR_SetConfig>
                        sClockSourceConfig->ClockPrescaler,
                        sClockSourceConfig->ClockPolarity,
                        sClockSourceConfig->ClockFilter);

      /* Select the External clock mode1 and the ETRF trigger */
      tmpsmcr = htim->Instance->SMCR;
 800873a:	687b      	ldr	r3, [r7, #4]
 800873c:	681b      	ldr	r3, [r3, #0]
 800873e:	689b      	ldr	r3, [r3, #8]
 8008740:	60bb      	str	r3, [r7, #8]
      tmpsmcr |= (TIM_SLAVEMODE_EXTERNAL1 | TIM_CLOCKSOURCE_ETRMODE1);
 8008742:	68bb      	ldr	r3, [r7, #8]
 8008744:	f043 0377 	orr.w	r3, r3, #119	; 0x77
 8008748:	60bb      	str	r3, [r7, #8]
      /* Write to TIMx SMCR */
      htim->Instance->SMCR = tmpsmcr;
 800874a:	687b      	ldr	r3, [r7, #4]
 800874c:	681b      	ldr	r3, [r3, #0]
 800874e:	68ba      	ldr	r2, [r7, #8]
 8008750:	609a      	str	r2, [r3, #8]
      break;
 8008752:	e04f      	b.n	80087f4 <HAL_TIM_ConfigClockSource+0x174>
      assert_param(IS_TIM_CLOCKPRESCALER(sClockSourceConfig->ClockPrescaler));
      assert_param(IS_TIM_CLOCKPOLARITY(sClockSourceConfig->ClockPolarity));
      assert_param(IS_TIM_CLOCKFILTER(sClockSourceConfig->ClockFilter));

      /* Configure the ETR Clock source */
      TIM_ETR_SetConfig(htim->Instance,
 8008754:	687b      	ldr	r3, [r7, #4]
 8008756:	6818      	ldr	r0, [r3, #0]
 8008758:	683b      	ldr	r3, [r7, #0]
 800875a:	6899      	ldr	r1, [r3, #8]
 800875c:	683b      	ldr	r3, [r7, #0]
 800875e:	685a      	ldr	r2, [r3, #4]
 8008760:	683b      	ldr	r3, [r7, #0]
 8008762:	68db      	ldr	r3, [r3, #12]
 8008764:	f000 fb1e 	bl	8008da4 <TIM_ETR_SetConfig>
                        sClockSourceConfig->ClockPrescaler,
                        sClockSourceConfig->ClockPolarity,
                        sClockSourceConfig->ClockFilter);
      /* Enable the External clock mode2 */
      htim->Instance->SMCR |= TIM_SMCR_ECE;
 8008768:	687b      	ldr	r3, [r7, #4]
 800876a:	681b      	ldr	r3, [r3, #0]
 800876c:	689a      	ldr	r2, [r3, #8]
 800876e:	687b      	ldr	r3, [r7, #4]
 8008770:	681b      	ldr	r3, [r3, #0]
 8008772:	f442 4280 	orr.w	r2, r2, #16384	; 0x4000
 8008776:	609a      	str	r2, [r3, #8]
      break;
 8008778:	e03c      	b.n	80087f4 <HAL_TIM_ConfigClockSource+0x174>

      /* Check TI1 input conditioning related parameters */
      assert_param(IS_TIM_CLOCKPOLARITY(sClockSourceConfig->ClockPolarity));
      assert_param(IS_TIM_CLOCKFILTER(sClockSourceConfig->ClockFilter));

      TIM_TI1_ConfigInputStage(htim->Instance,
 800877a:	687b      	ldr	r3, [r7, #4]
 800877c:	6818      	ldr	r0, [r3, #0]
 800877e:	683b      	ldr	r3, [r7, #0]
 8008780:	6859      	ldr	r1, [r3, #4]
 8008782:	683b      	ldr	r3, [r7, #0]
 8008784:	68db      	ldr	r3, [r3, #12]
 8008786:	461a      	mov	r2, r3
 8008788:	f000 fa92 	bl	8008cb0 <TIM_TI1_ConfigInputStage>
                               sClockSourceConfig->ClockPolarity,
                               sClockSourceConfig->ClockFilter);
      TIM_ITRx_SetConfig(htim->Instance, TIM_CLOCKSOURCE_TI1);
 800878c:	687b      	ldr	r3, [r7, #4]
 800878e:	681b      	ldr	r3, [r3, #0]
 8008790:	2150      	movs	r1, #80	; 0x50
 8008792:	4618      	mov	r0, r3
 8008794:	f000 faeb 	bl	8008d6e <TIM_ITRx_SetConfig>
      break;
 8008798:	e02c      	b.n	80087f4 <HAL_TIM_ConfigClockSource+0x174>

      /* Check TI2 input conditioning related parameters */
      assert_param(IS_TIM_CLOCKPOLARITY(sClockSourceConfig->ClockPolarity));
      assert_param(IS_TIM_CLOCKFILTER(sClockSourceConfig->ClockFilter));

      TIM_TI2_ConfigInputStage(htim->Instance,
 800879a:	687b      	ldr	r3, [r7, #4]
 800879c:	6818      	ldr	r0, [r3, #0]
 800879e:	683b      	ldr	r3, [r7, #0]
 80087a0:	6859      	ldr	r1, [r3, #4]
 80087a2:	683b      	ldr	r3, [r7, #0]
 80087a4:	68db      	ldr	r3, [r3, #12]
 80087a6:	461a      	mov	r2, r3
 80087a8:	f000 fab1 	bl	8008d0e <TIM_TI2_ConfigInputStage>
                               sClockSourceConfig->ClockPolarity,
                               sClockSourceConfig->ClockFilter);
      TIM_ITRx_SetConfig(htim->Instance, TIM_CLOCKSOURCE_TI2);
 80087ac:	687b      	ldr	r3, [r7, #4]
 80087ae:	681b      	ldr	r3, [r3, #0]
 80087b0:	2160      	movs	r1, #96	; 0x60
 80087b2:	4618      	mov	r0, r3
 80087b4:	f000 fadb 	bl	8008d6e <TIM_ITRx_SetConfig>
      break;
 80087b8:	e01c      	b.n	80087f4 <HAL_TIM_ConfigClockSource+0x174>

      /* Check TI1 input conditioning related parameters */
      assert_param(IS_TIM_CLOCKPOLARITY(sClockSourceConfig->ClockPolarity));
      assert_param(IS_TIM_CLOCKFILTER(sClockSourceConfig->ClockFilter));

      TIM_TI1_ConfigInputStage(htim->Instance,
 80087ba:	687b      	ldr	r3, [r7, #4]
 80087bc:	6818      	ldr	r0, [r3, #0]
 80087be:	683b      	ldr	r3, [r7, #0]
 80087c0:	6859      	ldr	r1, [r3, #4]
 80087c2:	683b      	ldr	r3, [r7, #0]
 80087c4:	68db      	ldr	r3, [r3, #12]
 80087c6:	461a      	mov	r2, r3
 80087c8:	f000 fa72 	bl	8008cb0 <TIM_TI1_ConfigInputStage>
                               sClockSourceConfig->ClockPolarity,
                               sClockSourceConfig->ClockFilter);
      TIM_ITRx_SetConfig(htim->Instance, TIM_CLOCKSOURCE_TI1ED);
 80087cc:	687b      	ldr	r3, [r7, #4]
 80087ce:	681b      	ldr	r3, [r3, #0]
 80087d0:	2140      	movs	r1, #64	; 0x40
 80087d2:	4618      	mov	r0, r3
 80087d4:	f000 facb 	bl	8008d6e <TIM_ITRx_SetConfig>
      break;
 80087d8:	e00c      	b.n	80087f4 <HAL_TIM_ConfigClockSource+0x174>
    case TIM_CLOCKSOURCE_ITR3:
    {
      /* Check whether or not the timer instance supports internal trigger input */
      assert_param(IS_TIM_CLOCKSOURCE_ITRX_INSTANCE(htim->Instance));

      TIM_ITRx_SetConfig(htim->Instance, sClockSourceConfig->ClockSource);
 80087da:	687b      	ldr	r3, [r7, #4]
 80087dc:	681a      	ldr	r2, [r3, #0]
 80087de:	683b      	ldr	r3, [r7, #0]
 80087e0:	681b      	ldr	r3, [r3, #0]
 80087e2:	4619      	mov	r1, r3
 80087e4:	4610      	mov	r0, r2
 80087e6:	f000 fac2 	bl	8008d6e <TIM_ITRx_SetConfig>
      break;
 80087ea:	e003      	b.n	80087f4 <HAL_TIM_ConfigClockSource+0x174>
    }

    default:
      status = HAL_ERROR;
 80087ec:	2301      	movs	r3, #1
 80087ee:	73fb      	strb	r3, [r7, #15]
      break;
 80087f0:	e000      	b.n	80087f4 <HAL_TIM_ConfigClockSource+0x174>
      break;
 80087f2:	bf00      	nop
  }
  htim->State = HAL_TIM_STATE_READY;
 80087f4:	687b      	ldr	r3, [r7, #4]
 80087f6:	2201      	movs	r2, #1
 80087f8:	f883 203d 	strb.w	r2, [r3, #61]	; 0x3d

  __HAL_UNLOCK(htim);
 80087fc:	687b      	ldr	r3, [r7, #4]
 80087fe:	2200      	movs	r2, #0
 8008800:	f883 203c 	strb.w	r2, [r3, #60]	; 0x3c

  return status;
 8008804:	7bfb      	ldrb	r3, [r7, #15]
}
 8008806:	4618      	mov	r0, r3
 8008808:	3710      	adds	r7, #16
 800880a:	46bd      	mov	sp, r7
 800880c:	bd80      	pop	{r7, pc}
	...

08008810 <TIM_Base_SetConfig>:
  * @param  TIMx TIM peripheral
  * @param  Structure TIM Base configuration structure
  * @retval None
  */
void TIM_Base_SetConfig(TIM_TypeDef *TIMx, TIM_Base_InitTypeDef *Structure)
{
 8008810:	b480      	push	{r7}
 8008812:	b085      	sub	sp, #20
 8008814:	af00      	add	r7, sp, #0
 8008816:	6078      	str	r0, [r7, #4]
 8008818:	6039      	str	r1, [r7, #0]
  uint32_t tmpcr1;
  tmpcr1 = TIMx->CR1;
 800881a:	687b      	ldr	r3, [r7, #4]
 800881c:	681b      	ldr	r3, [r3, #0]
 800881e:	60fb      	str	r3, [r7, #12]

  /* Set TIM Time Base Unit parameters ---------------------------------------*/
  if (IS_TIM_COUNTER_MODE_SELECT_INSTANCE(TIMx))
 8008820:	687b      	ldr	r3, [r7, #4]
 8008822:	4a40      	ldr	r2, [pc, #256]	; (8008924 <TIM_Base_SetConfig+0x114>)
 8008824:	4293      	cmp	r3, r2
 8008826:	d013      	beq.n	8008850 <TIM_Base_SetConfig+0x40>
 8008828:	687b      	ldr	r3, [r7, #4]
 800882a:	f1b3 4f80 	cmp.w	r3, #1073741824	; 0x40000000
 800882e:	d00f      	beq.n	8008850 <TIM_Base_SetConfig+0x40>
 8008830:	687b      	ldr	r3, [r7, #4]
 8008832:	4a3d      	ldr	r2, [pc, #244]	; (8008928 <TIM_Base_SetConfig+0x118>)
 8008834:	4293      	cmp	r3, r2
 8008836:	d00b      	beq.n	8008850 <TIM_Base_SetConfig+0x40>
 8008838:	687b      	ldr	r3, [r7, #4]
 800883a:	4a3c      	ldr	r2, [pc, #240]	; (800892c <TIM_Base_SetConfig+0x11c>)
 800883c:	4293      	cmp	r3, r2
 800883e:	d007      	beq.n	8008850 <TIM_Base_SetConfig+0x40>
 8008840:	687b      	ldr	r3, [r7, #4]
 8008842:	4a3b      	ldr	r2, [pc, #236]	; (8008930 <TIM_Base_SetConfig+0x120>)
 8008844:	4293      	cmp	r3, r2
 8008846:	d003      	beq.n	8008850 <TIM_Base_SetConfig+0x40>
 8008848:	687b      	ldr	r3, [r7, #4]
 800884a:	4a3a      	ldr	r2, [pc, #232]	; (8008934 <TIM_Base_SetConfig+0x124>)
 800884c:	4293      	cmp	r3, r2
 800884e:	d108      	bne.n	8008862 <TIM_Base_SetConfig+0x52>
  {
    /* Select the Counter Mode */
    tmpcr1 &= ~(TIM_CR1_DIR | TIM_CR1_CMS);
 8008850:	68fb      	ldr	r3, [r7, #12]
 8008852:	f023 0370 	bic.w	r3, r3, #112	; 0x70
 8008856:	60fb      	str	r3, [r7, #12]
    tmpcr1 |= Structure->CounterMode;
 8008858:	683b      	ldr	r3, [r7, #0]
 800885a:	685b      	ldr	r3, [r3, #4]
 800885c:	68fa      	ldr	r2, [r7, #12]
 800885e:	4313      	orrs	r3, r2
 8008860:	60fb      	str	r3, [r7, #12]
  }

  if (IS_TIM_CLOCK_DIVISION_INSTANCE(TIMx))
 8008862:	687b      	ldr	r3, [r7, #4]
 8008864:	4a2f      	ldr	r2, [pc, #188]	; (8008924 <TIM_Base_SetConfig+0x114>)
 8008866:	4293      	cmp	r3, r2
 8008868:	d02b      	beq.n	80088c2 <TIM_Base_SetConfig+0xb2>
 800886a:	687b      	ldr	r3, [r7, #4]
 800886c:	f1b3 4f80 	cmp.w	r3, #1073741824	; 0x40000000
 8008870:	d027      	beq.n	80088c2 <TIM_Base_SetConfig+0xb2>
 8008872:	687b      	ldr	r3, [r7, #4]
 8008874:	4a2c      	ldr	r2, [pc, #176]	; (8008928 <TIM_Base_SetConfig+0x118>)
 8008876:	4293      	cmp	r3, r2
 8008878:	d023      	beq.n	80088c2 <TIM_Base_SetConfig+0xb2>
 800887a:	687b      	ldr	r3, [r7, #4]
 800887c:	4a2b      	ldr	r2, [pc, #172]	; (800892c <TIM_Base_SetConfig+0x11c>)
 800887e:	4293      	cmp	r3, r2
 8008880:	d01f      	beq.n	80088c2 <TIM_Base_SetConfig+0xb2>
 8008882:	687b      	ldr	r3, [r7, #4]
 8008884:	4a2a      	ldr	r2, [pc, #168]	; (8008930 <TIM_Base_SetConfig+0x120>)
 8008886:	4293      	cmp	r3, r2
 8008888:	d01b      	beq.n	80088c2 <TIM_Base_SetConfig+0xb2>
 800888a:	687b      	ldr	r3, [r7, #4]
 800888c:	4a29      	ldr	r2, [pc, #164]	; (8008934 <TIM_Base_SetConfig+0x124>)
 800888e:	4293      	cmp	r3, r2
 8008890:	d017      	beq.n	80088c2 <TIM_Base_SetConfig+0xb2>
 8008892:	687b      	ldr	r3, [r7, #4]
 8008894:	4a28      	ldr	r2, [pc, #160]	; (8008938 <TIM_Base_SetConfig+0x128>)
 8008896:	4293      	cmp	r3, r2
 8008898:	d013      	beq.n	80088c2 <TIM_Base_SetConfig+0xb2>
 800889a:	687b      	ldr	r3, [r7, #4]
 800889c:	4a27      	ldr	r2, [pc, #156]	; (800893c <TIM_Base_SetConfig+0x12c>)
 800889e:	4293      	cmp	r3, r2
 80088a0:	d00f      	beq.n	80088c2 <TIM_Base_SetConfig+0xb2>
 80088a2:	687b      	ldr	r3, [r7, #4]
 80088a4:	4a26      	ldr	r2, [pc, #152]	; (8008940 <TIM_Base_SetConfig+0x130>)
 80088a6:	4293      	cmp	r3, r2
 80088a8:	d00b      	beq.n	80088c2 <TIM_Base_SetConfig+0xb2>
 80088aa:	687b      	ldr	r3, [r7, #4]
 80088ac:	4a25      	ldr	r2, [pc, #148]	; (8008944 <TIM_Base_SetConfig+0x134>)
 80088ae:	4293      	cmp	r3, r2
 80088b0:	d007      	beq.n	80088c2 <TIM_Base_SetConfig+0xb2>
 80088b2:	687b      	ldr	r3, [r7, #4]
 80088b4:	4a24      	ldr	r2, [pc, #144]	; (8008948 <TIM_Base_SetConfig+0x138>)
 80088b6:	4293      	cmp	r3, r2
 80088b8:	d003      	beq.n	80088c2 <TIM_Base_SetConfig+0xb2>
 80088ba:	687b      	ldr	r3, [r7, #4]
 80088bc:	4a23      	ldr	r2, [pc, #140]	; (800894c <TIM_Base_SetConfig+0x13c>)
 80088be:	4293      	cmp	r3, r2
 80088c0:	d108      	bne.n	80088d4 <TIM_Base_SetConfig+0xc4>
  {
    /* Set the clock division */
    tmpcr1 &= ~TIM_CR1_CKD;
 80088c2:	68fb      	ldr	r3, [r7, #12]
 80088c4:	f423 7340 	bic.w	r3, r3, #768	; 0x300
 80088c8:	60fb      	str	r3, [r7, #12]
    tmpcr1 |= (uint32_t)Structure->ClockDivision;
 80088ca:	683b      	ldr	r3, [r7, #0]
 80088cc:	68db      	ldr	r3, [r3, #12]
 80088ce:	68fa      	ldr	r2, [r7, #12]
 80088d0:	4313      	orrs	r3, r2
 80088d2:	60fb      	str	r3, [r7, #12]
  }

  /* Set the auto-reload preload */
  MODIFY_REG(tmpcr1, TIM_CR1_ARPE, Structure->AutoReloadPreload);
 80088d4:	68fb      	ldr	r3, [r7, #12]
 80088d6:	f023 0280 	bic.w	r2, r3, #128	; 0x80
 80088da:	683b      	ldr	r3, [r7, #0]
 80088dc:	695b      	ldr	r3, [r3, #20]
 80088de:	4313      	orrs	r3, r2
 80088e0:	60fb      	str	r3, [r7, #12]

  TIMx->CR1 = tmpcr1;
 80088e2:	687b      	ldr	r3, [r7, #4]
 80088e4:	68fa      	ldr	r2, [r7, #12]
 80088e6:	601a      	str	r2, [r3, #0]

  /* Set the Autoreload value */
  TIMx->ARR = (uint32_t)Structure->Period ;
 80088e8:	683b      	ldr	r3, [r7, #0]
 80088ea:	689a      	ldr	r2, [r3, #8]
 80088ec:	687b      	ldr	r3, [r7, #4]
 80088ee:	62da      	str	r2, [r3, #44]	; 0x2c

  /* Set the Prescaler value */
  TIMx->PSC = Structure->Prescaler;
 80088f0:	683b      	ldr	r3, [r7, #0]
 80088f2:	681a      	ldr	r2, [r3, #0]
 80088f4:	687b      	ldr	r3, [r7, #4]
 80088f6:	629a      	str	r2, [r3, #40]	; 0x28

  if (IS_TIM_REPETITION_COUNTER_INSTANCE(TIMx))
 80088f8:	687b      	ldr	r3, [r7, #4]
 80088fa:	4a0a      	ldr	r2, [pc, #40]	; (8008924 <TIM_Base_SetConfig+0x114>)
 80088fc:	4293      	cmp	r3, r2
 80088fe:	d003      	beq.n	8008908 <TIM_Base_SetConfig+0xf8>
 8008900:	687b      	ldr	r3, [r7, #4]
 8008902:	4a0c      	ldr	r2, [pc, #48]	; (8008934 <TIM_Base_SetConfig+0x124>)
 8008904:	4293      	cmp	r3, r2
 8008906:	d103      	bne.n	8008910 <TIM_Base_SetConfig+0x100>
  {
    /* Set the Repetition Counter value */
    TIMx->RCR = Structure->RepetitionCounter;
 8008908:	683b      	ldr	r3, [r7, #0]
 800890a:	691a      	ldr	r2, [r3, #16]
 800890c:	687b      	ldr	r3, [r7, #4]
 800890e:	631a      	str	r2, [r3, #48]	; 0x30
  }

  /* Generate an update event to reload the Prescaler
     and the repetition counter (only for advanced timer) value immediately */
  TIMx->EGR = TIM_EGR_UG;
 8008910:	687b      	ldr	r3, [r7, #4]
 8008912:	2201      	movs	r2, #1
 8008914:	615a      	str	r2, [r3, #20]
}
 8008916:	bf00      	nop
 8008918:	3714      	adds	r7, #20
 800891a:	46bd      	mov	sp, r7
 800891c:	f85d 7b04 	ldr.w	r7, [sp], #4
 8008920:	4770      	bx	lr
 8008922:	bf00      	nop
 8008924:	40010000 	.word	0x40010000
 8008928:	40000400 	.word	0x40000400
 800892c:	40000800 	.word	0x40000800
 8008930:	40000c00 	.word	0x40000c00
 8008934:	40010400 	.word	0x40010400
 8008938:	40014000 	.word	0x40014000
 800893c:	40014400 	.word	0x40014400
 8008940:	40014800 	.word	0x40014800
 8008944:	40001800 	.word	0x40001800
 8008948:	40001c00 	.word	0x40001c00
 800894c:	40002000 	.word	0x40002000

08008950 <TIM_OC1_SetConfig>:
  * @param  TIMx to select the TIM peripheral
  * @param  OC_Config The output configuration structure
  * @retval None
  */
static void TIM_OC1_SetConfig(TIM_TypeDef *TIMx, TIM_OC_InitTypeDef *OC_Config)
{
 8008950:	b480      	push	{r7}
 8008952:	b087      	sub	sp, #28
 8008954:	af00      	add	r7, sp, #0
 8008956:	6078      	str	r0, [r7, #4]
 8008958:	6039      	str	r1, [r7, #0]
  uint32_t tmpccmrx;
  uint32_t tmpccer;
  uint32_t tmpcr2;

  /* Disable the Channel 1: Reset the CC1E Bit */
  TIMx->CCER &= ~TIM_CCER_CC1E;
 800895a:	687b      	ldr	r3, [r7, #4]
 800895c:	6a1b      	ldr	r3, [r3, #32]
 800895e:	f023 0201 	bic.w	r2, r3, #1
 8008962:	687b      	ldr	r3, [r7, #4]
 8008964:	621a      	str	r2, [r3, #32]

  /* Get the TIMx CCER register value */
  tmpccer = TIMx->CCER;
 8008966:	687b      	ldr	r3, [r7, #4]
 8008968:	6a1b      	ldr	r3, [r3, #32]
 800896a:	617b      	str	r3, [r7, #20]
  /* Get the TIMx CR2 register value */
  tmpcr2 =  TIMx->CR2;
 800896c:	687b      	ldr	r3, [r7, #4]
 800896e:	685b      	ldr	r3, [r3, #4]
 8008970:	613b      	str	r3, [r7, #16]

  /* Get the TIMx CCMR1 register value */
  tmpccmrx = TIMx->CCMR1;
 8008972:	687b      	ldr	r3, [r7, #4]
 8008974:	699b      	ldr	r3, [r3, #24]
 8008976:	60fb      	str	r3, [r7, #12]

  /* Reset the Output Compare Mode Bits */
  tmpccmrx &= ~TIM_CCMR1_OC1M;
 8008978:	68fb      	ldr	r3, [r7, #12]
 800897a:	f023 0370 	bic.w	r3, r3, #112	; 0x70
 800897e:	60fb      	str	r3, [r7, #12]
  tmpccmrx &= ~TIM_CCMR1_CC1S;
 8008980:	68fb      	ldr	r3, [r7, #12]
 8008982:	f023 0303 	bic.w	r3, r3, #3
 8008986:	60fb      	str	r3, [r7, #12]
  /* Select the Output Compare Mode */
  tmpccmrx |= OC_Config->OCMode;
 8008988:	683b      	ldr	r3, [r7, #0]
 800898a:	681b      	ldr	r3, [r3, #0]
 800898c:	68fa      	ldr	r2, [r7, #12]
 800898e:	4313      	orrs	r3, r2
 8008990:	60fb      	str	r3, [r7, #12]

  /* Reset the Output Polarity level */
  tmpccer &= ~TIM_CCER_CC1P;
 8008992:	697b      	ldr	r3, [r7, #20]
 8008994:	f023 0302 	bic.w	r3, r3, #2
 8008998:	617b      	str	r3, [r7, #20]
  /* Set the Output Compare Polarity */
  tmpccer |= OC_Config->OCPolarity;
 800899a:	683b      	ldr	r3, [r7, #0]
 800899c:	689b      	ldr	r3, [r3, #8]
 800899e:	697a      	ldr	r2, [r7, #20]
 80089a0:	4313      	orrs	r3, r2
 80089a2:	617b      	str	r3, [r7, #20]

  if (IS_TIM_CCXN_INSTANCE(TIMx, TIM_CHANNEL_1))
 80089a4:	687b      	ldr	r3, [r7, #4]
 80089a6:	4a20      	ldr	r2, [pc, #128]	; (8008a28 <TIM_OC1_SetConfig+0xd8>)
 80089a8:	4293      	cmp	r3, r2
 80089aa:	d003      	beq.n	80089b4 <TIM_OC1_SetConfig+0x64>
 80089ac:	687b      	ldr	r3, [r7, #4]
 80089ae:	4a1f      	ldr	r2, [pc, #124]	; (8008a2c <TIM_OC1_SetConfig+0xdc>)
 80089b0:	4293      	cmp	r3, r2
 80089b2:	d10c      	bne.n	80089ce <TIM_OC1_SetConfig+0x7e>
  {
    /* Check parameters */
    assert_param(IS_TIM_OCN_POLARITY(OC_Config->OCNPolarity));

    /* Reset the Output N Polarity level */
    tmpccer &= ~TIM_CCER_CC1NP;
 80089b4:	697b      	ldr	r3, [r7, #20]
 80089b6:	f023 0308 	bic.w	r3, r3, #8
 80089ba:	617b      	str	r3, [r7, #20]
    /* Set the Output N Polarity */
    tmpccer |= OC_Config->OCNPolarity;
 80089bc:	683b      	ldr	r3, [r7, #0]
 80089be:	68db      	ldr	r3, [r3, #12]
 80089c0:	697a      	ldr	r2, [r7, #20]
 80089c2:	4313      	orrs	r3, r2
 80089c4:	617b      	str	r3, [r7, #20]
    /* Reset the Output N State */
    tmpccer &= ~TIM_CCER_CC1NE;
 80089c6:	697b      	ldr	r3, [r7, #20]
 80089c8:	f023 0304 	bic.w	r3, r3, #4
 80089cc:	617b      	str	r3, [r7, #20]
  }

  if (IS_TIM_BREAK_INSTANCE(TIMx))
 80089ce:	687b      	ldr	r3, [r7, #4]
 80089d0:	4a15      	ldr	r2, [pc, #84]	; (8008a28 <TIM_OC1_SetConfig+0xd8>)
 80089d2:	4293      	cmp	r3, r2
 80089d4:	d003      	beq.n	80089de <TIM_OC1_SetConfig+0x8e>
 80089d6:	687b      	ldr	r3, [r7, #4]
 80089d8:	4a14      	ldr	r2, [pc, #80]	; (8008a2c <TIM_OC1_SetConfig+0xdc>)
 80089da:	4293      	cmp	r3, r2
 80089dc:	d111      	bne.n	8008a02 <TIM_OC1_SetConfig+0xb2>
    /* Check parameters */
    assert_param(IS_TIM_OCNIDLE_STATE(OC_Config->OCNIdleState));
    assert_param(IS_TIM_OCIDLE_STATE(OC_Config->OCIdleState));

    /* Reset the Output Compare and Output Compare N IDLE State */
    tmpcr2 &= ~TIM_CR2_OIS1;
 80089de:	693b      	ldr	r3, [r7, #16]
 80089e0:	f423 7380 	bic.w	r3, r3, #256	; 0x100
 80089e4:	613b      	str	r3, [r7, #16]
    tmpcr2 &= ~TIM_CR2_OIS1N;
 80089e6:	693b      	ldr	r3, [r7, #16]
 80089e8:	f423 7300 	bic.w	r3, r3, #512	; 0x200
 80089ec:	613b      	str	r3, [r7, #16]
    /* Set the Output Idle state */
    tmpcr2 |= OC_Config->OCIdleState;
 80089ee:	683b      	ldr	r3, [r7, #0]
 80089f0:	695b      	ldr	r3, [r3, #20]
 80089f2:	693a      	ldr	r2, [r7, #16]
 80089f4:	4313      	orrs	r3, r2
 80089f6:	613b      	str	r3, [r7, #16]
    /* Set the Output N Idle state */
    tmpcr2 |= OC_Config->OCNIdleState;
 80089f8:	683b      	ldr	r3, [r7, #0]
 80089fa:	699b      	ldr	r3, [r3, #24]
 80089fc:	693a      	ldr	r2, [r7, #16]
 80089fe:	4313      	orrs	r3, r2
 8008a00:	613b      	str	r3, [r7, #16]
  }

  /* Write to TIMx CR2 */
  TIMx->CR2 = tmpcr2;
 8008a02:	687b      	ldr	r3, [r7, #4]
 8008a04:	693a      	ldr	r2, [r7, #16]
 8008a06:	605a      	str	r2, [r3, #4]

  /* Write to TIMx CCMR1 */
  TIMx->CCMR1 = tmpccmrx;
 8008a08:	687b      	ldr	r3, [r7, #4]
 8008a0a:	68fa      	ldr	r2, [r7, #12]
 8008a0c:	619a      	str	r2, [r3, #24]

  /* Set the Capture Compare Register value */
  TIMx->CCR1 = OC_Config->Pulse;
 8008a0e:	683b      	ldr	r3, [r7, #0]
 8008a10:	685a      	ldr	r2, [r3, #4]
 8008a12:	687b      	ldr	r3, [r7, #4]
 8008a14:	635a      	str	r2, [r3, #52]	; 0x34

  /* Write to TIMx CCER */
  TIMx->CCER = tmpccer;
 8008a16:	687b      	ldr	r3, [r7, #4]
 8008a18:	697a      	ldr	r2, [r7, #20]
 8008a1a:	621a      	str	r2, [r3, #32]
}
 8008a1c:	bf00      	nop
 8008a1e:	371c      	adds	r7, #28
 8008a20:	46bd      	mov	sp, r7
 8008a22:	f85d 7b04 	ldr.w	r7, [sp], #4
 8008a26:	4770      	bx	lr
 8008a28:	40010000 	.word	0x40010000
 8008a2c:	40010400 	.word	0x40010400

08008a30 <TIM_OC2_SetConfig>:
  * @param  TIMx to select the TIM peripheral
  * @param  OC_Config The output configuration structure
  * @retval None
  */
void TIM_OC2_SetConfig(TIM_TypeDef *TIMx, TIM_OC_InitTypeDef *OC_Config)
{
 8008a30:	b480      	push	{r7}
 8008a32:	b087      	sub	sp, #28
 8008a34:	af00      	add	r7, sp, #0
 8008a36:	6078      	str	r0, [r7, #4]
 8008a38:	6039      	str	r1, [r7, #0]
  uint32_t tmpccmrx;
  uint32_t tmpccer;
  uint32_t tmpcr2;

  /* Disable the Channel 2: Reset the CC2E Bit */
  TIMx->CCER &= ~TIM_CCER_CC2E;
 8008a3a:	687b      	ldr	r3, [r7, #4]
 8008a3c:	6a1b      	ldr	r3, [r3, #32]
 8008a3e:	f023 0210 	bic.w	r2, r3, #16
 8008a42:	687b      	ldr	r3, [r7, #4]
 8008a44:	621a      	str	r2, [r3, #32]

  /* Get the TIMx CCER register value */
  tmpccer = TIMx->CCER;
 8008a46:	687b      	ldr	r3, [r7, #4]
 8008a48:	6a1b      	ldr	r3, [r3, #32]
 8008a4a:	617b      	str	r3, [r7, #20]
  /* Get the TIMx CR2 register value */
  tmpcr2 =  TIMx->CR2;
 8008a4c:	687b      	ldr	r3, [r7, #4]
 8008a4e:	685b      	ldr	r3, [r3, #4]
 8008a50:	613b      	str	r3, [r7, #16]

  /* Get the TIMx CCMR1 register value */
  tmpccmrx = TIMx->CCMR1;
 8008a52:	687b      	ldr	r3, [r7, #4]
 8008a54:	699b      	ldr	r3, [r3, #24]
 8008a56:	60fb      	str	r3, [r7, #12]

  /* Reset the Output Compare mode and Capture/Compare selection Bits */
  tmpccmrx &= ~TIM_CCMR1_OC2M;
 8008a58:	68fb      	ldr	r3, [r7, #12]
 8008a5a:	f423 43e0 	bic.w	r3, r3, #28672	; 0x7000
 8008a5e:	60fb      	str	r3, [r7, #12]
  tmpccmrx &= ~TIM_CCMR1_CC2S;
 8008a60:	68fb      	ldr	r3, [r7, #12]
 8008a62:	f423 7340 	bic.w	r3, r3, #768	; 0x300
 8008a66:	60fb      	str	r3, [r7, #12]

  /* Select the Output Compare Mode */
  tmpccmrx |= (OC_Config->OCMode << 8U);
 8008a68:	683b      	ldr	r3, [r7, #0]
 8008a6a:	681b      	ldr	r3, [r3, #0]
 8008a6c:	021b      	lsls	r3, r3, #8
 8008a6e:	68fa      	ldr	r2, [r7, #12]
 8008a70:	4313      	orrs	r3, r2
 8008a72:	60fb      	str	r3, [r7, #12]

  /* Reset the Output Polarity level */
  tmpccer &= ~TIM_CCER_CC2P;
 8008a74:	697b      	ldr	r3, [r7, #20]
 8008a76:	f023 0320 	bic.w	r3, r3, #32
 8008a7a:	617b      	str	r3, [r7, #20]
  /* Set the Output Compare Polarity */
  tmpccer |= (OC_Config->OCPolarity << 4U);
 8008a7c:	683b      	ldr	r3, [r7, #0]
 8008a7e:	689b      	ldr	r3, [r3, #8]
 8008a80:	011b      	lsls	r3, r3, #4
 8008a82:	697a      	ldr	r2, [r7, #20]
 8008a84:	4313      	orrs	r3, r2
 8008a86:	617b      	str	r3, [r7, #20]

  if (IS_TIM_CCXN_INSTANCE(TIMx, TIM_CHANNEL_2))
 8008a88:	687b      	ldr	r3, [r7, #4]
 8008a8a:	4a22      	ldr	r2, [pc, #136]	; (8008b14 <TIM_OC2_SetConfig+0xe4>)
 8008a8c:	4293      	cmp	r3, r2
 8008a8e:	d003      	beq.n	8008a98 <TIM_OC2_SetConfig+0x68>
 8008a90:	687b      	ldr	r3, [r7, #4]
 8008a92:	4a21      	ldr	r2, [pc, #132]	; (8008b18 <TIM_OC2_SetConfig+0xe8>)
 8008a94:	4293      	cmp	r3, r2
 8008a96:	d10d      	bne.n	8008ab4 <TIM_OC2_SetConfig+0x84>
  {
    assert_param(IS_TIM_OCN_POLARITY(OC_Config->OCNPolarity));

    /* Reset the Output N Polarity level */
    tmpccer &= ~TIM_CCER_CC2NP;
 8008a98:	697b      	ldr	r3, [r7, #20]
 8008a9a:	f023 0380 	bic.w	r3, r3, #128	; 0x80
 8008a9e:	617b      	str	r3, [r7, #20]
    /* Set the Output N Polarity */
    tmpccer |= (OC_Config->OCNPolarity << 4U);
 8008aa0:	683b      	ldr	r3, [r7, #0]
 8008aa2:	68db      	ldr	r3, [r3, #12]
 8008aa4:	011b      	lsls	r3, r3, #4
 8008aa6:	697a      	ldr	r2, [r7, #20]
 8008aa8:	4313      	orrs	r3, r2
 8008aaa:	617b      	str	r3, [r7, #20]
    /* Reset the Output N State */
    tmpccer &= ~TIM_CCER_CC2NE;
 8008aac:	697b      	ldr	r3, [r7, #20]
 8008aae:	f023 0340 	bic.w	r3, r3, #64	; 0x40
 8008ab2:	617b      	str	r3, [r7, #20]

  }

  if (IS_TIM_BREAK_INSTANCE(TIMx))
 8008ab4:	687b      	ldr	r3, [r7, #4]
 8008ab6:	4a17      	ldr	r2, [pc, #92]	; (8008b14 <TIM_OC2_SetConfig+0xe4>)
 8008ab8:	4293      	cmp	r3, r2
 8008aba:	d003      	beq.n	8008ac4 <TIM_OC2_SetConfig+0x94>
 8008abc:	687b      	ldr	r3, [r7, #4]
 8008abe:	4a16      	ldr	r2, [pc, #88]	; (8008b18 <TIM_OC2_SetConfig+0xe8>)
 8008ac0:	4293      	cmp	r3, r2
 8008ac2:	d113      	bne.n	8008aec <TIM_OC2_SetConfig+0xbc>
    /* Check parameters */
    assert_param(IS_TIM_OCNIDLE_STATE(OC_Config->OCNIdleState));
    assert_param(IS_TIM_OCIDLE_STATE(OC_Config->OCIdleState));

    /* Reset the Output Compare and Output Compare N IDLE State */
    tmpcr2 &= ~TIM_CR2_OIS2;
 8008ac4:	693b      	ldr	r3, [r7, #16]
 8008ac6:	f423 6380 	bic.w	r3, r3, #1024	; 0x400
 8008aca:	613b      	str	r3, [r7, #16]
    tmpcr2 &= ~TIM_CR2_OIS2N;
 8008acc:	693b      	ldr	r3, [r7, #16]
 8008ace:	f423 6300 	bic.w	r3, r3, #2048	; 0x800
 8008ad2:	613b      	str	r3, [r7, #16]
    /* Set the Output Idle state */
    tmpcr2 |= (OC_Config->OCIdleState << 2U);
 8008ad4:	683b      	ldr	r3, [r7, #0]
 8008ad6:	695b      	ldr	r3, [r3, #20]
 8008ad8:	009b      	lsls	r3, r3, #2
 8008ada:	693a      	ldr	r2, [r7, #16]
 8008adc:	4313      	orrs	r3, r2
 8008ade:	613b      	str	r3, [r7, #16]
    /* Set the Output N Idle state */
    tmpcr2 |= (OC_Config->OCNIdleState << 2U);
 8008ae0:	683b      	ldr	r3, [r7, #0]
 8008ae2:	699b      	ldr	r3, [r3, #24]
 8008ae4:	009b      	lsls	r3, r3, #2
 8008ae6:	693a      	ldr	r2, [r7, #16]
 8008ae8:	4313      	orrs	r3, r2
 8008aea:	613b      	str	r3, [r7, #16]
  }

  /* Write to TIMx CR2 */
  TIMx->CR2 = tmpcr2;
 8008aec:	687b      	ldr	r3, [r7, #4]
 8008aee:	693a      	ldr	r2, [r7, #16]
 8008af0:	605a      	str	r2, [r3, #4]

  /* Write to TIMx CCMR1 */
  TIMx->CCMR1 = tmpccmrx;
 8008af2:	687b      	ldr	r3, [r7, #4]
 8008af4:	68fa      	ldr	r2, [r7, #12]
 8008af6:	619a      	str	r2, [r3, #24]

  /* Set the Capture Compare Register value */
  TIMx->CCR2 = OC_Config->Pulse;
 8008af8:	683b      	ldr	r3, [r7, #0]
 8008afa:	685a      	ldr	r2, [r3, #4]
 8008afc:	687b      	ldr	r3, [r7, #4]
 8008afe:	639a      	str	r2, [r3, #56]	; 0x38

  /* Write to TIMx CCER */
  TIMx->CCER = tmpccer;
 8008b00:	687b      	ldr	r3, [r7, #4]
 8008b02:	697a      	ldr	r2, [r7, #20]
 8008b04:	621a      	str	r2, [r3, #32]
}
 8008b06:	bf00      	nop
 8008b08:	371c      	adds	r7, #28
 8008b0a:	46bd      	mov	sp, r7
 8008b0c:	f85d 7b04 	ldr.w	r7, [sp], #4
 8008b10:	4770      	bx	lr
 8008b12:	bf00      	nop
 8008b14:	40010000 	.word	0x40010000
 8008b18:	40010400 	.word	0x40010400

08008b1c <TIM_OC3_SetConfig>:
  * @param  TIMx to select the TIM peripheral
  * @param  OC_Config The output configuration structure
  * @retval None
  */
static void TIM_OC3_SetConfig(TIM_TypeDef *TIMx, TIM_OC_InitTypeDef *OC_Config)
{
 8008b1c:	b480      	push	{r7}
 8008b1e:	b087      	sub	sp, #28
 8008b20:	af00      	add	r7, sp, #0
 8008b22:	6078      	str	r0, [r7, #4]
 8008b24:	6039      	str	r1, [r7, #0]
  uint32_t tmpccmrx;
  uint32_t tmpccer;
  uint32_t tmpcr2;

  /* Disable the Channel 3: Reset the CC2E Bit */
  TIMx->CCER &= ~TIM_CCER_CC3E;
 8008b26:	687b      	ldr	r3, [r7, #4]
 8008b28:	6a1b      	ldr	r3, [r3, #32]
 8008b2a:	f423 7280 	bic.w	r2, r3, #256	; 0x100
 8008b2e:	687b      	ldr	r3, [r7, #4]
 8008b30:	621a      	str	r2, [r3, #32]

  /* Get the TIMx CCER register value */
  tmpccer = TIMx->CCER;
 8008b32:	687b      	ldr	r3, [r7, #4]
 8008b34:	6a1b      	ldr	r3, [r3, #32]
 8008b36:	617b      	str	r3, [r7, #20]
  /* Get the TIMx CR2 register value */
  tmpcr2 =  TIMx->CR2;
 8008b38:	687b      	ldr	r3, [r7, #4]
 8008b3a:	685b      	ldr	r3, [r3, #4]
 8008b3c:	613b      	str	r3, [r7, #16]

  /* Get the TIMx CCMR2 register value */
  tmpccmrx = TIMx->CCMR2;
 8008b3e:	687b      	ldr	r3, [r7, #4]
 8008b40:	69db      	ldr	r3, [r3, #28]
 8008b42:	60fb      	str	r3, [r7, #12]

  /* Reset the Output Compare mode and Capture/Compare selection Bits */
  tmpccmrx &= ~TIM_CCMR2_OC3M;
 8008b44:	68fb      	ldr	r3, [r7, #12]
 8008b46:	f023 0370 	bic.w	r3, r3, #112	; 0x70
 8008b4a:	60fb      	str	r3, [r7, #12]
  tmpccmrx &= ~TIM_CCMR2_CC3S;
 8008b4c:	68fb      	ldr	r3, [r7, #12]
 8008b4e:	f023 0303 	bic.w	r3, r3, #3
 8008b52:	60fb      	str	r3, [r7, #12]
  /* Select the Output Compare Mode */
  tmpccmrx |= OC_Config->OCMode;
 8008b54:	683b      	ldr	r3, [r7, #0]
 8008b56:	681b      	ldr	r3, [r3, #0]
 8008b58:	68fa      	ldr	r2, [r7, #12]
 8008b5a:	4313      	orrs	r3, r2
 8008b5c:	60fb      	str	r3, [r7, #12]

  /* Reset the Output Polarity level */
  tmpccer &= ~TIM_CCER_CC3P;
 8008b5e:	697b      	ldr	r3, [r7, #20]
 8008b60:	f423 7300 	bic.w	r3, r3, #512	; 0x200
 8008b64:	617b      	str	r3, [r7, #20]
  /* Set the Output Compare Polarity */
  tmpccer |= (OC_Config->OCPolarity << 8U);
 8008b66:	683b      	ldr	r3, [r7, #0]
 8008b68:	689b      	ldr	r3, [r3, #8]
 8008b6a:	021b      	lsls	r3, r3, #8
 8008b6c:	697a      	ldr	r2, [r7, #20]
 8008b6e:	4313      	orrs	r3, r2
 8008b70:	617b      	str	r3, [r7, #20]

  if (IS_TIM_CCXN_INSTANCE(TIMx, TIM_CHANNEL_3))
 8008b72:	687b      	ldr	r3, [r7, #4]
 8008b74:	4a21      	ldr	r2, [pc, #132]	; (8008bfc <TIM_OC3_SetConfig+0xe0>)
 8008b76:	4293      	cmp	r3, r2
 8008b78:	d003      	beq.n	8008b82 <TIM_OC3_SetConfig+0x66>
 8008b7a:	687b      	ldr	r3, [r7, #4]
 8008b7c:	4a20      	ldr	r2, [pc, #128]	; (8008c00 <TIM_OC3_SetConfig+0xe4>)
 8008b7e:	4293      	cmp	r3, r2
 8008b80:	d10d      	bne.n	8008b9e <TIM_OC3_SetConfig+0x82>
  {
    assert_param(IS_TIM_OCN_POLARITY(OC_Config->OCNPolarity));

    /* Reset the Output N Polarity level */
    tmpccer &= ~TIM_CCER_CC3NP;
 8008b82:	697b      	ldr	r3, [r7, #20]
 8008b84:	f423 6300 	bic.w	r3, r3, #2048	; 0x800
 8008b88:	617b      	str	r3, [r7, #20]
    /* Set the Output N Polarity */
    tmpccer |= (OC_Config->OCNPolarity << 8U);
 8008b8a:	683b      	ldr	r3, [r7, #0]
 8008b8c:	68db      	ldr	r3, [r3, #12]
 8008b8e:	021b      	lsls	r3, r3, #8
 8008b90:	697a      	ldr	r2, [r7, #20]
 8008b92:	4313      	orrs	r3, r2
 8008b94:	617b      	str	r3, [r7, #20]
    /* Reset the Output N State */
    tmpccer &= ~TIM_CCER_CC3NE;
 8008b96:	697b      	ldr	r3, [r7, #20]
 8008b98:	f423 6380 	bic.w	r3, r3, #1024	; 0x400
 8008b9c:	617b      	str	r3, [r7, #20]
  }

  if (IS_TIM_BREAK_INSTANCE(TIMx))
 8008b9e:	687b      	ldr	r3, [r7, #4]
 8008ba0:	4a16      	ldr	r2, [pc, #88]	; (8008bfc <TIM_OC3_SetConfig+0xe0>)
 8008ba2:	4293      	cmp	r3, r2
 8008ba4:	d003      	beq.n	8008bae <TIM_OC3_SetConfig+0x92>
 8008ba6:	687b      	ldr	r3, [r7, #4]
 8008ba8:	4a15      	ldr	r2, [pc, #84]	; (8008c00 <TIM_OC3_SetConfig+0xe4>)
 8008baa:	4293      	cmp	r3, r2
 8008bac:	d113      	bne.n	8008bd6 <TIM_OC3_SetConfig+0xba>
    /* Check parameters */
    assert_param(IS_TIM_OCNIDLE_STATE(OC_Config->OCNIdleState));
    assert_param(IS_TIM_OCIDLE_STATE(OC_Config->OCIdleState));

    /* Reset the Output Compare and Output Compare N IDLE State */
    tmpcr2 &= ~TIM_CR2_OIS3;
 8008bae:	693b      	ldr	r3, [r7, #16]
 8008bb0:	f423 5380 	bic.w	r3, r3, #4096	; 0x1000
 8008bb4:	613b      	str	r3, [r7, #16]
    tmpcr2 &= ~TIM_CR2_OIS3N;
 8008bb6:	693b      	ldr	r3, [r7, #16]
 8008bb8:	f423 5300 	bic.w	r3, r3, #8192	; 0x2000
 8008bbc:	613b      	str	r3, [r7, #16]
    /* Set the Output Idle state */
    tmpcr2 |= (OC_Config->OCIdleState << 4U);
 8008bbe:	683b      	ldr	r3, [r7, #0]
 8008bc0:	695b      	ldr	r3, [r3, #20]
 8008bc2:	011b      	lsls	r3, r3, #4
 8008bc4:	693a      	ldr	r2, [r7, #16]
 8008bc6:	4313      	orrs	r3, r2
 8008bc8:	613b      	str	r3, [r7, #16]
    /* Set the Output N Idle state */
    tmpcr2 |= (OC_Config->OCNIdleState << 4U);
 8008bca:	683b      	ldr	r3, [r7, #0]
 8008bcc:	699b      	ldr	r3, [r3, #24]
 8008bce:	011b      	lsls	r3, r3, #4
 8008bd0:	693a      	ldr	r2, [r7, #16]
 8008bd2:	4313      	orrs	r3, r2
 8008bd4:	613b      	str	r3, [r7, #16]
  }

  /* Write to TIMx CR2 */
  TIMx->CR2 = tmpcr2;
 8008bd6:	687b      	ldr	r3, [r7, #4]
 8008bd8:	693a      	ldr	r2, [r7, #16]
 8008bda:	605a      	str	r2, [r3, #4]

  /* Write to TIMx CCMR2 */
  TIMx->CCMR2 = tmpccmrx;
 8008bdc:	687b      	ldr	r3, [r7, #4]
 8008bde:	68fa      	ldr	r2, [r7, #12]
 8008be0:	61da      	str	r2, [r3, #28]

  /* Set the Capture Compare Register value */
  TIMx->CCR3 = OC_Config->Pulse;
 8008be2:	683b      	ldr	r3, [r7, #0]
 8008be4:	685a      	ldr	r2, [r3, #4]
 8008be6:	687b      	ldr	r3, [r7, #4]
 8008be8:	63da      	str	r2, [r3, #60]	; 0x3c

  /* Write to TIMx CCER */
  TIMx->CCER = tmpccer;
 8008bea:	687b      	ldr	r3, [r7, #4]
 8008bec:	697a      	ldr	r2, [r7, #20]
 8008bee:	621a      	str	r2, [r3, #32]
}
 8008bf0:	bf00      	nop
 8008bf2:	371c      	adds	r7, #28
 8008bf4:	46bd      	mov	sp, r7
 8008bf6:	f85d 7b04 	ldr.w	r7, [sp], #4
 8008bfa:	4770      	bx	lr
 8008bfc:	40010000 	.word	0x40010000
 8008c00:	40010400 	.word	0x40010400

08008c04 <TIM_OC4_SetConfig>:
  * @param  TIMx to select the TIM peripheral
  * @param  OC_Config The output configuration structure
  * @retval None
  */
static void TIM_OC4_SetConfig(TIM_TypeDef *TIMx, TIM_OC_InitTypeDef *OC_Config)
{
 8008c04:	b480      	push	{r7}
 8008c06:	b087      	sub	sp, #28
 8008c08:	af00      	add	r7, sp, #0
 8008c0a:	6078      	str	r0, [r7, #4]
 8008c0c:	6039      	str	r1, [r7, #0]
  uint32_t tmpccmrx;
  uint32_t tmpccer;
  uint32_t tmpcr2;

  /* Disable the Channel 4: Reset the CC4E Bit */
  TIMx->CCER &= ~TIM_CCER_CC4E;
 8008c0e:	687b      	ldr	r3, [r7, #4]
 8008c10:	6a1b      	ldr	r3, [r3, #32]
 8008c12:	f423 5280 	bic.w	r2, r3, #4096	; 0x1000
 8008c16:	687b      	ldr	r3, [r7, #4]
 8008c18:	621a      	str	r2, [r3, #32]

  /* Get the TIMx CCER register value */
  tmpccer = TIMx->CCER;
 8008c1a:	687b      	ldr	r3, [r7, #4]
 8008c1c:	6a1b      	ldr	r3, [r3, #32]
 8008c1e:	613b      	str	r3, [r7, #16]
  /* Get the TIMx CR2 register value */
  tmpcr2 =  TIMx->CR2;
 8008c20:	687b      	ldr	r3, [r7, #4]
 8008c22:	685b      	ldr	r3, [r3, #4]
 8008c24:	617b      	str	r3, [r7, #20]

  /* Get the TIMx CCMR2 register value */
  tmpccmrx = TIMx->CCMR2;
 8008c26:	687b      	ldr	r3, [r7, #4]
 8008c28:	69db      	ldr	r3, [r3, #28]
 8008c2a:	60fb      	str	r3, [r7, #12]

  /* Reset the Output Compare mode and Capture/Compare selection Bits */
  tmpccmrx &= ~TIM_CCMR2_OC4M;
 8008c2c:	68fb      	ldr	r3, [r7, #12]
 8008c2e:	f423 43e0 	bic.w	r3, r3, #28672	; 0x7000
 8008c32:	60fb      	str	r3, [r7, #12]
  tmpccmrx &= ~TIM_CCMR2_CC4S;
 8008c34:	68fb      	ldr	r3, [r7, #12]
 8008c36:	f423 7340 	bic.w	r3, r3, #768	; 0x300
 8008c3a:	60fb      	str	r3, [r7, #12]

  /* Select the Output Compare Mode */
  tmpccmrx |= (OC_Config->OCMode << 8U);
 8008c3c:	683b      	ldr	r3, [r7, #0]
 8008c3e:	681b      	ldr	r3, [r3, #0]
 8008c40:	021b      	lsls	r3, r3, #8
 8008c42:	68fa      	ldr	r2, [r7, #12]
 8008c44:	4313      	orrs	r3, r2
 8008c46:	60fb      	str	r3, [r7, #12]

  /* Reset the Output Polarity level */
  tmpccer &= ~TIM_CCER_CC4P;
 8008c48:	693b      	ldr	r3, [r7, #16]
 8008c4a:	f423 5300 	bic.w	r3, r3, #8192	; 0x2000
 8008c4e:	613b      	str	r3, [r7, #16]
  /* Set the Output Compare Polarity */
  tmpccer |= (OC_Config->OCPolarity << 12U);
 8008c50:	683b      	ldr	r3, [r7, #0]
 8008c52:	689b      	ldr	r3, [r3, #8]
 8008c54:	031b      	lsls	r3, r3, #12
 8008c56:	693a      	ldr	r2, [r7, #16]
 8008c58:	4313      	orrs	r3, r2
 8008c5a:	613b      	str	r3, [r7, #16]

  if (IS_TIM_BREAK_INSTANCE(TIMx))
 8008c5c:	687b      	ldr	r3, [r7, #4]
 8008c5e:	4a12      	ldr	r2, [pc, #72]	; (8008ca8 <TIM_OC4_SetConfig+0xa4>)
 8008c60:	4293      	cmp	r3, r2
 8008c62:	d003      	beq.n	8008c6c <TIM_OC4_SetConfig+0x68>
 8008c64:	687b      	ldr	r3, [r7, #4]
 8008c66:	4a11      	ldr	r2, [pc, #68]	; (8008cac <TIM_OC4_SetConfig+0xa8>)
 8008c68:	4293      	cmp	r3, r2
 8008c6a:	d109      	bne.n	8008c80 <TIM_OC4_SetConfig+0x7c>
  {
    /* Check parameters */
    assert_param(IS_TIM_OCIDLE_STATE(OC_Config->OCIdleState));

    /* Reset the Output Compare IDLE State */
    tmpcr2 &= ~TIM_CR2_OIS4;
 8008c6c:	697b      	ldr	r3, [r7, #20]
 8008c6e:	f423 4380 	bic.w	r3, r3, #16384	; 0x4000
 8008c72:	617b      	str	r3, [r7, #20]

    /* Set the Output Idle state */
    tmpcr2 |= (OC_Config->OCIdleState << 6U);
 8008c74:	683b      	ldr	r3, [r7, #0]
 8008c76:	695b      	ldr	r3, [r3, #20]
 8008c78:	019b      	lsls	r3, r3, #6
 8008c7a:	697a      	ldr	r2, [r7, #20]
 8008c7c:	4313      	orrs	r3, r2
 8008c7e:	617b      	str	r3, [r7, #20]
  }

  /* Write to TIMx CR2 */
  TIMx->CR2 = tmpcr2;
 8008c80:	687b      	ldr	r3, [r7, #4]
 8008c82:	697a      	ldr	r2, [r7, #20]
 8008c84:	605a      	str	r2, [r3, #4]

  /* Write to TIMx CCMR2 */
  TIMx->CCMR2 = tmpccmrx;
 8008c86:	687b      	ldr	r3, [r7, #4]
 8008c88:	68fa      	ldr	r2, [r7, #12]
 8008c8a:	61da      	str	r2, [r3, #28]

  /* Set the Capture Compare Register value */
  TIMx->CCR4 = OC_Config->Pulse;
 8008c8c:	683b      	ldr	r3, [r7, #0]
 8008c8e:	685a      	ldr	r2, [r3, #4]
 8008c90:	687b      	ldr	r3, [r7, #4]
 8008c92:	641a      	str	r2, [r3, #64]	; 0x40

  /* Write to TIMx CCER */
  TIMx->CCER = tmpccer;
 8008c94:	687b      	ldr	r3, [r7, #4]
 8008c96:	693a      	ldr	r2, [r7, #16]
 8008c98:	621a      	str	r2, [r3, #32]
}
 8008c9a:	bf00      	nop
 8008c9c:	371c      	adds	r7, #28
 8008c9e:	46bd      	mov	sp, r7
 8008ca0:	f85d 7b04 	ldr.w	r7, [sp], #4
 8008ca4:	4770      	bx	lr
 8008ca6:	bf00      	nop
 8008ca8:	40010000 	.word	0x40010000
 8008cac:	40010400 	.word	0x40010400

08008cb0 <TIM_TI1_ConfigInputStage>:
  * @param  TIM_ICFilter Specifies the Input Capture Filter.
  *          This parameter must be a value between 0x00 and 0x0F.
  * @retval None
  */
static void TIM_TI1_ConfigInputStage(TIM_TypeDef *TIMx, uint32_t TIM_ICPolarity, uint32_t TIM_ICFilter)
{
 8008cb0:	b480      	push	{r7}
 8008cb2:	b087      	sub	sp, #28
 8008cb4:	af00      	add	r7, sp, #0
 8008cb6:	60f8      	str	r0, [r7, #12]
 8008cb8:	60b9      	str	r1, [r7, #8]
 8008cba:	607a      	str	r2, [r7, #4]
  uint32_t tmpccmr1;
  uint32_t tmpccer;

  /* Disable the Channel 1: Reset the CC1E Bit */
  tmpccer = TIMx->CCER;
 8008cbc:	68fb      	ldr	r3, [r7, #12]
 8008cbe:	6a1b      	ldr	r3, [r3, #32]
 8008cc0:	617b      	str	r3, [r7, #20]
  TIMx->CCER &= ~TIM_CCER_CC1E;
 8008cc2:	68fb      	ldr	r3, [r7, #12]
 8008cc4:	6a1b      	ldr	r3, [r3, #32]
 8008cc6:	f023 0201 	bic.w	r2, r3, #1
 8008cca:	68fb      	ldr	r3, [r7, #12]
 8008ccc:	621a      	str	r2, [r3, #32]
  tmpccmr1 = TIMx->CCMR1;
 8008cce:	68fb      	ldr	r3, [r7, #12]
 8008cd0:	699b      	ldr	r3, [r3, #24]
 8008cd2:	613b      	str	r3, [r7, #16]

  /* Set the filter */
  tmpccmr1 &= ~TIM_CCMR1_IC1F;
 8008cd4:	693b      	ldr	r3, [r7, #16]
 8008cd6:	f023 03f0 	bic.w	r3, r3, #240	; 0xf0
 8008cda:	613b      	str	r3, [r7, #16]
  tmpccmr1 |= (TIM_ICFilter << 4U);
 8008cdc:	687b      	ldr	r3, [r7, #4]
 8008cde:	011b      	lsls	r3, r3, #4
 8008ce0:	693a      	ldr	r2, [r7, #16]
 8008ce2:	4313      	orrs	r3, r2
 8008ce4:	613b      	str	r3, [r7, #16]

  /* Select the Polarity and set the CC1E Bit */
  tmpccer &= ~(TIM_CCER_CC1P | TIM_CCER_CC1NP);
 8008ce6:	697b      	ldr	r3, [r7, #20]
 8008ce8:	f023 030a 	bic.w	r3, r3, #10
 8008cec:	617b      	str	r3, [r7, #20]
  tmpccer |= TIM_ICPolarity;
 8008cee:	697a      	ldr	r2, [r7, #20]
 8008cf0:	68bb      	ldr	r3, [r7, #8]
 8008cf2:	4313      	orrs	r3, r2
 8008cf4:	617b      	str	r3, [r7, #20]

  /* Write to TIMx CCMR1 and CCER registers */
  TIMx->CCMR1 = tmpccmr1;
 8008cf6:	68fb      	ldr	r3, [r7, #12]
 8008cf8:	693a      	ldr	r2, [r7, #16]
 8008cfa:	619a      	str	r2, [r3, #24]
  TIMx->CCER = tmpccer;
 8008cfc:	68fb      	ldr	r3, [r7, #12]
 8008cfe:	697a      	ldr	r2, [r7, #20]
 8008d00:	621a      	str	r2, [r3, #32]
}
 8008d02:	bf00      	nop
 8008d04:	371c      	adds	r7, #28
 8008d06:	46bd      	mov	sp, r7
 8008d08:	f85d 7b04 	ldr.w	r7, [sp], #4
 8008d0c:	4770      	bx	lr

08008d0e <TIM_TI2_ConfigInputStage>:
  * @param  TIM_ICFilter Specifies the Input Capture Filter.
  *          This parameter must be a value between 0x00 and 0x0F.
  * @retval None
  */
static void TIM_TI2_ConfigInputStage(TIM_TypeDef *TIMx, uint32_t TIM_ICPolarity, uint32_t TIM_ICFilter)
{
 8008d0e:	b480      	push	{r7}
 8008d10:	b087      	sub	sp, #28
 8008d12:	af00      	add	r7, sp, #0
 8008d14:	60f8      	str	r0, [r7, #12]
 8008d16:	60b9      	str	r1, [r7, #8]
 8008d18:	607a      	str	r2, [r7, #4]
  uint32_t tmpccmr1;
  uint32_t tmpccer;

  /* Disable the Channel 2: Reset the CC2E Bit */
  TIMx->CCER &= ~TIM_CCER_CC2E;
 8008d1a:	68fb      	ldr	r3, [r7, #12]
 8008d1c:	6a1b      	ldr	r3, [r3, #32]
 8008d1e:	f023 0210 	bic.w	r2, r3, #16
 8008d22:	68fb      	ldr	r3, [r7, #12]
 8008d24:	621a      	str	r2, [r3, #32]
  tmpccmr1 = TIMx->CCMR1;
 8008d26:	68fb      	ldr	r3, [r7, #12]
 8008d28:	699b      	ldr	r3, [r3, #24]
 8008d2a:	617b      	str	r3, [r7, #20]
  tmpccer = TIMx->CCER;
 8008d2c:	68fb      	ldr	r3, [r7, #12]
 8008d2e:	6a1b      	ldr	r3, [r3, #32]
 8008d30:	613b      	str	r3, [r7, #16]

  /* Set the filter */
  tmpccmr1 &= ~TIM_CCMR1_IC2F;
 8008d32:	697b      	ldr	r3, [r7, #20]
 8008d34:	f423 4370 	bic.w	r3, r3, #61440	; 0xf000
 8008d38:	617b      	str	r3, [r7, #20]
  tmpccmr1 |= (TIM_ICFilter << 12U);
 8008d3a:	687b      	ldr	r3, [r7, #4]
 8008d3c:	031b      	lsls	r3, r3, #12
 8008d3e:	697a      	ldr	r2, [r7, #20]
 8008d40:	4313      	orrs	r3, r2
 8008d42:	617b      	str	r3, [r7, #20]

  /* Select the Polarity and set the CC2E Bit */
  tmpccer &= ~(TIM_CCER_CC2P | TIM_CCER_CC2NP);
 8008d44:	693b      	ldr	r3, [r7, #16]
 8008d46:	f023 03a0 	bic.w	r3, r3, #160	; 0xa0
 8008d4a:	613b      	str	r3, [r7, #16]
  tmpccer |= (TIM_ICPolarity << 4U);
 8008d4c:	68bb      	ldr	r3, [r7, #8]
 8008d4e:	011b      	lsls	r3, r3, #4
 8008d50:	693a      	ldr	r2, [r7, #16]
 8008d52:	4313      	orrs	r3, r2
 8008d54:	613b      	str	r3, [r7, #16]

  /* Write to TIMx CCMR1 and CCER registers */
  TIMx->CCMR1 = tmpccmr1 ;
 8008d56:	68fb      	ldr	r3, [r7, #12]
 8008d58:	697a      	ldr	r2, [r7, #20]
 8008d5a:	619a      	str	r2, [r3, #24]
  TIMx->CCER = tmpccer;
 8008d5c:	68fb      	ldr	r3, [r7, #12]
 8008d5e:	693a      	ldr	r2, [r7, #16]
 8008d60:	621a      	str	r2, [r3, #32]
}
 8008d62:	bf00      	nop
 8008d64:	371c      	adds	r7, #28
 8008d66:	46bd      	mov	sp, r7
 8008d68:	f85d 7b04 	ldr.w	r7, [sp], #4
 8008d6c:	4770      	bx	lr

08008d6e <TIM_ITRx_SetConfig>:
  *            @arg TIM_TS_TI2FP2: Filtered Timer Input 2
  *            @arg TIM_TS_ETRF: External Trigger input
  * @retval None
  */
static void TIM_ITRx_SetConfig(TIM_TypeDef *TIMx, uint32_t InputTriggerSource)
{
 8008d6e:	b480      	push	{r7}
 8008d70:	b085      	sub	sp, #20
 8008d72:	af00      	add	r7, sp, #0
 8008d74:	6078      	str	r0, [r7, #4]
 8008d76:	6039      	str	r1, [r7, #0]
  uint32_t tmpsmcr;

  /* Get the TIMx SMCR register value */
  tmpsmcr = TIMx->SMCR;
 8008d78:	687b      	ldr	r3, [r7, #4]
 8008d7a:	689b      	ldr	r3, [r3, #8]
 8008d7c:	60fb      	str	r3, [r7, #12]
  /* Reset the TS Bits */
  tmpsmcr &= ~TIM_SMCR_TS;
 8008d7e:	68fb      	ldr	r3, [r7, #12]
 8008d80:	f023 0370 	bic.w	r3, r3, #112	; 0x70
 8008d84:	60fb      	str	r3, [r7, #12]
  /* Set the Input Trigger source and the slave mode*/
  tmpsmcr |= (InputTriggerSource | TIM_SLAVEMODE_EXTERNAL1);
 8008d86:	683a      	ldr	r2, [r7, #0]
 8008d88:	68fb      	ldr	r3, [r7, #12]
 8008d8a:	4313      	orrs	r3, r2
 8008d8c:	f043 0307 	orr.w	r3, r3, #7
 8008d90:	60fb      	str	r3, [r7, #12]
  /* Write to TIMx SMCR */
  TIMx->SMCR = tmpsmcr;
 8008d92:	687b      	ldr	r3, [r7, #4]
 8008d94:	68fa      	ldr	r2, [r7, #12]
 8008d96:	609a      	str	r2, [r3, #8]
}
 8008d98:	bf00      	nop
 8008d9a:	3714      	adds	r7, #20
 8008d9c:	46bd      	mov	sp, r7
 8008d9e:	f85d 7b04 	ldr.w	r7, [sp], #4
 8008da2:	4770      	bx	lr

08008da4 <TIM_ETR_SetConfig>:
  *          This parameter must be a value between 0x00 and 0x0F
  * @retval None
  */
void TIM_ETR_SetConfig(TIM_TypeDef *TIMx, uint32_t TIM_ExtTRGPrescaler,
                       uint32_t TIM_ExtTRGPolarity, uint32_t ExtTRGFilter)
{
 8008da4:	b480      	push	{r7}
 8008da6:	b087      	sub	sp, #28
 8008da8:	af00      	add	r7, sp, #0
 8008daa:	60f8      	str	r0, [r7, #12]
 8008dac:	60b9      	str	r1, [r7, #8]
 8008dae:	607a      	str	r2, [r7, #4]
 8008db0:	603b      	str	r3, [r7, #0]
  uint32_t tmpsmcr;

  tmpsmcr = TIMx->SMCR;
 8008db2:	68fb      	ldr	r3, [r7, #12]
 8008db4:	689b      	ldr	r3, [r3, #8]
 8008db6:	617b      	str	r3, [r7, #20]

  /* Reset the ETR Bits */
  tmpsmcr &= ~(TIM_SMCR_ETF | TIM_SMCR_ETPS | TIM_SMCR_ECE | TIM_SMCR_ETP);
 8008db8:	697b      	ldr	r3, [r7, #20]
 8008dba:	f423 437f 	bic.w	r3, r3, #65280	; 0xff00
 8008dbe:	617b      	str	r3, [r7, #20]

  /* Set the Prescaler, the Filter value and the Polarity */
  tmpsmcr |= (uint32_t)(TIM_ExtTRGPrescaler | (TIM_ExtTRGPolarity | (ExtTRGFilter << 8U)));
 8008dc0:	683b      	ldr	r3, [r7, #0]
 8008dc2:	021a      	lsls	r2, r3, #8
 8008dc4:	687b      	ldr	r3, [r7, #4]
 8008dc6:	431a      	orrs	r2, r3
 8008dc8:	68bb      	ldr	r3, [r7, #8]
 8008dca:	4313      	orrs	r3, r2
 8008dcc:	697a      	ldr	r2, [r7, #20]
 8008dce:	4313      	orrs	r3, r2
 8008dd0:	617b      	str	r3, [r7, #20]

  /* Write to TIMx SMCR */
  TIMx->SMCR = tmpsmcr;
 8008dd2:	68fb      	ldr	r3, [r7, #12]
 8008dd4:	697a      	ldr	r2, [r7, #20]
 8008dd6:	609a      	str	r2, [r3, #8]
}
 8008dd8:	bf00      	nop
 8008dda:	371c      	adds	r7, #28
 8008ddc:	46bd      	mov	sp, r7
 8008dde:	f85d 7b04 	ldr.w	r7, [sp], #4
 8008de2:	4770      	bx	lr

08008de4 <HAL_TIMEx_MasterConfigSynchronization>:
  *         mode.
  * @retval HAL status
  */
HAL_StatusTypeDef HAL_TIMEx_MasterConfigSynchronization(TIM_HandleTypeDef *htim,
                                                        TIM_MasterConfigTypeDef *sMasterConfig)
{
 8008de4:	b480      	push	{r7}
 8008de6:	b085      	sub	sp, #20
 8008de8:	af00      	add	r7, sp, #0
 8008dea:	6078      	str	r0, [r7, #4]
 8008dec:	6039      	str	r1, [r7, #0]
  assert_param(IS_TIM_MASTER_INSTANCE(htim->Instance));
  assert_param(IS_TIM_TRGO_SOURCE(sMasterConfig->MasterOutputTrigger));
  assert_param(IS_TIM_MSM_STATE(sMasterConfig->MasterSlaveMode));

  /* Check input state */
  __HAL_LOCK(htim);
 8008dee:	687b      	ldr	r3, [r7, #4]
 8008df0:	f893 303c 	ldrb.w	r3, [r3, #60]	; 0x3c
 8008df4:	2b01      	cmp	r3, #1
 8008df6:	d101      	bne.n	8008dfc <HAL_TIMEx_MasterConfigSynchronization+0x18>
 8008df8:	2302      	movs	r3, #2
 8008dfa:	e05a      	b.n	8008eb2 <HAL_TIMEx_MasterConfigSynchronization+0xce>
 8008dfc:	687b      	ldr	r3, [r7, #4]
 8008dfe:	2201      	movs	r2, #1
 8008e00:	f883 203c 	strb.w	r2, [r3, #60]	; 0x3c

  /* Change the handler state */
  htim->State = HAL_TIM_STATE_BUSY;
 8008e04:	687b      	ldr	r3, [r7, #4]
 8008e06:	2202      	movs	r2, #2
 8008e08:	f883 203d 	strb.w	r2, [r3, #61]	; 0x3d

  /* Get the TIMx CR2 register value */
  tmpcr2 = htim->Instance->CR2;
 8008e0c:	687b      	ldr	r3, [r7, #4]
 8008e0e:	681b      	ldr	r3, [r3, #0]
 8008e10:	685b      	ldr	r3, [r3, #4]
 8008e12:	60fb      	str	r3, [r7, #12]

  /* Get the TIMx SMCR register value */
  tmpsmcr = htim->Instance->SMCR;
 8008e14:	687b      	ldr	r3, [r7, #4]
 8008e16:	681b      	ldr	r3, [r3, #0]
 8008e18:	689b      	ldr	r3, [r3, #8]
 8008e1a:	60bb      	str	r3, [r7, #8]

  /* Reset the MMS Bits */
  tmpcr2 &= ~TIM_CR2_MMS;
 8008e1c:	68fb      	ldr	r3, [r7, #12]
 8008e1e:	f023 0370 	bic.w	r3, r3, #112	; 0x70
 8008e22:	60fb      	str	r3, [r7, #12]
  /* Select the TRGO source */
  tmpcr2 |=  sMasterConfig->MasterOutputTrigger;
 8008e24:	683b      	ldr	r3, [r7, #0]
 8008e26:	681b      	ldr	r3, [r3, #0]
 8008e28:	68fa      	ldr	r2, [r7, #12]
 8008e2a:	4313      	orrs	r3, r2
 8008e2c:	60fb      	str	r3, [r7, #12]

  /* Update TIMx CR2 */
  htim->Instance->CR2 = tmpcr2;
 8008e2e:	687b      	ldr	r3, [r7, #4]
 8008e30:	681b      	ldr	r3, [r3, #0]
 8008e32:	68fa      	ldr	r2, [r7, #12]
 8008e34:	605a      	str	r2, [r3, #4]

  if (IS_TIM_SLAVE_INSTANCE(htim->Instance))
 8008e36:	687b      	ldr	r3, [r7, #4]
 8008e38:	681b      	ldr	r3, [r3, #0]
 8008e3a:	4a21      	ldr	r2, [pc, #132]	; (8008ec0 <HAL_TIMEx_MasterConfigSynchronization+0xdc>)
 8008e3c:	4293      	cmp	r3, r2
 8008e3e:	d022      	beq.n	8008e86 <HAL_TIMEx_MasterConfigSynchronization+0xa2>
 8008e40:	687b      	ldr	r3, [r7, #4]
 8008e42:	681b      	ldr	r3, [r3, #0]
 8008e44:	f1b3 4f80 	cmp.w	r3, #1073741824	; 0x40000000
 8008e48:	d01d      	beq.n	8008e86 <HAL_TIMEx_MasterConfigSynchronization+0xa2>
 8008e4a:	687b      	ldr	r3, [r7, #4]
 8008e4c:	681b      	ldr	r3, [r3, #0]
 8008e4e:	4a1d      	ldr	r2, [pc, #116]	; (8008ec4 <HAL_TIMEx_MasterConfigSynchronization+0xe0>)
 8008e50:	4293      	cmp	r3, r2
 8008e52:	d018      	beq.n	8008e86 <HAL_TIMEx_MasterConfigSynchronization+0xa2>
 8008e54:	687b      	ldr	r3, [r7, #4]
 8008e56:	681b      	ldr	r3, [r3, #0]
 8008e58:	4a1b      	ldr	r2, [pc, #108]	; (8008ec8 <HAL_TIMEx_MasterConfigSynchronization+0xe4>)
 8008e5a:	4293      	cmp	r3, r2
 8008e5c:	d013      	beq.n	8008e86 <HAL_TIMEx_MasterConfigSynchronization+0xa2>
 8008e5e:	687b      	ldr	r3, [r7, #4]
 8008e60:	681b      	ldr	r3, [r3, #0]
 8008e62:	4a1a      	ldr	r2, [pc, #104]	; (8008ecc <HAL_TIMEx_MasterConfigSynchronization+0xe8>)
 8008e64:	4293      	cmp	r3, r2
 8008e66:	d00e      	beq.n	8008e86 <HAL_TIMEx_MasterConfigSynchronization+0xa2>
 8008e68:	687b      	ldr	r3, [r7, #4]
 8008e6a:	681b      	ldr	r3, [r3, #0]
 8008e6c:	4a18      	ldr	r2, [pc, #96]	; (8008ed0 <HAL_TIMEx_MasterConfigSynchronization+0xec>)
 8008e6e:	4293      	cmp	r3, r2
 8008e70:	d009      	beq.n	8008e86 <HAL_TIMEx_MasterConfigSynchronization+0xa2>
 8008e72:	687b      	ldr	r3, [r7, #4]
 8008e74:	681b      	ldr	r3, [r3, #0]
 8008e76:	4a17      	ldr	r2, [pc, #92]	; (8008ed4 <HAL_TIMEx_MasterConfigSynchronization+0xf0>)
 8008e78:	4293      	cmp	r3, r2
 8008e7a:	d004      	beq.n	8008e86 <HAL_TIMEx_MasterConfigSynchronization+0xa2>
 8008e7c:	687b      	ldr	r3, [r7, #4]
 8008e7e:	681b      	ldr	r3, [r3, #0]
 8008e80:	4a15      	ldr	r2, [pc, #84]	; (8008ed8 <HAL_TIMEx_MasterConfigSynchronization+0xf4>)
 8008e82:	4293      	cmp	r3, r2
 8008e84:	d10c      	bne.n	8008ea0 <HAL_TIMEx_MasterConfigSynchronization+0xbc>
  {
    /* Reset the MSM Bit */
    tmpsmcr &= ~TIM_SMCR_MSM;
 8008e86:	68bb      	ldr	r3, [r7, #8]
 8008e88:	f023 0380 	bic.w	r3, r3, #128	; 0x80
 8008e8c:	60bb      	str	r3, [r7, #8]
    /* Set master mode */
    tmpsmcr |= sMasterConfig->MasterSlaveMode;
 8008e8e:	683b      	ldr	r3, [r7, #0]
 8008e90:	685b      	ldr	r3, [r3, #4]
 8008e92:	68ba      	ldr	r2, [r7, #8]
 8008e94:	4313      	orrs	r3, r2
 8008e96:	60bb      	str	r3, [r7, #8]

    /* Update TIMx SMCR */
    htim->Instance->SMCR = tmpsmcr;
 8008e98:	687b      	ldr	r3, [r7, #4]
 8008e9a:	681b      	ldr	r3, [r3, #0]
 8008e9c:	68ba      	ldr	r2, [r7, #8]
 8008e9e:	609a      	str	r2, [r3, #8]
  }

  /* Change the htim state */
  htim->State = HAL_TIM_STATE_READY;
 8008ea0:	687b      	ldr	r3, [r7, #4]
 8008ea2:	2201      	movs	r2, #1
 8008ea4:	f883 203d 	strb.w	r2, [r3, #61]	; 0x3d

  __HAL_UNLOCK(htim);
 8008ea8:	687b      	ldr	r3, [r7, #4]
 8008eaa:	2200      	movs	r2, #0
 8008eac:	f883 203c 	strb.w	r2, [r3, #60]	; 0x3c

  return HAL_OK;
 8008eb0:	2300      	movs	r3, #0
}
 8008eb2:	4618      	mov	r0, r3
 8008eb4:	3714      	adds	r7, #20
 8008eb6:	46bd      	mov	sp, r7
 8008eb8:	f85d 7b04 	ldr.w	r7, [sp], #4
 8008ebc:	4770      	bx	lr
 8008ebe:	bf00      	nop
 8008ec0:	40010000 	.word	0x40010000
 8008ec4:	40000400 	.word	0x40000400
 8008ec8:	40000800 	.word	0x40000800
 8008ecc:	40000c00 	.word	0x40000c00
 8008ed0:	40010400 	.word	0x40010400
 8008ed4:	40014000 	.word	0x40014000
 8008ed8:	40001800 	.word	0x40001800

08008edc <HAL_UART_Init>:
  * @param  huart  Pointer to a UART_HandleTypeDef structure that contains
  *                the configuration information for the specified UART module.
  * @retval HAL status
  */
HAL_StatusTypeDef HAL_UART_Init(UART_HandleTypeDef *huart)
{
 8008edc:	b580      	push	{r7, lr}
 8008ede:	b082      	sub	sp, #8
 8008ee0:	af00      	add	r7, sp, #0
 8008ee2:	6078      	str	r0, [r7, #4]
  /* Check the UART handle allocation */
  if (huart == NULL)
 8008ee4:	687b      	ldr	r3, [r7, #4]
 8008ee6:	2b00      	cmp	r3, #0
 8008ee8:	d101      	bne.n	8008eee <HAL_UART_Init+0x12>
  {
    return HAL_ERROR;
 8008eea:	2301      	movs	r3, #1
 8008eec:	e03f      	b.n	8008f6e <HAL_UART_Init+0x92>
    assert_param(IS_UART_INSTANCE(huart->Instance));
  }
  assert_param(IS_UART_WORD_LENGTH(huart->Init.WordLength));
  assert_param(IS_UART_OVERSAMPLING(huart->Init.OverSampling));

  if (huart->gState == HAL_UART_STATE_RESET)
 8008eee:	687b      	ldr	r3, [r7, #4]
 8008ef0:	f893 303d 	ldrb.w	r3, [r3, #61]	; 0x3d
 8008ef4:	b2db      	uxtb	r3, r3
 8008ef6:	2b00      	cmp	r3, #0
 8008ef8:	d106      	bne.n	8008f08 <HAL_UART_Init+0x2c>
  {
    /* Allocate lock resource and initialize it */
    huart->Lock = HAL_UNLOCKED;
 8008efa:	687b      	ldr	r3, [r7, #4]
 8008efc:	2200      	movs	r2, #0
 8008efe:	f883 203c 	strb.w	r2, [r3, #60]	; 0x3c

    /* Init the low level hardware */
    huart->MspInitCallback(huart);
#else
    /* Init the low level hardware : GPIO, CLOCK */
    HAL_UART_MspInit(huart);
 8008f02:	6878      	ldr	r0, [r7, #4]
 8008f04:	f7fc fcd4 	bl	80058b0 <HAL_UART_MspInit>
#endif /* (USE_HAL_UART_REGISTER_CALLBACKS) */
  }

  huart->gState = HAL_UART_STATE_BUSY;
 8008f08:	687b      	ldr	r3, [r7, #4]
 8008f0a:	2224      	movs	r2, #36	; 0x24
 8008f0c:	f883 203d 	strb.w	r2, [r3, #61]	; 0x3d

  /* Disable the peripheral */
  __HAL_UART_DISABLE(huart);
 8008f10:	687b      	ldr	r3, [r7, #4]
 8008f12:	681b      	ldr	r3, [r3, #0]
 8008f14:	68da      	ldr	r2, [r3, #12]
 8008f16:	687b      	ldr	r3, [r7, #4]
 8008f18:	681b      	ldr	r3, [r3, #0]
 8008f1a:	f422 5200 	bic.w	r2, r2, #8192	; 0x2000
 8008f1e:	60da      	str	r2, [r3, #12]

  /* Set the UART Communication parameters */
  UART_SetConfig(huart);
 8008f20:	6878      	ldr	r0, [r7, #4]
 8008f22:	f000 ff49 	bl	8009db8 <UART_SetConfig>

  /* In asynchronous mode, the following bits must be kept cleared:
     - LINEN and CLKEN bits in the USART_CR2 register,
     - SCEN, HDSEL and IREN  bits in the USART_CR3 register.*/
  CLEAR_BIT(huart->Instance->CR2, (USART_CR2_LINEN | USART_CR2_CLKEN));
 8008f26:	687b      	ldr	r3, [r7, #4]
 8008f28:	681b      	ldr	r3, [r3, #0]
 8008f2a:	691a      	ldr	r2, [r3, #16]
 8008f2c:	687b      	ldr	r3, [r7, #4]
 8008f2e:	681b      	ldr	r3, [r3, #0]
 8008f30:	f422 4290 	bic.w	r2, r2, #18432	; 0x4800
 8008f34:	611a      	str	r2, [r3, #16]
  CLEAR_BIT(huart->Instance->CR3, (USART_CR3_SCEN | USART_CR3_HDSEL | USART_CR3_IREN));
 8008f36:	687b      	ldr	r3, [r7, #4]
 8008f38:	681b      	ldr	r3, [r3, #0]
 8008f3a:	695a      	ldr	r2, [r3, #20]
 8008f3c:	687b      	ldr	r3, [r7, #4]
 8008f3e:	681b      	ldr	r3, [r3, #0]
 8008f40:	f022 022a 	bic.w	r2, r2, #42	; 0x2a
 8008f44:	615a      	str	r2, [r3, #20]

  /* Enable the peripheral */
  __HAL_UART_ENABLE(huart);
 8008f46:	687b      	ldr	r3, [r7, #4]
 8008f48:	681b      	ldr	r3, [r3, #0]
 8008f4a:	68da      	ldr	r2, [r3, #12]
 8008f4c:	687b      	ldr	r3, [r7, #4]
 8008f4e:	681b      	ldr	r3, [r3, #0]
 8008f50:	f442 5200 	orr.w	r2, r2, #8192	; 0x2000
 8008f54:	60da      	str	r2, [r3, #12]

  /* Initialize the UART state */
  huart->ErrorCode = HAL_UART_ERROR_NONE;
 8008f56:	687b      	ldr	r3, [r7, #4]
 8008f58:	2200      	movs	r2, #0
 8008f5a:	641a      	str	r2, [r3, #64]	; 0x40
  huart->gState = HAL_UART_STATE_READY;
 8008f5c:	687b      	ldr	r3, [r7, #4]
 8008f5e:	2220      	movs	r2, #32
 8008f60:	f883 203d 	strb.w	r2, [r3, #61]	; 0x3d
  huart->RxState = HAL_UART_STATE_READY;
 8008f64:	687b      	ldr	r3, [r7, #4]
 8008f66:	2220      	movs	r2, #32
 8008f68:	f883 203e 	strb.w	r2, [r3, #62]	; 0x3e

  return HAL_OK;
 8008f6c:	2300      	movs	r3, #0
}
 8008f6e:	4618      	mov	r0, r3
 8008f70:	3708      	adds	r7, #8
 8008f72:	46bd      	mov	sp, r7
 8008f74:	bd80      	pop	{r7, pc}
	...

08008f78 <HAL_UART_Transmit_DMA>:
  * @param  pData Pointer to data buffer (u8 or u16 data elements).
  * @param  Size  Amount of data elements (u8 or u16) to be sent
  * @retval HAL status
  */
HAL_StatusTypeDef HAL_UART_Transmit_DMA(UART_HandleTypeDef *huart, uint8_t *pData, uint16_t Size)
{
 8008f78:	b580      	push	{r7, lr}
 8008f7a:	b08c      	sub	sp, #48	; 0x30
 8008f7c:	af00      	add	r7, sp, #0
 8008f7e:	60f8      	str	r0, [r7, #12]
 8008f80:	60b9      	str	r1, [r7, #8]
 8008f82:	4613      	mov	r3, r2
 8008f84:	80fb      	strh	r3, [r7, #6]
  uint32_t *tmp;

  /* Check that a Tx process is not already ongoing */
  if (huart->gState == HAL_UART_STATE_READY)
 8008f86:	68fb      	ldr	r3, [r7, #12]
 8008f88:	f893 303d 	ldrb.w	r3, [r3, #61]	; 0x3d
 8008f8c:	b2db      	uxtb	r3, r3
 8008f8e:	2b20      	cmp	r3, #32
 8008f90:	d165      	bne.n	800905e <HAL_UART_Transmit_DMA+0xe6>
  {
    if ((pData == NULL) || (Size == 0U))
 8008f92:	68bb      	ldr	r3, [r7, #8]
 8008f94:	2b00      	cmp	r3, #0
 8008f96:	d002      	beq.n	8008f9e <HAL_UART_Transmit_DMA+0x26>
 8008f98:	88fb      	ldrh	r3, [r7, #6]
 8008f9a:	2b00      	cmp	r3, #0
 8008f9c:	d101      	bne.n	8008fa2 <HAL_UART_Transmit_DMA+0x2a>
    {
      return HAL_ERROR;
 8008f9e:	2301      	movs	r3, #1
 8008fa0:	e05e      	b.n	8009060 <HAL_UART_Transmit_DMA+0xe8>
    }

    /* Process Locked */
    __HAL_LOCK(huart);
 8008fa2:	68fb      	ldr	r3, [r7, #12]
 8008fa4:	f893 303c 	ldrb.w	r3, [r3, #60]	; 0x3c
 8008fa8:	2b01      	cmp	r3, #1
 8008faa:	d101      	bne.n	8008fb0 <HAL_UART_Transmit_DMA+0x38>
 8008fac:	2302      	movs	r3, #2
 8008fae:	e057      	b.n	8009060 <HAL_UART_Transmit_DMA+0xe8>
 8008fb0:	68fb      	ldr	r3, [r7, #12]
 8008fb2:	2201      	movs	r2, #1
 8008fb4:	f883 203c 	strb.w	r2, [r3, #60]	; 0x3c

    huart->pTxBuffPtr = pData;
 8008fb8:	68ba      	ldr	r2, [r7, #8]
 8008fba:	68fb      	ldr	r3, [r7, #12]
 8008fbc:	621a      	str	r2, [r3, #32]
    huart->TxXferSize = Size;
 8008fbe:	68fb      	ldr	r3, [r7, #12]
 8008fc0:	88fa      	ldrh	r2, [r7, #6]
 8008fc2:	849a      	strh	r2, [r3, #36]	; 0x24
    huart->TxXferCount = Size;
 8008fc4:	68fb      	ldr	r3, [r7, #12]
 8008fc6:	88fa      	ldrh	r2, [r7, #6]
 8008fc8:	84da      	strh	r2, [r3, #38]	; 0x26

    huart->ErrorCode = HAL_UART_ERROR_NONE;
 8008fca:	68fb      	ldr	r3, [r7, #12]
 8008fcc:	2200      	movs	r2, #0
 8008fce:	641a      	str	r2, [r3, #64]	; 0x40
    huart->gState = HAL_UART_STATE_BUSY_TX;
 8008fd0:	68fb      	ldr	r3, [r7, #12]
 8008fd2:	2221      	movs	r2, #33	; 0x21
 8008fd4:	f883 203d 	strb.w	r2, [r3, #61]	; 0x3d

    /* Set the UART DMA transfer complete callback */
    huart->hdmatx->XferCpltCallback = UART_DMATransmitCplt;
 8008fd8:	68fb      	ldr	r3, [r7, #12]
 8008fda:	6b5b      	ldr	r3, [r3, #52]	; 0x34
 8008fdc:	4a22      	ldr	r2, [pc, #136]	; (8009068 <HAL_UART_Transmit_DMA+0xf0>)
 8008fde:	63da      	str	r2, [r3, #60]	; 0x3c

    /* Set the UART DMA Half transfer complete callback */
    huart->hdmatx->XferHalfCpltCallback = UART_DMATxHalfCplt;
 8008fe0:	68fb      	ldr	r3, [r7, #12]
 8008fe2:	6b5b      	ldr	r3, [r3, #52]	; 0x34
 8008fe4:	4a21      	ldr	r2, [pc, #132]	; (800906c <HAL_UART_Transmit_DMA+0xf4>)
 8008fe6:	641a      	str	r2, [r3, #64]	; 0x40

    /* Set the DMA error callback */
    huart->hdmatx->XferErrorCallback = UART_DMAError;
 8008fe8:	68fb      	ldr	r3, [r7, #12]
 8008fea:	6b5b      	ldr	r3, [r3, #52]	; 0x34
 8008fec:	4a20      	ldr	r2, [pc, #128]	; (8009070 <HAL_UART_Transmit_DMA+0xf8>)
 8008fee:	64da      	str	r2, [r3, #76]	; 0x4c

    /* Set the DMA abort callback */
    huart->hdmatx->XferAbortCallback = NULL;
 8008ff0:	68fb      	ldr	r3, [r7, #12]
 8008ff2:	6b5b      	ldr	r3, [r3, #52]	; 0x34
 8008ff4:	2200      	movs	r2, #0
 8008ff6:	651a      	str	r2, [r3, #80]	; 0x50

    /* Enable the UART transmit DMA stream */
    tmp = (uint32_t *)&pData;
 8008ff8:	f107 0308 	add.w	r3, r7, #8
 8008ffc:	62fb      	str	r3, [r7, #44]	; 0x2c
    HAL_DMA_Start_IT(huart->hdmatx, *(uint32_t *)tmp, (uint32_t)&huart->Instance->DR, Size);
 8008ffe:	68fb      	ldr	r3, [r7, #12]
 8009000:	6b58      	ldr	r0, [r3, #52]	; 0x34
 8009002:	6afb      	ldr	r3, [r7, #44]	; 0x2c
 8009004:	6819      	ldr	r1, [r3, #0]
 8009006:	68fb      	ldr	r3, [r7, #12]
 8009008:	681b      	ldr	r3, [r3, #0]
 800900a:	3304      	adds	r3, #4
 800900c:	461a      	mov	r2, r3
 800900e:	88fb      	ldrh	r3, [r7, #6]
 8009010:	f7fd fa8c 	bl	800652c <HAL_DMA_Start_IT>

    /* Clear the TC flag in the SR register by writing 0 to it */
    __HAL_UART_CLEAR_FLAG(huart, UART_FLAG_TC);
 8009014:	68fb      	ldr	r3, [r7, #12]
 8009016:	681b      	ldr	r3, [r3, #0]
 8009018:	f06f 0240 	mvn.w	r2, #64	; 0x40
 800901c:	601a      	str	r2, [r3, #0]

    /* Process Unlocked */
    __HAL_UNLOCK(huart);
 800901e:	68fb      	ldr	r3, [r7, #12]
 8009020:	2200      	movs	r2, #0
 8009022:	f883 203c 	strb.w	r2, [r3, #60]	; 0x3c

    /* Enable the DMA transfer for transmit request by setting the DMAT bit
       in the UART CR3 register */
    ATOMIC_SET_BIT(huart->Instance->CR3, USART_CR3_DMAT);
 8009026:	68fb      	ldr	r3, [r7, #12]
 8009028:	681b      	ldr	r3, [r3, #0]
 800902a:	3314      	adds	r3, #20
 800902c:	61bb      	str	r3, [r7, #24]
 */
__STATIC_FORCEINLINE uint32_t __LDREXW(volatile uint32_t *addr)
{
    uint32_t result;

   __ASM volatile ("ldrex %0, %1" : "=r" (result) : "Q" (*addr) );
 800902e:	69bb      	ldr	r3, [r7, #24]
 8009030:	e853 3f00 	ldrex	r3, [r3]
 8009034:	617b      	str	r3, [r7, #20]
   return(result);
 8009036:	697b      	ldr	r3, [r7, #20]
 8009038:	f043 0380 	orr.w	r3, r3, #128	; 0x80
 800903c:	62bb      	str	r3, [r7, #40]	; 0x28
 800903e:	68fb      	ldr	r3, [r7, #12]
 8009040:	681b      	ldr	r3, [r3, #0]
 8009042:	3314      	adds	r3, #20
 8009044:	6aba      	ldr	r2, [r7, #40]	; 0x28
 8009046:	627a      	str	r2, [r7, #36]	; 0x24
 8009048:	623b      	str	r3, [r7, #32]
 */
__STATIC_FORCEINLINE uint32_t __STREXW(uint32_t value, volatile uint32_t *addr)
{
   uint32_t result;

   __ASM volatile ("strex %0, %2, %1" : "=&r" (result), "=Q" (*addr) : "r" (value) );
 800904a:	6a39      	ldr	r1, [r7, #32]
 800904c:	6a7a      	ldr	r2, [r7, #36]	; 0x24
 800904e:	e841 2300 	strex	r3, r2, [r1]
 8009052:	61fb      	str	r3, [r7, #28]
   return(result);
 8009054:	69fb      	ldr	r3, [r7, #28]
 8009056:	2b00      	cmp	r3, #0
 8009058:	d1e5      	bne.n	8009026 <HAL_UART_Transmit_DMA+0xae>

    return HAL_OK;
 800905a:	2300      	movs	r3, #0
 800905c:	e000      	b.n	8009060 <HAL_UART_Transmit_DMA+0xe8>
  }
  else
  {
    return HAL_BUSY;
 800905e:	2302      	movs	r3, #2
  }
}
 8009060:	4618      	mov	r0, r3
 8009062:	3730      	adds	r7, #48	; 0x30
 8009064:	46bd      	mov	sp, r7
 8009066:	bd80      	pop	{r7, pc}
 8009068:	08009659 	.word	0x08009659
 800906c:	080096f3 	.word	0x080096f3
 8009070:	0800986b 	.word	0x0800986b

08009074 <HAL_UART_Receive_DMA>:
  * @param  Size  Amount of data elements (u8 or u16) to be received.
  * @note   When the UART parity is enabled (PCE = 1) the received data contains the parity bit.
  * @retval HAL status
  */
HAL_StatusTypeDef HAL_UART_Receive_DMA(UART_HandleTypeDef *huart, uint8_t *pData, uint16_t Size)
{
 8009074:	b580      	push	{r7, lr}
 8009076:	b084      	sub	sp, #16
 8009078:	af00      	add	r7, sp, #0
 800907a:	60f8      	str	r0, [r7, #12]
 800907c:	60b9      	str	r1, [r7, #8]
 800907e:	4613      	mov	r3, r2
 8009080:	80fb      	strh	r3, [r7, #6]
  /* Check that a Rx process is not already ongoing */
  if (huart->RxState == HAL_UART_STATE_READY)
 8009082:	68fb      	ldr	r3, [r7, #12]
 8009084:	f893 303e 	ldrb.w	r3, [r3, #62]	; 0x3e
 8009088:	b2db      	uxtb	r3, r3
 800908a:	2b20      	cmp	r3, #32
 800908c:	d11d      	bne.n	80090ca <HAL_UART_Receive_DMA+0x56>
  {
    if ((pData == NULL) || (Size == 0U))
 800908e:	68bb      	ldr	r3, [r7, #8]
 8009090:	2b00      	cmp	r3, #0
 8009092:	d002      	beq.n	800909a <HAL_UART_Receive_DMA+0x26>
 8009094:	88fb      	ldrh	r3, [r7, #6]
 8009096:	2b00      	cmp	r3, #0
 8009098:	d101      	bne.n	800909e <HAL_UART_Receive_DMA+0x2a>
    {
      return HAL_ERROR;
 800909a:	2301      	movs	r3, #1
 800909c:	e016      	b.n	80090cc <HAL_UART_Receive_DMA+0x58>
    }

    /* Process Locked */
    __HAL_LOCK(huart);
 800909e:	68fb      	ldr	r3, [r7, #12]
 80090a0:	f893 303c 	ldrb.w	r3, [r3, #60]	; 0x3c
 80090a4:	2b01      	cmp	r3, #1
 80090a6:	d101      	bne.n	80090ac <HAL_UART_Receive_DMA+0x38>
 80090a8:	2302      	movs	r3, #2
 80090aa:	e00f      	b.n	80090cc <HAL_UART_Receive_DMA+0x58>
 80090ac:	68fb      	ldr	r3, [r7, #12]
 80090ae:	2201      	movs	r2, #1
 80090b0:	f883 203c 	strb.w	r2, [r3, #60]	; 0x3c

    /* Set Reception type to Standard reception */
    huart->ReceptionType = HAL_UART_RECEPTION_STANDARD;
 80090b4:	68fb      	ldr	r3, [r7, #12]
 80090b6:	2200      	movs	r2, #0
 80090b8:	631a      	str	r2, [r3, #48]	; 0x30

    return (UART_Start_Receive_DMA(huart, pData, Size));
 80090ba:	88fb      	ldrh	r3, [r7, #6]
 80090bc:	461a      	mov	r2, r3
 80090be:	68b9      	ldr	r1, [r7, #8]
 80090c0:	68f8      	ldr	r0, [r7, #12]
 80090c2:	f000 fc1d 	bl	8009900 <UART_Start_Receive_DMA>
 80090c6:	4603      	mov	r3, r0
 80090c8:	e000      	b.n	80090cc <HAL_UART_Receive_DMA+0x58>
  }
  else
  {
    return HAL_BUSY;
 80090ca:	2302      	movs	r3, #2
  }
}
 80090cc:	4618      	mov	r0, r3
 80090ce:	3710      	adds	r7, #16
 80090d0:	46bd      	mov	sp, r7
 80090d2:	bd80      	pop	{r7, pc}

080090d4 <HAL_UART_IRQHandler>:
  * @param  huart  Pointer to a UART_HandleTypeDef structure that contains
  *                the configuration information for the specified UART module.
  * @retval None
  */
void HAL_UART_IRQHandler(UART_HandleTypeDef *huart)
{
 80090d4:	b580      	push	{r7, lr}
 80090d6:	b0ba      	sub	sp, #232	; 0xe8
 80090d8:	af00      	add	r7, sp, #0
 80090da:	6078      	str	r0, [r7, #4]
  uint32_t isrflags   = READ_REG(huart->Instance->SR);
 80090dc:	687b      	ldr	r3, [r7, #4]
 80090de:	681b      	ldr	r3, [r3, #0]
 80090e0:	681b      	ldr	r3, [r3, #0]
 80090e2:	f8c7 30e4 	str.w	r3, [r7, #228]	; 0xe4
  uint32_t cr1its     = READ_REG(huart->Instance->CR1);
 80090e6:	687b      	ldr	r3, [r7, #4]
 80090e8:	681b      	ldr	r3, [r3, #0]
 80090ea:	68db      	ldr	r3, [r3, #12]
 80090ec:	f8c7 30e0 	str.w	r3, [r7, #224]	; 0xe0
  uint32_t cr3its     = READ_REG(huart->Instance->CR3);
 80090f0:	687b      	ldr	r3, [r7, #4]
 80090f2:	681b      	ldr	r3, [r3, #0]
 80090f4:	695b      	ldr	r3, [r3, #20]
 80090f6:	f8c7 30dc 	str.w	r3, [r7, #220]	; 0xdc
  uint32_t errorflags = 0x00U;
 80090fa:	2300      	movs	r3, #0
 80090fc:	f8c7 30d8 	str.w	r3, [r7, #216]	; 0xd8
  uint32_t dmarequest = 0x00U;
 8009100:	2300      	movs	r3, #0
 8009102:	f8c7 30d4 	str.w	r3, [r7, #212]	; 0xd4

  /* If no error occurs */
  errorflags = (isrflags & (uint32_t)(USART_SR_PE | USART_SR_FE | USART_SR_ORE | USART_SR_NE));
 8009106:	f8d7 30e4 	ldr.w	r3, [r7, #228]	; 0xe4
 800910a:	f003 030f 	and.w	r3, r3, #15
 800910e:	f8c7 30d8 	str.w	r3, [r7, #216]	; 0xd8
  if (errorflags == RESET)
 8009112:	f8d7 30d8 	ldr.w	r3, [r7, #216]	; 0xd8
 8009116:	2b00      	cmp	r3, #0
 8009118:	d10f      	bne.n	800913a <HAL_UART_IRQHandler+0x66>
  {
    /* UART in mode Receiver -------------------------------------------------*/
    if (((isrflags & USART_SR_RXNE) != RESET) && ((cr1its & USART_CR1_RXNEIE) != RESET))
 800911a:	f8d7 30e4 	ldr.w	r3, [r7, #228]	; 0xe4
 800911e:	f003 0320 	and.w	r3, r3, #32
 8009122:	2b00      	cmp	r3, #0
 8009124:	d009      	beq.n	800913a <HAL_UART_IRQHandler+0x66>
 8009126:	f8d7 30e0 	ldr.w	r3, [r7, #224]	; 0xe0
 800912a:	f003 0320 	and.w	r3, r3, #32
 800912e:	2b00      	cmp	r3, #0
 8009130:	d003      	beq.n	800913a <HAL_UART_IRQHandler+0x66>
    {
      UART_Receive_IT(huart);
 8009132:	6878      	ldr	r0, [r7, #4]
 8009134:	f000 fd85 	bl	8009c42 <UART_Receive_IT>
      return;
 8009138:	e256      	b.n	80095e8 <HAL_UART_IRQHandler+0x514>
    }
  }

  /* If some errors occur */
  if ((errorflags != RESET) && (((cr3its & USART_CR3_EIE) != RESET)
 800913a:	f8d7 30d8 	ldr.w	r3, [r7, #216]	; 0xd8
 800913e:	2b00      	cmp	r3, #0
 8009140:	f000 80de 	beq.w	8009300 <HAL_UART_IRQHandler+0x22c>
 8009144:	f8d7 30dc 	ldr.w	r3, [r7, #220]	; 0xdc
 8009148:	f003 0301 	and.w	r3, r3, #1
 800914c:	2b00      	cmp	r3, #0
 800914e:	d106      	bne.n	800915e <HAL_UART_IRQHandler+0x8a>
                                || ((cr1its & (USART_CR1_RXNEIE | USART_CR1_PEIE)) != RESET)))
 8009150:	f8d7 30e0 	ldr.w	r3, [r7, #224]	; 0xe0
 8009154:	f403 7390 	and.w	r3, r3, #288	; 0x120
 8009158:	2b00      	cmp	r3, #0
 800915a:	f000 80d1 	beq.w	8009300 <HAL_UART_IRQHandler+0x22c>
  {
    /* UART parity error interrupt occurred ----------------------------------*/
    if (((isrflags & USART_SR_PE) != RESET) && ((cr1its & USART_CR1_PEIE) != RESET))
 800915e:	f8d7 30e4 	ldr.w	r3, [r7, #228]	; 0xe4
 8009162:	f003 0301 	and.w	r3, r3, #1
 8009166:	2b00      	cmp	r3, #0
 8009168:	d00b      	beq.n	8009182 <HAL_UART_IRQHandler+0xae>
 800916a:	f8d7 30e0 	ldr.w	r3, [r7, #224]	; 0xe0
 800916e:	f403 7380 	and.w	r3, r3, #256	; 0x100
 8009172:	2b00      	cmp	r3, #0
 8009174:	d005      	beq.n	8009182 <HAL_UART_IRQHandler+0xae>
    {
      huart->ErrorCode |= HAL_UART_ERROR_PE;
 8009176:	687b      	ldr	r3, [r7, #4]
 8009178:	6c1b      	ldr	r3, [r3, #64]	; 0x40
 800917a:	f043 0201 	orr.w	r2, r3, #1
 800917e:	687b      	ldr	r3, [r7, #4]
 8009180:	641a      	str	r2, [r3, #64]	; 0x40
    }

    /* UART noise error interrupt occurred -----------------------------------*/
    if (((isrflags & USART_SR_NE) != RESET) && ((cr3its & USART_CR3_EIE) != RESET))
 8009182:	f8d7 30e4 	ldr.w	r3, [r7, #228]	; 0xe4
 8009186:	f003 0304 	and.w	r3, r3, #4
 800918a:	2b00      	cmp	r3, #0
 800918c:	d00b      	beq.n	80091a6 <HAL_UART_IRQHandler+0xd2>
 800918e:	f8d7 30dc 	ldr.w	r3, [r7, #220]	; 0xdc
 8009192:	f003 0301 	and.w	r3, r3, #1
 8009196:	2b00      	cmp	r3, #0
 8009198:	d005      	beq.n	80091a6 <HAL_UART_IRQHandler+0xd2>
    {
      huart->ErrorCode |= HAL_UART_ERROR_NE;
 800919a:	687b      	ldr	r3, [r7, #4]
 800919c:	6c1b      	ldr	r3, [r3, #64]	; 0x40
 800919e:	f043 0202 	orr.w	r2, r3, #2
 80091a2:	687b      	ldr	r3, [r7, #4]
 80091a4:	641a      	str	r2, [r3, #64]	; 0x40
    }

    /* UART frame error interrupt occurred -----------------------------------*/
    if (((isrflags & USART_SR_FE) != RESET) && ((cr3its & USART_CR3_EIE) != RESET))
 80091a6:	f8d7 30e4 	ldr.w	r3, [r7, #228]	; 0xe4
 80091aa:	f003 0302 	and.w	r3, r3, #2
 80091ae:	2b00      	cmp	r3, #0
 80091b0:	d00b      	beq.n	80091ca <HAL_UART_IRQHandler+0xf6>
 80091b2:	f8d7 30dc 	ldr.w	r3, [r7, #220]	; 0xdc
 80091b6:	f003 0301 	and.w	r3, r3, #1
 80091ba:	2b00      	cmp	r3, #0
 80091bc:	d005      	beq.n	80091ca <HAL_UART_IRQHandler+0xf6>
    {
      huart->ErrorCode |= HAL_UART_ERROR_FE;
 80091be:	687b      	ldr	r3, [r7, #4]
 80091c0:	6c1b      	ldr	r3, [r3, #64]	; 0x40
 80091c2:	f043 0204 	orr.w	r2, r3, #4
 80091c6:	687b      	ldr	r3, [r7, #4]
 80091c8:	641a      	str	r2, [r3, #64]	; 0x40
    }

    /* UART Over-Run interrupt occurred --------------------------------------*/
    if (((isrflags & USART_SR_ORE) != RESET) && (((cr1its & USART_CR1_RXNEIE) != RESET)
 80091ca:	f8d7 30e4 	ldr.w	r3, [r7, #228]	; 0xe4
 80091ce:	f003 0308 	and.w	r3, r3, #8
 80091d2:	2b00      	cmp	r3, #0
 80091d4:	d011      	beq.n	80091fa <HAL_UART_IRQHandler+0x126>
 80091d6:	f8d7 30e0 	ldr.w	r3, [r7, #224]	; 0xe0
 80091da:	f003 0320 	and.w	r3, r3, #32
 80091de:	2b00      	cmp	r3, #0
 80091e0:	d105      	bne.n	80091ee <HAL_UART_IRQHandler+0x11a>
                                                 || ((cr3its & USART_CR3_EIE) != RESET)))
 80091e2:	f8d7 30dc 	ldr.w	r3, [r7, #220]	; 0xdc
 80091e6:	f003 0301 	and.w	r3, r3, #1
 80091ea:	2b00      	cmp	r3, #0
 80091ec:	d005      	beq.n	80091fa <HAL_UART_IRQHandler+0x126>
    {
      huart->ErrorCode |= HAL_UART_ERROR_ORE;
 80091ee:	687b      	ldr	r3, [r7, #4]
 80091f0:	6c1b      	ldr	r3, [r3, #64]	; 0x40
 80091f2:	f043 0208 	orr.w	r2, r3, #8
 80091f6:	687b      	ldr	r3, [r7, #4]
 80091f8:	641a      	str	r2, [r3, #64]	; 0x40
    }

    /* Call UART Error Call back function if need be --------------------------*/
    if (huart->ErrorCode != HAL_UART_ERROR_NONE)
 80091fa:	687b      	ldr	r3, [r7, #4]
 80091fc:	6c1b      	ldr	r3, [r3, #64]	; 0x40
 80091fe:	2b00      	cmp	r3, #0
 8009200:	f000 81ed 	beq.w	80095de <HAL_UART_IRQHandler+0x50a>
    {
      /* UART in mode Receiver -----------------------------------------------*/
      if (((isrflags & USART_SR_RXNE) != RESET) && ((cr1its & USART_CR1_RXNEIE) != RESET))
 8009204:	f8d7 30e4 	ldr.w	r3, [r7, #228]	; 0xe4
 8009208:	f003 0320 	and.w	r3, r3, #32
 800920c:	2b00      	cmp	r3, #0
 800920e:	d008      	beq.n	8009222 <HAL_UART_IRQHandler+0x14e>
 8009210:	f8d7 30e0 	ldr.w	r3, [r7, #224]	; 0xe0
 8009214:	f003 0320 	and.w	r3, r3, #32
 8009218:	2b00      	cmp	r3, #0
 800921a:	d002      	beq.n	8009222 <HAL_UART_IRQHandler+0x14e>
      {
        UART_Receive_IT(huart);
 800921c:	6878      	ldr	r0, [r7, #4]
 800921e:	f000 fd10 	bl	8009c42 <UART_Receive_IT>
      }

      /* If Overrun error occurs, or if any error occurs in DMA mode reception,
         consider error as blocking */
      dmarequest = HAL_IS_BIT_SET(huart->Instance->CR3, USART_CR3_DMAR);
 8009222:	687b      	ldr	r3, [r7, #4]
 8009224:	681b      	ldr	r3, [r3, #0]
 8009226:	695b      	ldr	r3, [r3, #20]
 8009228:	f003 0340 	and.w	r3, r3, #64	; 0x40
 800922c:	2b40      	cmp	r3, #64	; 0x40
 800922e:	bf0c      	ite	eq
 8009230:	2301      	moveq	r3, #1
 8009232:	2300      	movne	r3, #0
 8009234:	b2db      	uxtb	r3, r3
 8009236:	f8c7 30d4 	str.w	r3, [r7, #212]	; 0xd4
      if (((huart->ErrorCode & HAL_UART_ERROR_ORE) != RESET) || dmarequest)
 800923a:	687b      	ldr	r3, [r7, #4]
 800923c:	6c1b      	ldr	r3, [r3, #64]	; 0x40
 800923e:	f003 0308 	and.w	r3, r3, #8
 8009242:	2b00      	cmp	r3, #0
 8009244:	d103      	bne.n	800924e <HAL_UART_IRQHandler+0x17a>
 8009246:	f8d7 30d4 	ldr.w	r3, [r7, #212]	; 0xd4
 800924a:	2b00      	cmp	r3, #0
 800924c:	d04f      	beq.n	80092ee <HAL_UART_IRQHandler+0x21a>
      {
        /* Blocking error : transfer is aborted
           Set the UART state ready to be able to start again the process,
           Disable Rx Interrupts, and disable Rx DMA request, if ongoing */
        UART_EndRxTransfer(huart);
 800924e:	6878      	ldr	r0, [r7, #4]
 8009250:	f000 fc18 	bl	8009a84 <UART_EndRxTransfer>

        /* Disable the UART DMA Rx request if enabled */
        if (HAL_IS_BIT_SET(huart->Instance->CR3, USART_CR3_DMAR))
 8009254:	687b      	ldr	r3, [r7, #4]
 8009256:	681b      	ldr	r3, [r3, #0]
 8009258:	695b      	ldr	r3, [r3, #20]
 800925a:	f003 0340 	and.w	r3, r3, #64	; 0x40
 800925e:	2b40      	cmp	r3, #64	; 0x40
 8009260:	d141      	bne.n	80092e6 <HAL_UART_IRQHandler+0x212>
        {
          ATOMIC_CLEAR_BIT(huart->Instance->CR3, USART_CR3_DMAR);
 8009262:	687b      	ldr	r3, [r7, #4]
 8009264:	681b      	ldr	r3, [r3, #0]
 8009266:	3314      	adds	r3, #20
 8009268:	f8c7 309c 	str.w	r3, [r7, #156]	; 0x9c
   __ASM volatile ("ldrex %0, %1" : "=r" (result) : "Q" (*addr) );
 800926c:	f8d7 309c 	ldr.w	r3, [r7, #156]	; 0x9c
 8009270:	e853 3f00 	ldrex	r3, [r3]
 8009274:	f8c7 3098 	str.w	r3, [r7, #152]	; 0x98
   return(result);
 8009278:	f8d7 3098 	ldr.w	r3, [r7, #152]	; 0x98
 800927c:	f023 0340 	bic.w	r3, r3, #64	; 0x40
 8009280:	f8c7 30d0 	str.w	r3, [r7, #208]	; 0xd0
 8009284:	687b      	ldr	r3, [r7, #4]
 8009286:	681b      	ldr	r3, [r3, #0]
 8009288:	3314      	adds	r3, #20
 800928a:	f8d7 20d0 	ldr.w	r2, [r7, #208]	; 0xd0
 800928e:	f8c7 20a8 	str.w	r2, [r7, #168]	; 0xa8
 8009292:	f8c7 30a4 	str.w	r3, [r7, #164]	; 0xa4
   __ASM volatile ("strex %0, %2, %1" : "=&r" (result), "=Q" (*addr) : "r" (value) );
 8009296:	f8d7 10a4 	ldr.w	r1, [r7, #164]	; 0xa4
 800929a:	f8d7 20a8 	ldr.w	r2, [r7, #168]	; 0xa8
 800929e:	e841 2300 	strex	r3, r2, [r1]
 80092a2:	f8c7 30a0 	str.w	r3, [r7, #160]	; 0xa0
   return(result);
 80092a6:	f8d7 30a0 	ldr.w	r3, [r7, #160]	; 0xa0
 80092aa:	2b00      	cmp	r3, #0
 80092ac:	d1d9      	bne.n	8009262 <HAL_UART_IRQHandler+0x18e>

          /* Abort the UART DMA Rx stream */
          if (huart->hdmarx != NULL)
 80092ae:	687b      	ldr	r3, [r7, #4]
 80092b0:	6b9b      	ldr	r3, [r3, #56]	; 0x38
 80092b2:	2b00      	cmp	r3, #0
 80092b4:	d013      	beq.n	80092de <HAL_UART_IRQHandler+0x20a>
          {
            /* Set the UART DMA Abort callback :
               will lead to call HAL_UART_ErrorCallback() at end of DMA abort procedure */
            huart->hdmarx->XferAbortCallback = UART_DMAAbortOnError;
 80092b6:	687b      	ldr	r3, [r7, #4]
 80092b8:	6b9b      	ldr	r3, [r3, #56]	; 0x38
 80092ba:	4a7d      	ldr	r2, [pc, #500]	; (80094b0 <HAL_UART_IRQHandler+0x3dc>)
 80092bc:	651a      	str	r2, [r3, #80]	; 0x50
            if (HAL_DMA_Abort_IT(huart->hdmarx) != HAL_OK)
 80092be:	687b      	ldr	r3, [r7, #4]
 80092c0:	6b9b      	ldr	r3, [r3, #56]	; 0x38
 80092c2:	4618      	mov	r0, r3
 80092c4:	f7fd f9fa 	bl	80066bc <HAL_DMA_Abort_IT>
 80092c8:	4603      	mov	r3, r0
 80092ca:	2b00      	cmp	r3, #0
 80092cc:	d016      	beq.n	80092fc <HAL_UART_IRQHandler+0x228>
            {
              /* Call Directly XferAbortCallback function in case of error */
              huart->hdmarx->XferAbortCallback(huart->hdmarx);
 80092ce:	687b      	ldr	r3, [r7, #4]
 80092d0:	6b9b      	ldr	r3, [r3, #56]	; 0x38
 80092d2:	6d1b      	ldr	r3, [r3, #80]	; 0x50
 80092d4:	687a      	ldr	r2, [r7, #4]
 80092d6:	6b92      	ldr	r2, [r2, #56]	; 0x38
 80092d8:	4610      	mov	r0, r2
 80092da:	4798      	blx	r3
        if (HAL_IS_BIT_SET(huart->Instance->CR3, USART_CR3_DMAR))
 80092dc:	e00e      	b.n	80092fc <HAL_UART_IRQHandler+0x228>
#if (USE_HAL_UART_REGISTER_CALLBACKS == 1)
            /*Call registered error callback*/
            huart->ErrorCallback(huart);
#else
            /*Call legacy weak error callback*/
            HAL_UART_ErrorCallback(huart);
 80092de:	6878      	ldr	r0, [r7, #4]
 80092e0:	f000 f9a4 	bl	800962c <HAL_UART_ErrorCallback>
        if (HAL_IS_BIT_SET(huart->Instance->CR3, USART_CR3_DMAR))
 80092e4:	e00a      	b.n	80092fc <HAL_UART_IRQHandler+0x228>
#if (USE_HAL_UART_REGISTER_CALLBACKS == 1)
          /*Call registered error callback*/
          huart->ErrorCallback(huart);
#else
          /*Call legacy weak error callback*/
          HAL_UART_ErrorCallback(huart);
 80092e6:	6878      	ldr	r0, [r7, #4]
 80092e8:	f000 f9a0 	bl	800962c <HAL_UART_ErrorCallback>
        if (HAL_IS_BIT_SET(huart->Instance->CR3, USART_CR3_DMAR))
 80092ec:	e006      	b.n	80092fc <HAL_UART_IRQHandler+0x228>
#if (USE_HAL_UART_REGISTER_CALLBACKS == 1)
        /*Call registered error callback*/
        huart->ErrorCallback(huart);
#else
        /*Call legacy weak error callback*/
        HAL_UART_ErrorCallback(huart);
 80092ee:	6878      	ldr	r0, [r7, #4]
 80092f0:	f000 f99c 	bl	800962c <HAL_UART_ErrorCallback>
#endif /* USE_HAL_UART_REGISTER_CALLBACKS */

        huart->ErrorCode = HAL_UART_ERROR_NONE;
 80092f4:	687b      	ldr	r3, [r7, #4]
 80092f6:	2200      	movs	r2, #0
 80092f8:	641a      	str	r2, [r3, #64]	; 0x40
      }
    }
    return;
 80092fa:	e170      	b.n	80095de <HAL_UART_IRQHandler+0x50a>
        if (HAL_IS_BIT_SET(huart->Instance->CR3, USART_CR3_DMAR))
 80092fc:	bf00      	nop
    return;
 80092fe:	e16e      	b.n	80095de <HAL_UART_IRQHandler+0x50a>
  } /* End if some error occurs */

  /* Check current reception Mode :
     If Reception till IDLE event has been selected : */
  if ((huart->ReceptionType == HAL_UART_RECEPTION_TOIDLE)
 8009300:	687b      	ldr	r3, [r7, #4]
 8009302:	6b1b      	ldr	r3, [r3, #48]	; 0x30
 8009304:	2b01      	cmp	r3, #1
 8009306:	f040 814a 	bne.w	800959e <HAL_UART_IRQHandler+0x4ca>
      && ((isrflags & USART_SR_IDLE) != 0U)
 800930a:	f8d7 30e4 	ldr.w	r3, [r7, #228]	; 0xe4
 800930e:	f003 0310 	and.w	r3, r3, #16
 8009312:	2b00      	cmp	r3, #0
 8009314:	f000 8143 	beq.w	800959e <HAL_UART_IRQHandler+0x4ca>
      && ((cr1its & USART_SR_IDLE) != 0U))
 8009318:	f8d7 30e0 	ldr.w	r3, [r7, #224]	; 0xe0
 800931c:	f003 0310 	and.w	r3, r3, #16
 8009320:	2b00      	cmp	r3, #0
 8009322:	f000 813c 	beq.w	800959e <HAL_UART_IRQHandler+0x4ca>
  {
    __HAL_UART_CLEAR_IDLEFLAG(huart);
 8009326:	2300      	movs	r3, #0
 8009328:	60bb      	str	r3, [r7, #8]
 800932a:	687b      	ldr	r3, [r7, #4]
 800932c:	681b      	ldr	r3, [r3, #0]
 800932e:	681b      	ldr	r3, [r3, #0]
 8009330:	60bb      	str	r3, [r7, #8]
 8009332:	687b      	ldr	r3, [r7, #4]
 8009334:	681b      	ldr	r3, [r3, #0]
 8009336:	685b      	ldr	r3, [r3, #4]
 8009338:	60bb      	str	r3, [r7, #8]
 800933a:	68bb      	ldr	r3, [r7, #8]

    /* Check if DMA mode is enabled in UART */
    if (HAL_IS_BIT_SET(huart->Instance->CR3, USART_CR3_DMAR))
 800933c:	687b      	ldr	r3, [r7, #4]
 800933e:	681b      	ldr	r3, [r3, #0]
 8009340:	695b      	ldr	r3, [r3, #20]
 8009342:	f003 0340 	and.w	r3, r3, #64	; 0x40
 8009346:	2b40      	cmp	r3, #64	; 0x40
 8009348:	f040 80b4 	bne.w	80094b4 <HAL_UART_IRQHandler+0x3e0>
    {
      /* DMA mode enabled */
      /* Check received length : If all expected data are received, do nothing,
         (DMA cplt callback will be called).
         Otherwise, if at least one data has already been received, IDLE event is to be notified to user */
      uint16_t nb_remaining_rx_data = (uint16_t) __HAL_DMA_GET_COUNTER(huart->hdmarx);
 800934c:	687b      	ldr	r3, [r7, #4]
 800934e:	6b9b      	ldr	r3, [r3, #56]	; 0x38
 8009350:	681b      	ldr	r3, [r3, #0]
 8009352:	685b      	ldr	r3, [r3, #4]
 8009354:	f8a7 30be 	strh.w	r3, [r7, #190]	; 0xbe
      if ((nb_remaining_rx_data > 0U)
 8009358:	f8b7 30be 	ldrh.w	r3, [r7, #190]	; 0xbe
 800935c:	2b00      	cmp	r3, #0
 800935e:	f000 8140 	beq.w	80095e2 <HAL_UART_IRQHandler+0x50e>
          && (nb_remaining_rx_data < huart->RxXferSize))
 8009362:	687b      	ldr	r3, [r7, #4]
 8009364:	8d9b      	ldrh	r3, [r3, #44]	; 0x2c
 8009366:	f8b7 20be 	ldrh.w	r2, [r7, #190]	; 0xbe
 800936a:	429a      	cmp	r2, r3
 800936c:	f080 8139 	bcs.w	80095e2 <HAL_UART_IRQHandler+0x50e>
      {
        /* Reception is not complete */
        huart->RxXferCount = nb_remaining_rx_data;
 8009370:	687b      	ldr	r3, [r7, #4]
 8009372:	f8b7 20be 	ldrh.w	r2, [r7, #190]	; 0xbe
 8009376:	85da      	strh	r2, [r3, #46]	; 0x2e

        /* In Normal mode, end DMA xfer and HAL UART Rx process*/
        if (huart->hdmarx->Init.Mode != DMA_CIRCULAR)
 8009378:	687b      	ldr	r3, [r7, #4]
 800937a:	6b9b      	ldr	r3, [r3, #56]	; 0x38
 800937c:	69db      	ldr	r3, [r3, #28]
 800937e:	f5b3 7f80 	cmp.w	r3, #256	; 0x100
 8009382:	f000 8088 	beq.w	8009496 <HAL_UART_IRQHandler+0x3c2>
        {
          /* Disable PE and ERR (Frame error, noise error, overrun error) interrupts */
          ATOMIC_CLEAR_BIT(huart->Instance->CR1, USART_CR1_PEIE);
 8009386:	687b      	ldr	r3, [r7, #4]
 8009388:	681b      	ldr	r3, [r3, #0]
 800938a:	330c      	adds	r3, #12
 800938c:	f8c7 3088 	str.w	r3, [r7, #136]	; 0x88
   __ASM volatile ("ldrex %0, %1" : "=r" (result) : "Q" (*addr) );
 8009390:	f8d7 3088 	ldr.w	r3, [r7, #136]	; 0x88
 8009394:	e853 3f00 	ldrex	r3, [r3]
 8009398:	f8c7 3084 	str.w	r3, [r7, #132]	; 0x84
   return(result);
 800939c:	f8d7 3084 	ldr.w	r3, [r7, #132]	; 0x84
 80093a0:	f423 7380 	bic.w	r3, r3, #256	; 0x100
 80093a4:	f8c7 30b8 	str.w	r3, [r7, #184]	; 0xb8
 80093a8:	687b      	ldr	r3, [r7, #4]
 80093aa:	681b      	ldr	r3, [r3, #0]
 80093ac:	330c      	adds	r3, #12
 80093ae:	f8d7 20b8 	ldr.w	r2, [r7, #184]	; 0xb8
 80093b2:	f8c7 2094 	str.w	r2, [r7, #148]	; 0x94
 80093b6:	f8c7 3090 	str.w	r3, [r7, #144]	; 0x90
   __ASM volatile ("strex %0, %2, %1" : "=&r" (result), "=Q" (*addr) : "r" (value) );
 80093ba:	f8d7 1090 	ldr.w	r1, [r7, #144]	; 0x90
 80093be:	f8d7 2094 	ldr.w	r2, [r7, #148]	; 0x94
 80093c2:	e841 2300 	strex	r3, r2, [r1]
 80093c6:	f8c7 308c 	str.w	r3, [r7, #140]	; 0x8c
   return(result);
 80093ca:	f8d7 308c 	ldr.w	r3, [r7, #140]	; 0x8c
 80093ce:	2b00      	cmp	r3, #0
 80093d0:	d1d9      	bne.n	8009386 <HAL_UART_IRQHandler+0x2b2>
          ATOMIC_CLEAR_BIT(huart->Instance->CR3, USART_CR3_EIE);
 80093d2:	687b      	ldr	r3, [r7, #4]
 80093d4:	681b      	ldr	r3, [r3, #0]
 80093d6:	3314      	adds	r3, #20
 80093d8:	677b      	str	r3, [r7, #116]	; 0x74
   __ASM volatile ("ldrex %0, %1" : "=r" (result) : "Q" (*addr) );
 80093da:	6f7b      	ldr	r3, [r7, #116]	; 0x74
 80093dc:	e853 3f00 	ldrex	r3, [r3]
 80093e0:	673b      	str	r3, [r7, #112]	; 0x70
   return(result);
 80093e2:	6f3b      	ldr	r3, [r7, #112]	; 0x70
 80093e4:	f023 0301 	bic.w	r3, r3, #1
 80093e8:	f8c7 30b4 	str.w	r3, [r7, #180]	; 0xb4
 80093ec:	687b      	ldr	r3, [r7, #4]
 80093ee:	681b      	ldr	r3, [r3, #0]
 80093f0:	3314      	adds	r3, #20
 80093f2:	f8d7 20b4 	ldr.w	r2, [r7, #180]	; 0xb4
 80093f6:	f8c7 2080 	str.w	r2, [r7, #128]	; 0x80
 80093fa:	67fb      	str	r3, [r7, #124]	; 0x7c
   __ASM volatile ("strex %0, %2, %1" : "=&r" (result), "=Q" (*addr) : "r" (value) );
 80093fc:	6ff9      	ldr	r1, [r7, #124]	; 0x7c
 80093fe:	f8d7 2080 	ldr.w	r2, [r7, #128]	; 0x80
 8009402:	e841 2300 	strex	r3, r2, [r1]
 8009406:	67bb      	str	r3, [r7, #120]	; 0x78
   return(result);
 8009408:	6fbb      	ldr	r3, [r7, #120]	; 0x78
 800940a:	2b00      	cmp	r3, #0
 800940c:	d1e1      	bne.n	80093d2 <HAL_UART_IRQHandler+0x2fe>

          /* Disable the DMA transfer for the receiver request by resetting the DMAR bit
             in the UART CR3 register */
          ATOMIC_CLEAR_BIT(huart->Instance->CR3, USART_CR3_DMAR);
 800940e:	687b      	ldr	r3, [r7, #4]
 8009410:	681b      	ldr	r3, [r3, #0]
 8009412:	3314      	adds	r3, #20
 8009414:	663b      	str	r3, [r7, #96]	; 0x60
   __ASM volatile ("ldrex %0, %1" : "=r" (result) : "Q" (*addr) );
 8009416:	6e3b      	ldr	r3, [r7, #96]	; 0x60
 8009418:	e853 3f00 	ldrex	r3, [r3]
 800941c:	65fb      	str	r3, [r7, #92]	; 0x5c
   return(result);
 800941e:	6dfb      	ldr	r3, [r7, #92]	; 0x5c
 8009420:	f023 0340 	bic.w	r3, r3, #64	; 0x40
 8009424:	f8c7 30b0 	str.w	r3, [r7, #176]	; 0xb0
 8009428:	687b      	ldr	r3, [r7, #4]
 800942a:	681b      	ldr	r3, [r3, #0]
 800942c:	3314      	adds	r3, #20
 800942e:	f8d7 20b0 	ldr.w	r2, [r7, #176]	; 0xb0
 8009432:	66fa      	str	r2, [r7, #108]	; 0x6c
 8009434:	66bb      	str	r3, [r7, #104]	; 0x68
   __ASM volatile ("strex %0, %2, %1" : "=&r" (result), "=Q" (*addr) : "r" (value) );
 8009436:	6eb9      	ldr	r1, [r7, #104]	; 0x68
 8009438:	6efa      	ldr	r2, [r7, #108]	; 0x6c
 800943a:	e841 2300 	strex	r3, r2, [r1]
 800943e:	667b      	str	r3, [r7, #100]	; 0x64
   return(result);
 8009440:	6e7b      	ldr	r3, [r7, #100]	; 0x64
 8009442:	2b00      	cmp	r3, #0
 8009444:	d1e3      	bne.n	800940e <HAL_UART_IRQHandler+0x33a>

          /* At end of Rx process, restore huart->RxState to Ready */
          huart->RxState = HAL_UART_STATE_READY;
 8009446:	687b      	ldr	r3, [r7, #4]
 8009448:	2220      	movs	r2, #32
 800944a:	f883 203e 	strb.w	r2, [r3, #62]	; 0x3e
          huart->ReceptionType = HAL_UART_RECEPTION_STANDARD;
 800944e:	687b      	ldr	r3, [r7, #4]
 8009450:	2200      	movs	r2, #0
 8009452:	631a      	str	r2, [r3, #48]	; 0x30

          ATOMIC_CLEAR_BIT(huart->Instance->CR1, USART_CR1_IDLEIE);
 8009454:	687b      	ldr	r3, [r7, #4]
 8009456:	681b      	ldr	r3, [r3, #0]
 8009458:	330c      	adds	r3, #12
 800945a:	64fb      	str	r3, [r7, #76]	; 0x4c
   __ASM volatile ("ldrex %0, %1" : "=r" (result) : "Q" (*addr) );
 800945c:	6cfb      	ldr	r3, [r7, #76]	; 0x4c
 800945e:	e853 3f00 	ldrex	r3, [r3]
 8009462:	64bb      	str	r3, [r7, #72]	; 0x48
   return(result);
 8009464:	6cbb      	ldr	r3, [r7, #72]	; 0x48
 8009466:	f023 0310 	bic.w	r3, r3, #16
 800946a:	f8c7 30ac 	str.w	r3, [r7, #172]	; 0xac
 800946e:	687b      	ldr	r3, [r7, #4]
 8009470:	681b      	ldr	r3, [r3, #0]
 8009472:	330c      	adds	r3, #12
 8009474:	f8d7 20ac 	ldr.w	r2, [r7, #172]	; 0xac
 8009478:	65ba      	str	r2, [r7, #88]	; 0x58
 800947a:	657b      	str	r3, [r7, #84]	; 0x54
   __ASM volatile ("strex %0, %2, %1" : "=&r" (result), "=Q" (*addr) : "r" (value) );
 800947c:	6d79      	ldr	r1, [r7, #84]	; 0x54
 800947e:	6dba      	ldr	r2, [r7, #88]	; 0x58
 8009480:	e841 2300 	strex	r3, r2, [r1]
 8009484:	653b      	str	r3, [r7, #80]	; 0x50
   return(result);
 8009486:	6d3b      	ldr	r3, [r7, #80]	; 0x50
 8009488:	2b00      	cmp	r3, #0
 800948a:	d1e3      	bne.n	8009454 <HAL_UART_IRQHandler+0x380>

          /* Last bytes received, so no need as the abort is immediate */
          (void)HAL_DMA_Abort(huart->hdmarx);
 800948c:	687b      	ldr	r3, [r7, #4]
 800948e:	6b9b      	ldr	r3, [r3, #56]	; 0x38
 8009490:	4618      	mov	r0, r3
 8009492:	f7fd f8a3 	bl	80065dc <HAL_DMA_Abort>
#if (USE_HAL_UART_REGISTER_CALLBACKS == 1)
        /*Call registered Rx Event callback*/
        huart->RxEventCallback(huart, (huart->RxXferSize - huart->RxXferCount));
#else
        /*Call legacy weak Rx Event callback*/
        HAL_UARTEx_RxEventCallback(huart, (huart->RxXferSize - huart->RxXferCount));
 8009496:	687b      	ldr	r3, [r7, #4]
 8009498:	8d9a      	ldrh	r2, [r3, #44]	; 0x2c
 800949a:	687b      	ldr	r3, [r7, #4]
 800949c:	8ddb      	ldrh	r3, [r3, #46]	; 0x2e
 800949e:	b29b      	uxth	r3, r3
 80094a0:	1ad3      	subs	r3, r2, r3
 80094a2:	b29b      	uxth	r3, r3
 80094a4:	4619      	mov	r1, r3
 80094a6:	6878      	ldr	r0, [r7, #4]
 80094a8:	f000 f8ca 	bl	8009640 <HAL_UARTEx_RxEventCallback>
#endif /* USE_HAL_UART_REGISTER_CALLBACKS */
      }
      return;
 80094ac:	e099      	b.n	80095e2 <HAL_UART_IRQHandler+0x50e>
 80094ae:	bf00      	nop
 80094b0:	08009b4b 	.word	0x08009b4b
    else
    {
      /* DMA mode not enabled */
      /* Check received length : If all expected data are received, do nothing.
         Otherwise, if at least one data has already been received, IDLE event is to be notified to user */
      uint16_t nb_rx_data = huart->RxXferSize - huart->RxXferCount;
 80094b4:	687b      	ldr	r3, [r7, #4]
 80094b6:	8d9a      	ldrh	r2, [r3, #44]	; 0x2c
 80094b8:	687b      	ldr	r3, [r7, #4]
 80094ba:	8ddb      	ldrh	r3, [r3, #46]	; 0x2e
 80094bc:	b29b      	uxth	r3, r3
 80094be:	1ad3      	subs	r3, r2, r3
 80094c0:	f8a7 30ce 	strh.w	r3, [r7, #206]	; 0xce
      if ((huart->RxXferCount > 0U)
 80094c4:	687b      	ldr	r3, [r7, #4]
 80094c6:	8ddb      	ldrh	r3, [r3, #46]	; 0x2e
 80094c8:	b29b      	uxth	r3, r3
 80094ca:	2b00      	cmp	r3, #0
 80094cc:	f000 808b 	beq.w	80095e6 <HAL_UART_IRQHandler+0x512>
          && (nb_rx_data > 0U))
 80094d0:	f8b7 30ce 	ldrh.w	r3, [r7, #206]	; 0xce
 80094d4:	2b00      	cmp	r3, #0
 80094d6:	f000 8086 	beq.w	80095e6 <HAL_UART_IRQHandler+0x512>
      {
        /* Disable the UART Parity Error Interrupt and RXNE interrupts */
        ATOMIC_CLEAR_BIT(huart->Instance->CR1, (USART_CR1_RXNEIE | USART_CR1_PEIE));
 80094da:	687b      	ldr	r3, [r7, #4]
 80094dc:	681b      	ldr	r3, [r3, #0]
 80094de:	330c      	adds	r3, #12
 80094e0:	63bb      	str	r3, [r7, #56]	; 0x38
   __ASM volatile ("ldrex %0, %1" : "=r" (result) : "Q" (*addr) );
 80094e2:	6bbb      	ldr	r3, [r7, #56]	; 0x38
 80094e4:	e853 3f00 	ldrex	r3, [r3]
 80094e8:	637b      	str	r3, [r7, #52]	; 0x34
   return(result);
 80094ea:	6b7b      	ldr	r3, [r7, #52]	; 0x34
 80094ec:	f423 7390 	bic.w	r3, r3, #288	; 0x120
 80094f0:	f8c7 30c8 	str.w	r3, [r7, #200]	; 0xc8
 80094f4:	687b      	ldr	r3, [r7, #4]
 80094f6:	681b      	ldr	r3, [r3, #0]
 80094f8:	330c      	adds	r3, #12
 80094fa:	f8d7 20c8 	ldr.w	r2, [r7, #200]	; 0xc8
 80094fe:	647a      	str	r2, [r7, #68]	; 0x44
 8009500:	643b      	str	r3, [r7, #64]	; 0x40
   __ASM volatile ("strex %0, %2, %1" : "=&r" (result), "=Q" (*addr) : "r" (value) );
 8009502:	6c39      	ldr	r1, [r7, #64]	; 0x40
 8009504:	6c7a      	ldr	r2, [r7, #68]	; 0x44
 8009506:	e841 2300 	strex	r3, r2, [r1]
 800950a:	63fb      	str	r3, [r7, #60]	; 0x3c
   return(result);
 800950c:	6bfb      	ldr	r3, [r7, #60]	; 0x3c
 800950e:	2b00      	cmp	r3, #0
 8009510:	d1e3      	bne.n	80094da <HAL_UART_IRQHandler+0x406>

        /* Disable the UART Error Interrupt: (Frame error, noise error, overrun error) */
        ATOMIC_CLEAR_BIT(huart->Instance->CR3, USART_CR3_EIE);
 8009512:	687b      	ldr	r3, [r7, #4]
 8009514:	681b      	ldr	r3, [r3, #0]
 8009516:	3314      	adds	r3, #20
 8009518:	627b      	str	r3, [r7, #36]	; 0x24
   __ASM volatile ("ldrex %0, %1" : "=r" (result) : "Q" (*addr) );
 800951a:	6a7b      	ldr	r3, [r7, #36]	; 0x24
 800951c:	e853 3f00 	ldrex	r3, [r3]
 8009520:	623b      	str	r3, [r7, #32]
   return(result);
 8009522:	6a3b      	ldr	r3, [r7, #32]
 8009524:	f023 0301 	bic.w	r3, r3, #1
 8009528:	f8c7 30c4 	str.w	r3, [r7, #196]	; 0xc4
 800952c:	687b      	ldr	r3, [r7, #4]
 800952e:	681b      	ldr	r3, [r3, #0]
 8009530:	3314      	adds	r3, #20
 8009532:	f8d7 20c4 	ldr.w	r2, [r7, #196]	; 0xc4
 8009536:	633a      	str	r2, [r7, #48]	; 0x30
 8009538:	62fb      	str	r3, [r7, #44]	; 0x2c
   __ASM volatile ("strex %0, %2, %1" : "=&r" (result), "=Q" (*addr) : "r" (value) );
 800953a:	6af9      	ldr	r1, [r7, #44]	; 0x2c
 800953c:	6b3a      	ldr	r2, [r7, #48]	; 0x30
 800953e:	e841 2300 	strex	r3, r2, [r1]
 8009542:	62bb      	str	r3, [r7, #40]	; 0x28
   return(result);
 8009544:	6abb      	ldr	r3, [r7, #40]	; 0x28
 8009546:	2b00      	cmp	r3, #0
 8009548:	d1e3      	bne.n	8009512 <HAL_UART_IRQHandler+0x43e>

        /* Rx process is completed, restore huart->RxState to Ready */
        huart->RxState = HAL_UART_STATE_READY;
 800954a:	687b      	ldr	r3, [r7, #4]
 800954c:	2220      	movs	r2, #32
 800954e:	f883 203e 	strb.w	r2, [r3, #62]	; 0x3e
        huart->ReceptionType = HAL_UART_RECEPTION_STANDARD;
 8009552:	687b      	ldr	r3, [r7, #4]
 8009554:	2200      	movs	r2, #0
 8009556:	631a      	str	r2, [r3, #48]	; 0x30

        ATOMIC_CLEAR_BIT(huart->Instance->CR1, USART_CR1_IDLEIE);
 8009558:	687b      	ldr	r3, [r7, #4]
 800955a:	681b      	ldr	r3, [r3, #0]
 800955c:	330c      	adds	r3, #12
 800955e:	613b      	str	r3, [r7, #16]
   __ASM volatile ("ldrex %0, %1" : "=r" (result) : "Q" (*addr) );
 8009560:	693b      	ldr	r3, [r7, #16]
 8009562:	e853 3f00 	ldrex	r3, [r3]
 8009566:	60fb      	str	r3, [r7, #12]
   return(result);
 8009568:	68fb      	ldr	r3, [r7, #12]
 800956a:	f023 0310 	bic.w	r3, r3, #16
 800956e:	f8c7 30c0 	str.w	r3, [r7, #192]	; 0xc0
 8009572:	687b      	ldr	r3, [r7, #4]
 8009574:	681b      	ldr	r3, [r3, #0]
 8009576:	330c      	adds	r3, #12
 8009578:	f8d7 20c0 	ldr.w	r2, [r7, #192]	; 0xc0
 800957c:	61fa      	str	r2, [r7, #28]
 800957e:	61bb      	str	r3, [r7, #24]
   __ASM volatile ("strex %0, %2, %1" : "=&r" (result), "=Q" (*addr) : "r" (value) );
 8009580:	69b9      	ldr	r1, [r7, #24]
 8009582:	69fa      	ldr	r2, [r7, #28]
 8009584:	e841 2300 	strex	r3, r2, [r1]
 8009588:	617b      	str	r3, [r7, #20]
   return(result);
 800958a:	697b      	ldr	r3, [r7, #20]
 800958c:	2b00      	cmp	r3, #0
 800958e:	d1e3      	bne.n	8009558 <HAL_UART_IRQHandler+0x484>
#if (USE_HAL_UART_REGISTER_CALLBACKS == 1)
        /*Call registered Rx complete callback*/
        huart->RxEventCallback(huart, nb_rx_data);
#else
        /*Call legacy weak Rx Event callback*/
        HAL_UARTEx_RxEventCallback(huart, nb_rx_data);
 8009590:	f8b7 30ce 	ldrh.w	r3, [r7, #206]	; 0xce
 8009594:	4619      	mov	r1, r3
 8009596:	6878      	ldr	r0, [r7, #4]
 8009598:	f000 f852 	bl	8009640 <HAL_UARTEx_RxEventCallback>
#endif /* USE_HAL_UART_REGISTER_CALLBACKS */
      }
      return;
 800959c:	e023      	b.n	80095e6 <HAL_UART_IRQHandler+0x512>
    }
  }

  /* UART in mode Transmitter ------------------------------------------------*/
  if (((isrflags & USART_SR_TXE) != RESET) && ((cr1its & USART_CR1_TXEIE) != RESET))
 800959e:	f8d7 30e4 	ldr.w	r3, [r7, #228]	; 0xe4
 80095a2:	f003 0380 	and.w	r3, r3, #128	; 0x80
 80095a6:	2b00      	cmp	r3, #0
 80095a8:	d009      	beq.n	80095be <HAL_UART_IRQHandler+0x4ea>
 80095aa:	f8d7 30e0 	ldr.w	r3, [r7, #224]	; 0xe0
 80095ae:	f003 0380 	and.w	r3, r3, #128	; 0x80
 80095b2:	2b00      	cmp	r3, #0
 80095b4:	d003      	beq.n	80095be <HAL_UART_IRQHandler+0x4ea>
  {
    UART_Transmit_IT(huart);
 80095b6:	6878      	ldr	r0, [r7, #4]
 80095b8:	f000 fadb 	bl	8009b72 <UART_Transmit_IT>
    return;
 80095bc:	e014      	b.n	80095e8 <HAL_UART_IRQHandler+0x514>
  }

  /* UART in mode Transmitter end --------------------------------------------*/
  if (((isrflags & USART_SR_TC) != RESET) && ((cr1its & USART_CR1_TCIE) != RESET))
 80095be:	f8d7 30e4 	ldr.w	r3, [r7, #228]	; 0xe4
 80095c2:	f003 0340 	and.w	r3, r3, #64	; 0x40
 80095c6:	2b00      	cmp	r3, #0
 80095c8:	d00e      	beq.n	80095e8 <HAL_UART_IRQHandler+0x514>
 80095ca:	f8d7 30e0 	ldr.w	r3, [r7, #224]	; 0xe0
 80095ce:	f003 0340 	and.w	r3, r3, #64	; 0x40
 80095d2:	2b00      	cmp	r3, #0
 80095d4:	d008      	beq.n	80095e8 <HAL_UART_IRQHandler+0x514>
  {
    UART_EndTransmit_IT(huart);
 80095d6:	6878      	ldr	r0, [r7, #4]
 80095d8:	f000 fb1b 	bl	8009c12 <UART_EndTransmit_IT>
    return;
 80095dc:	e004      	b.n	80095e8 <HAL_UART_IRQHandler+0x514>
    return;
 80095de:	bf00      	nop
 80095e0:	e002      	b.n	80095e8 <HAL_UART_IRQHandler+0x514>
      return;
 80095e2:	bf00      	nop
 80095e4:	e000      	b.n	80095e8 <HAL_UART_IRQHandler+0x514>
      return;
 80095e6:	bf00      	nop
  }
}
 80095e8:	37e8      	adds	r7, #232	; 0xe8
 80095ea:	46bd      	mov	sp, r7
 80095ec:	bd80      	pop	{r7, pc}
 80095ee:	bf00      	nop

080095f0 <HAL_UART_TxCpltCallback>:
  * @param  huart  Pointer to a UART_HandleTypeDef structure that contains
  *                the configuration information for the specified UART module.
  * @retval None
  */
__weak void HAL_UART_TxCpltCallback(UART_HandleTypeDef *huart)
{
 80095f0:	b480      	push	{r7}
 80095f2:	b083      	sub	sp, #12
 80095f4:	af00      	add	r7, sp, #0
 80095f6:	6078      	str	r0, [r7, #4]
  /* Prevent unused argument(s) compilation warning */
  UNUSED(huart);
  /* NOTE: This function should not be modified, when the callback is needed,
           the HAL_UART_TxCpltCallback could be implemented in the user file
   */
}
 80095f8:	bf00      	nop
 80095fa:	370c      	adds	r7, #12
 80095fc:	46bd      	mov	sp, r7
 80095fe:	f85d 7b04 	ldr.w	r7, [sp], #4
 8009602:	4770      	bx	lr

08009604 <HAL_UART_TxHalfCpltCallback>:
  * @param  huart  Pointer to a UART_HandleTypeDef structure that contains
  *                the configuration information for the specified UART module.
  * @retval None
  */
__weak void HAL_UART_TxHalfCpltCallback(UART_HandleTypeDef *huart)
{
 8009604:	b480      	push	{r7}
 8009606:	b083      	sub	sp, #12
 8009608:	af00      	add	r7, sp, #0
 800960a:	6078      	str	r0, [r7, #4]
  /* Prevent unused argument(s) compilation warning */
  UNUSED(huart);
  /* NOTE: This function should not be modified, when the callback is needed,
           the HAL_UART_TxHalfCpltCallback could be implemented in the user file
   */
}
 800960c:	bf00      	nop
 800960e:	370c      	adds	r7, #12
 8009610:	46bd      	mov	sp, r7
 8009612:	f85d 7b04 	ldr.w	r7, [sp], #4
 8009616:	4770      	bx	lr

08009618 <HAL_UART_RxHalfCpltCallback>:
  * @param  huart  Pointer to a UART_HandleTypeDef structure that contains
  *                the configuration information for the specified UART module.
  * @retval None
  */
__weak void HAL_UART_RxHalfCpltCallback(UART_HandleTypeDef *huart)
{
 8009618:	b480      	push	{r7}
 800961a:	b083      	sub	sp, #12
 800961c:	af00      	add	r7, sp, #0
 800961e:	6078      	str	r0, [r7, #4]
  /* Prevent unused argument(s) compilation warning */
  UNUSED(huart);
  /* NOTE: This function should not be modified, when the callback is needed,
           the HAL_UART_RxHalfCpltCallback could be implemented in the user file
   */
}
 8009620:	bf00      	nop
 8009622:	370c      	adds	r7, #12
 8009624:	46bd      	mov	sp, r7
 8009626:	f85d 7b04 	ldr.w	r7, [sp], #4
 800962a:	4770      	bx	lr

0800962c <HAL_UART_ErrorCallback>:
  * @param  huart  Pointer to a UART_HandleTypeDef structure that contains
  *                the configuration information for the specified UART module.
  * @retval None
  */
__weak void HAL_UART_ErrorCallback(UART_HandleTypeDef *huart)
{
 800962c:	b480      	push	{r7}
 800962e:	b083      	sub	sp, #12
 8009630:	af00      	add	r7, sp, #0
 8009632:	6078      	str	r0, [r7, #4]
  /* Prevent unused argument(s) compilation warning */
  UNUSED(huart);
  /* NOTE: This function should not be modified, when the callback is needed,
           the HAL_UART_ErrorCallback could be implemented in the user file
   */
}
 8009634:	bf00      	nop
 8009636:	370c      	adds	r7, #12
 8009638:	46bd      	mov	sp, r7
 800963a:	f85d 7b04 	ldr.w	r7, [sp], #4
 800963e:	4770      	bx	lr

08009640 <HAL_UARTEx_RxEventCallback>:
  * @param  Size  Number of data available in application reception buffer (indicates a position in
  *               reception buffer until which, data are available)
  * @retval None
  */
__weak void HAL_UARTEx_RxEventCallback(UART_HandleTypeDef *huart, uint16_t Size)
{
 8009640:	b480      	push	{r7}
 8009642:	b083      	sub	sp, #12
 8009644:	af00      	add	r7, sp, #0
 8009646:	6078      	str	r0, [r7, #4]
 8009648:	460b      	mov	r3, r1
 800964a:	807b      	strh	r3, [r7, #2]
  UNUSED(Size);

  /* NOTE : This function should not be modified, when the callback is needed,
            the HAL_UARTEx_RxEventCallback can be implemented in the user file.
   */
}
 800964c:	bf00      	nop
 800964e:	370c      	adds	r7, #12
 8009650:	46bd      	mov	sp, r7
 8009652:	f85d 7b04 	ldr.w	r7, [sp], #4
 8009656:	4770      	bx	lr

08009658 <UART_DMATransmitCplt>:
  * @param  hdma  Pointer to a DMA_HandleTypeDef structure that contains
  *               the configuration information for the specified DMA module.
  * @retval None
  */
static void UART_DMATransmitCplt(DMA_HandleTypeDef *hdma)
{
 8009658:	b580      	push	{r7, lr}
 800965a:	b090      	sub	sp, #64	; 0x40
 800965c:	af00      	add	r7, sp, #0
 800965e:	6078      	str	r0, [r7, #4]
  UART_HandleTypeDef *huart = (UART_HandleTypeDef *)((DMA_HandleTypeDef *)hdma)->Parent;
 8009660:	687b      	ldr	r3, [r7, #4]
 8009662:	6b9b      	ldr	r3, [r3, #56]	; 0x38
 8009664:	63fb      	str	r3, [r7, #60]	; 0x3c
  /* DMA Normal mode*/
  if ((hdma->Instance->CR & DMA_SxCR_CIRC) == 0U)
 8009666:	687b      	ldr	r3, [r7, #4]
 8009668:	681b      	ldr	r3, [r3, #0]
 800966a:	681b      	ldr	r3, [r3, #0]
 800966c:	f403 7380 	and.w	r3, r3, #256	; 0x100
 8009670:	2b00      	cmp	r3, #0
 8009672:	d137      	bne.n	80096e4 <UART_DMATransmitCplt+0x8c>
  {
    huart->TxXferCount = 0x00U;
 8009674:	6bfb      	ldr	r3, [r7, #60]	; 0x3c
 8009676:	2200      	movs	r2, #0
 8009678:	84da      	strh	r2, [r3, #38]	; 0x26

    /* Disable the DMA transfer for transmit request by setting the DMAT bit
       in the UART CR3 register */
    ATOMIC_CLEAR_BIT(huart->Instance->CR3, USART_CR3_DMAT);
 800967a:	6bfb      	ldr	r3, [r7, #60]	; 0x3c
 800967c:	681b      	ldr	r3, [r3, #0]
 800967e:	3314      	adds	r3, #20
 8009680:	627b      	str	r3, [r7, #36]	; 0x24
   __ASM volatile ("ldrex %0, %1" : "=r" (result) : "Q" (*addr) );
 8009682:	6a7b      	ldr	r3, [r7, #36]	; 0x24
 8009684:	e853 3f00 	ldrex	r3, [r3]
 8009688:	623b      	str	r3, [r7, #32]
   return(result);
 800968a:	6a3b      	ldr	r3, [r7, #32]
 800968c:	f023 0380 	bic.w	r3, r3, #128	; 0x80
 8009690:	63bb      	str	r3, [r7, #56]	; 0x38
 8009692:	6bfb      	ldr	r3, [r7, #60]	; 0x3c
 8009694:	681b      	ldr	r3, [r3, #0]
 8009696:	3314      	adds	r3, #20
 8009698:	6bba      	ldr	r2, [r7, #56]	; 0x38
 800969a:	633a      	str	r2, [r7, #48]	; 0x30
 800969c:	62fb      	str	r3, [r7, #44]	; 0x2c
   __ASM volatile ("strex %0, %2, %1" : "=&r" (result), "=Q" (*addr) : "r" (value) );
 800969e:	6af9      	ldr	r1, [r7, #44]	; 0x2c
 80096a0:	6b3a      	ldr	r2, [r7, #48]	; 0x30
 80096a2:	e841 2300 	strex	r3, r2, [r1]
 80096a6:	62bb      	str	r3, [r7, #40]	; 0x28
   return(result);
 80096a8:	6abb      	ldr	r3, [r7, #40]	; 0x28
 80096aa:	2b00      	cmp	r3, #0
 80096ac:	d1e5      	bne.n	800967a <UART_DMATransmitCplt+0x22>

    /* Enable the UART Transmit Complete Interrupt */
    ATOMIC_SET_BIT(huart->Instance->CR1, USART_CR1_TCIE);
 80096ae:	6bfb      	ldr	r3, [r7, #60]	; 0x3c
 80096b0:	681b      	ldr	r3, [r3, #0]
 80096b2:	330c      	adds	r3, #12
 80096b4:	613b      	str	r3, [r7, #16]
   __ASM volatile ("ldrex %0, %1" : "=r" (result) : "Q" (*addr) );
 80096b6:	693b      	ldr	r3, [r7, #16]
 80096b8:	e853 3f00 	ldrex	r3, [r3]
 80096bc:	60fb      	str	r3, [r7, #12]
   return(result);
 80096be:	68fb      	ldr	r3, [r7, #12]
 80096c0:	f043 0340 	orr.w	r3, r3, #64	; 0x40
 80096c4:	637b      	str	r3, [r7, #52]	; 0x34
 80096c6:	6bfb      	ldr	r3, [r7, #60]	; 0x3c
 80096c8:	681b      	ldr	r3, [r3, #0]
 80096ca:	330c      	adds	r3, #12
 80096cc:	6b7a      	ldr	r2, [r7, #52]	; 0x34
 80096ce:	61fa      	str	r2, [r7, #28]
 80096d0:	61bb      	str	r3, [r7, #24]
   __ASM volatile ("strex %0, %2, %1" : "=&r" (result), "=Q" (*addr) : "r" (value) );
 80096d2:	69b9      	ldr	r1, [r7, #24]
 80096d4:	69fa      	ldr	r2, [r7, #28]
 80096d6:	e841 2300 	strex	r3, r2, [r1]
 80096da:	617b      	str	r3, [r7, #20]
   return(result);
 80096dc:	697b      	ldr	r3, [r7, #20]
 80096de:	2b00      	cmp	r3, #0
 80096e0:	d1e5      	bne.n	80096ae <UART_DMATransmitCplt+0x56>
#else
    /*Call legacy weak Tx complete callback*/
    HAL_UART_TxCpltCallback(huart);
#endif /* USE_HAL_UART_REGISTER_CALLBACKS */
  }
}
 80096e2:	e002      	b.n	80096ea <UART_DMATransmitCplt+0x92>
    HAL_UART_TxCpltCallback(huart);
 80096e4:	6bf8      	ldr	r0, [r7, #60]	; 0x3c
 80096e6:	f7ff ff83 	bl	80095f0 <HAL_UART_TxCpltCallback>
}
 80096ea:	bf00      	nop
 80096ec:	3740      	adds	r7, #64	; 0x40
 80096ee:	46bd      	mov	sp, r7
 80096f0:	bd80      	pop	{r7, pc}

080096f2 <UART_DMATxHalfCplt>:
  * @param  hdma  Pointer to a DMA_HandleTypeDef structure that contains
  *               the configuration information for the specified DMA module.
  * @retval None
  */
static void UART_DMATxHalfCplt(DMA_HandleTypeDef *hdma)
{
 80096f2:	b580      	push	{r7, lr}
 80096f4:	b084      	sub	sp, #16
 80096f6:	af00      	add	r7, sp, #0
 80096f8:	6078      	str	r0, [r7, #4]
  UART_HandleTypeDef *huart = (UART_HandleTypeDef *)((DMA_HandleTypeDef *)hdma)->Parent;
 80096fa:	687b      	ldr	r3, [r7, #4]
 80096fc:	6b9b      	ldr	r3, [r3, #56]	; 0x38
 80096fe:	60fb      	str	r3, [r7, #12]
#if (USE_HAL_UART_REGISTER_CALLBACKS == 1)
  /*Call registered Tx complete callback*/
  huart->TxHalfCpltCallback(huart);
#else
  /*Call legacy weak Tx complete callback*/
  HAL_UART_TxHalfCpltCallback(huart);
 8009700:	68f8      	ldr	r0, [r7, #12]
 8009702:	f7ff ff7f 	bl	8009604 <HAL_UART_TxHalfCpltCallback>
#endif /* USE_HAL_UART_REGISTER_CALLBACKS */
}
 8009706:	bf00      	nop
 8009708:	3710      	adds	r7, #16
 800970a:	46bd      	mov	sp, r7
 800970c:	bd80      	pop	{r7, pc}

0800970e <UART_DMAReceiveCplt>:
  * @param  hdma  Pointer to a DMA_HandleTypeDef structure that contains
  *               the configuration information for the specified DMA module.
  * @retval None
  */
static void UART_DMAReceiveCplt(DMA_HandleTypeDef *hdma)
{
 800970e:	b580      	push	{r7, lr}
 8009710:	b09c      	sub	sp, #112	; 0x70
 8009712:	af00      	add	r7, sp, #0
 8009714:	6078      	str	r0, [r7, #4]
  UART_HandleTypeDef *huart = (UART_HandleTypeDef *)((DMA_HandleTypeDef *)hdma)->Parent;
 8009716:	687b      	ldr	r3, [r7, #4]
 8009718:	6b9b      	ldr	r3, [r3, #56]	; 0x38
 800971a:	66fb      	str	r3, [r7, #108]	; 0x6c
  /* DMA Normal mode*/
  if ((hdma->Instance->CR & DMA_SxCR_CIRC) == 0U)
 800971c:	687b      	ldr	r3, [r7, #4]
 800971e:	681b      	ldr	r3, [r3, #0]
 8009720:	681b      	ldr	r3, [r3, #0]
 8009722:	f403 7380 	and.w	r3, r3, #256	; 0x100
 8009726:	2b00      	cmp	r3, #0
 8009728:	d172      	bne.n	8009810 <UART_DMAReceiveCplt+0x102>
  {
    huart->RxXferCount = 0U;
 800972a:	6efb      	ldr	r3, [r7, #108]	; 0x6c
 800972c:	2200      	movs	r2, #0
 800972e:	85da      	strh	r2, [r3, #46]	; 0x2e

    /* Disable RXNE, PE and ERR (Frame error, noise error, overrun error) interrupts */
    ATOMIC_CLEAR_BIT(huart->Instance->CR1, USART_CR1_PEIE);
 8009730:	6efb      	ldr	r3, [r7, #108]	; 0x6c
 8009732:	681b      	ldr	r3, [r3, #0]
 8009734:	330c      	adds	r3, #12
 8009736:	64fb      	str	r3, [r7, #76]	; 0x4c
   __ASM volatile ("ldrex %0, %1" : "=r" (result) : "Q" (*addr) );
 8009738:	6cfb      	ldr	r3, [r7, #76]	; 0x4c
 800973a:	e853 3f00 	ldrex	r3, [r3]
 800973e:	64bb      	str	r3, [r7, #72]	; 0x48
   return(result);
 8009740:	6cbb      	ldr	r3, [r7, #72]	; 0x48
 8009742:	f423 7380 	bic.w	r3, r3, #256	; 0x100
 8009746:	66bb      	str	r3, [r7, #104]	; 0x68
 8009748:	6efb      	ldr	r3, [r7, #108]	; 0x6c
 800974a:	681b      	ldr	r3, [r3, #0]
 800974c:	330c      	adds	r3, #12
 800974e:	6eba      	ldr	r2, [r7, #104]	; 0x68
 8009750:	65ba      	str	r2, [r7, #88]	; 0x58
 8009752:	657b      	str	r3, [r7, #84]	; 0x54
   __ASM volatile ("strex %0, %2, %1" : "=&r" (result), "=Q" (*addr) : "r" (value) );
 8009754:	6d79      	ldr	r1, [r7, #84]	; 0x54
 8009756:	6dba      	ldr	r2, [r7, #88]	; 0x58
 8009758:	e841 2300 	strex	r3, r2, [r1]
 800975c:	653b      	str	r3, [r7, #80]	; 0x50
   return(result);
 800975e:	6d3b      	ldr	r3, [r7, #80]	; 0x50
 8009760:	2b00      	cmp	r3, #0
 8009762:	d1e5      	bne.n	8009730 <UART_DMAReceiveCplt+0x22>
    ATOMIC_CLEAR_BIT(huart->Instance->CR3, USART_CR3_EIE);
 8009764:	6efb      	ldr	r3, [r7, #108]	; 0x6c
 8009766:	681b      	ldr	r3, [r3, #0]
 8009768:	3314      	adds	r3, #20
 800976a:	63bb      	str	r3, [r7, #56]	; 0x38
   __ASM volatile ("ldrex %0, %1" : "=r" (result) : "Q" (*addr) );
 800976c:	6bbb      	ldr	r3, [r7, #56]	; 0x38
 800976e:	e853 3f00 	ldrex	r3, [r3]
 8009772:	637b      	str	r3, [r7, #52]	; 0x34
   return(result);
 8009774:	6b7b      	ldr	r3, [r7, #52]	; 0x34
 8009776:	f023 0301 	bic.w	r3, r3, #1
 800977a:	667b      	str	r3, [r7, #100]	; 0x64
 800977c:	6efb      	ldr	r3, [r7, #108]	; 0x6c
 800977e:	681b      	ldr	r3, [r3, #0]
 8009780:	3314      	adds	r3, #20
 8009782:	6e7a      	ldr	r2, [r7, #100]	; 0x64
 8009784:	647a      	str	r2, [r7, #68]	; 0x44
 8009786:	643b      	str	r3, [r7, #64]	; 0x40
   __ASM volatile ("strex %0, %2, %1" : "=&r" (result), "=Q" (*addr) : "r" (value) );
 8009788:	6c39      	ldr	r1, [r7, #64]	; 0x40
 800978a:	6c7a      	ldr	r2, [r7, #68]	; 0x44
 800978c:	e841 2300 	strex	r3, r2, [r1]
 8009790:	63fb      	str	r3, [r7, #60]	; 0x3c
   return(result);
 8009792:	6bfb      	ldr	r3, [r7, #60]	; 0x3c
 8009794:	2b00      	cmp	r3, #0
 8009796:	d1e5      	bne.n	8009764 <UART_DMAReceiveCplt+0x56>

    /* Disable the DMA transfer for the receiver request by setting the DMAR bit
       in the UART CR3 register */
    ATOMIC_CLEAR_BIT(huart->Instance->CR3, USART_CR3_DMAR);
 8009798:	6efb      	ldr	r3, [r7, #108]	; 0x6c
 800979a:	681b      	ldr	r3, [r3, #0]
 800979c:	3314      	adds	r3, #20
 800979e:	627b      	str	r3, [r7, #36]	; 0x24
   __ASM volatile ("ldrex %0, %1" : "=r" (result) : "Q" (*addr) );
 80097a0:	6a7b      	ldr	r3, [r7, #36]	; 0x24
 80097a2:	e853 3f00 	ldrex	r3, [r3]
 80097a6:	623b      	str	r3, [r7, #32]
   return(result);
 80097a8:	6a3b      	ldr	r3, [r7, #32]
 80097aa:	f023 0340 	bic.w	r3, r3, #64	; 0x40
 80097ae:	663b      	str	r3, [r7, #96]	; 0x60
 80097b0:	6efb      	ldr	r3, [r7, #108]	; 0x6c
 80097b2:	681b      	ldr	r3, [r3, #0]
 80097b4:	3314      	adds	r3, #20
 80097b6:	6e3a      	ldr	r2, [r7, #96]	; 0x60
 80097b8:	633a      	str	r2, [r7, #48]	; 0x30
 80097ba:	62fb      	str	r3, [r7, #44]	; 0x2c
   __ASM volatile ("strex %0, %2, %1" : "=&r" (result), "=Q" (*addr) : "r" (value) );
 80097bc:	6af9      	ldr	r1, [r7, #44]	; 0x2c
 80097be:	6b3a      	ldr	r2, [r7, #48]	; 0x30
 80097c0:	e841 2300 	strex	r3, r2, [r1]
 80097c4:	62bb      	str	r3, [r7, #40]	; 0x28
   return(result);
 80097c6:	6abb      	ldr	r3, [r7, #40]	; 0x28
 80097c8:	2b00      	cmp	r3, #0
 80097ca:	d1e5      	bne.n	8009798 <UART_DMAReceiveCplt+0x8a>

    /* At end of Rx process, restore huart->RxState to Ready */
    huart->RxState = HAL_UART_STATE_READY;
 80097cc:	6efb      	ldr	r3, [r7, #108]	; 0x6c
 80097ce:	2220      	movs	r2, #32
 80097d0:	f883 203e 	strb.w	r2, [r3, #62]	; 0x3e

    /* If Reception till IDLE event has been selected, Disable IDLE Interrupt */
    if (huart->ReceptionType == HAL_UART_RECEPTION_TOIDLE)
 80097d4:	6efb      	ldr	r3, [r7, #108]	; 0x6c
 80097d6:	6b1b      	ldr	r3, [r3, #48]	; 0x30
 80097d8:	2b01      	cmp	r3, #1
 80097da:	d119      	bne.n	8009810 <UART_DMAReceiveCplt+0x102>
    {
      ATOMIC_CLEAR_BIT(huart->Instance->CR1, USART_CR1_IDLEIE);
 80097dc:	6efb      	ldr	r3, [r7, #108]	; 0x6c
 80097de:	681b      	ldr	r3, [r3, #0]
 80097e0:	330c      	adds	r3, #12
 80097e2:	613b      	str	r3, [r7, #16]
   __ASM volatile ("ldrex %0, %1" : "=r" (result) : "Q" (*addr) );
 80097e4:	693b      	ldr	r3, [r7, #16]
 80097e6:	e853 3f00 	ldrex	r3, [r3]
 80097ea:	60fb      	str	r3, [r7, #12]
   return(result);
 80097ec:	68fb      	ldr	r3, [r7, #12]
 80097ee:	f023 0310 	bic.w	r3, r3, #16
 80097f2:	65fb      	str	r3, [r7, #92]	; 0x5c
 80097f4:	6efb      	ldr	r3, [r7, #108]	; 0x6c
 80097f6:	681b      	ldr	r3, [r3, #0]
 80097f8:	330c      	adds	r3, #12
 80097fa:	6dfa      	ldr	r2, [r7, #92]	; 0x5c
 80097fc:	61fa      	str	r2, [r7, #28]
 80097fe:	61bb      	str	r3, [r7, #24]
   __ASM volatile ("strex %0, %2, %1" : "=&r" (result), "=Q" (*addr) : "r" (value) );
 8009800:	69b9      	ldr	r1, [r7, #24]
 8009802:	69fa      	ldr	r2, [r7, #28]
 8009804:	e841 2300 	strex	r3, r2, [r1]
 8009808:	617b      	str	r3, [r7, #20]
   return(result);
 800980a:	697b      	ldr	r3, [r7, #20]
 800980c:	2b00      	cmp	r3, #0
 800980e:	d1e5      	bne.n	80097dc <UART_DMAReceiveCplt+0xce>
    }
  }

  /* Check current reception Mode :
     If Reception till IDLE event has been selected : use Rx Event callback */
  if (huart->ReceptionType == HAL_UART_RECEPTION_TOIDLE)
 8009810:	6efb      	ldr	r3, [r7, #108]	; 0x6c
 8009812:	6b1b      	ldr	r3, [r3, #48]	; 0x30
 8009814:	2b01      	cmp	r3, #1
 8009816:	d106      	bne.n	8009826 <UART_DMAReceiveCplt+0x118>
#if (USE_HAL_UART_REGISTER_CALLBACKS == 1)
    /*Call registered Rx Event callback*/
    huart->RxEventCallback(huart, huart->RxXferSize);
#else
    /*Call legacy weak Rx Event callback*/
    HAL_UARTEx_RxEventCallback(huart, huart->RxXferSize);
 8009818:	6efb      	ldr	r3, [r7, #108]	; 0x6c
 800981a:	8d9b      	ldrh	r3, [r3, #44]	; 0x2c
 800981c:	4619      	mov	r1, r3
 800981e:	6ef8      	ldr	r0, [r7, #108]	; 0x6c
 8009820:	f7ff ff0e 	bl	8009640 <HAL_UARTEx_RxEventCallback>
#else
    /*Call legacy weak Rx complete callback*/
    HAL_UART_RxCpltCallback(huart);
#endif /* USE_HAL_UART_REGISTER_CALLBACKS */
  }
}
 8009824:	e002      	b.n	800982c <UART_DMAReceiveCplt+0x11e>
    HAL_UART_RxCpltCallback(huart);
 8009826:	6ef8      	ldr	r0, [r7, #108]	; 0x6c
 8009828:	f7f9 fea4 	bl	8003574 <HAL_UART_RxCpltCallback>
}
 800982c:	bf00      	nop
 800982e:	3770      	adds	r7, #112	; 0x70
 8009830:	46bd      	mov	sp, r7
 8009832:	bd80      	pop	{r7, pc}

08009834 <UART_DMARxHalfCplt>:
  * @param  hdma  Pointer to a DMA_HandleTypeDef structure that contains
  *               the configuration information for the specified DMA module.
  * @retval None
  */
static void UART_DMARxHalfCplt(DMA_HandleTypeDef *hdma)
{
 8009834:	b580      	push	{r7, lr}
 8009836:	b084      	sub	sp, #16
 8009838:	af00      	add	r7, sp, #0
 800983a:	6078      	str	r0, [r7, #4]
  UART_HandleTypeDef *huart = (UART_HandleTypeDef *)((DMA_HandleTypeDef *)hdma)->Parent;
 800983c:	687b      	ldr	r3, [r7, #4]
 800983e:	6b9b      	ldr	r3, [r3, #56]	; 0x38
 8009840:	60fb      	str	r3, [r7, #12]

  /* Check current reception Mode :
     If Reception till IDLE event has been selected : use Rx Event callback */
  if (huart->ReceptionType == HAL_UART_RECEPTION_TOIDLE)
 8009842:	68fb      	ldr	r3, [r7, #12]
 8009844:	6b1b      	ldr	r3, [r3, #48]	; 0x30
 8009846:	2b01      	cmp	r3, #1
 8009848:	d108      	bne.n	800985c <UART_DMARxHalfCplt+0x28>
#if (USE_HAL_UART_REGISTER_CALLBACKS == 1)
    /*Call registered Rx Event callback*/
    huart->RxEventCallback(huart, huart->RxXferSize / 2U);
#else
    /*Call legacy weak Rx Event callback*/
    HAL_UARTEx_RxEventCallback(huart, huart->RxXferSize / 2U);
 800984a:	68fb      	ldr	r3, [r7, #12]
 800984c:	8d9b      	ldrh	r3, [r3, #44]	; 0x2c
 800984e:	085b      	lsrs	r3, r3, #1
 8009850:	b29b      	uxth	r3, r3
 8009852:	4619      	mov	r1, r3
 8009854:	68f8      	ldr	r0, [r7, #12]
 8009856:	f7ff fef3 	bl	8009640 <HAL_UARTEx_RxEventCallback>
#else
    /*Call legacy weak Rx Half complete callback*/
    HAL_UART_RxHalfCpltCallback(huart);
#endif /* USE_HAL_UART_REGISTER_CALLBACKS */
  }
}
 800985a:	e002      	b.n	8009862 <UART_DMARxHalfCplt+0x2e>
    HAL_UART_RxHalfCpltCallback(huart);
 800985c:	68f8      	ldr	r0, [r7, #12]
 800985e:	f7ff fedb 	bl	8009618 <HAL_UART_RxHalfCpltCallback>
}
 8009862:	bf00      	nop
 8009864:	3710      	adds	r7, #16
 8009866:	46bd      	mov	sp, r7
 8009868:	bd80      	pop	{r7, pc}

0800986a <UART_DMAError>:
  * @param  hdma  Pointer to a DMA_HandleTypeDef structure that contains
  *               the configuration information for the specified DMA module.
  * @retval None
  */
static void UART_DMAError(DMA_HandleTypeDef *hdma)
{
 800986a:	b580      	push	{r7, lr}
 800986c:	b084      	sub	sp, #16
 800986e:	af00      	add	r7, sp, #0
 8009870:	6078      	str	r0, [r7, #4]
  uint32_t dmarequest = 0x00U;
 8009872:	2300      	movs	r3, #0
 8009874:	60fb      	str	r3, [r7, #12]
  UART_HandleTypeDef *huart = (UART_HandleTypeDef *)((DMA_HandleTypeDef *)hdma)->Parent;
 8009876:	687b      	ldr	r3, [r7, #4]
 8009878:	6b9b      	ldr	r3, [r3, #56]	; 0x38
 800987a:	60bb      	str	r3, [r7, #8]

  /* Stop UART DMA Tx request if ongoing */
  dmarequest = HAL_IS_BIT_SET(huart->Instance->CR3, USART_CR3_DMAT);
 800987c:	68bb      	ldr	r3, [r7, #8]
 800987e:	681b      	ldr	r3, [r3, #0]
 8009880:	695b      	ldr	r3, [r3, #20]
 8009882:	f003 0380 	and.w	r3, r3, #128	; 0x80
 8009886:	2b80      	cmp	r3, #128	; 0x80
 8009888:	bf0c      	ite	eq
 800988a:	2301      	moveq	r3, #1
 800988c:	2300      	movne	r3, #0
 800988e:	b2db      	uxtb	r3, r3
 8009890:	60fb      	str	r3, [r7, #12]
  if ((huart->gState == HAL_UART_STATE_BUSY_TX) && dmarequest)
 8009892:	68bb      	ldr	r3, [r7, #8]
 8009894:	f893 303d 	ldrb.w	r3, [r3, #61]	; 0x3d
 8009898:	b2db      	uxtb	r3, r3
 800989a:	2b21      	cmp	r3, #33	; 0x21
 800989c:	d108      	bne.n	80098b0 <UART_DMAError+0x46>
 800989e:	68fb      	ldr	r3, [r7, #12]
 80098a0:	2b00      	cmp	r3, #0
 80098a2:	d005      	beq.n	80098b0 <UART_DMAError+0x46>
  {
    huart->TxXferCount = 0x00U;
 80098a4:	68bb      	ldr	r3, [r7, #8]
 80098a6:	2200      	movs	r2, #0
 80098a8:	84da      	strh	r2, [r3, #38]	; 0x26
    UART_EndTxTransfer(huart);
 80098aa:	68b8      	ldr	r0, [r7, #8]
 80098ac:	f000 f8c2 	bl	8009a34 <UART_EndTxTransfer>
  }

  /* Stop UART DMA Rx request if ongoing */
  dmarequest = HAL_IS_BIT_SET(huart->Instance->CR3, USART_CR3_DMAR);
 80098b0:	68bb      	ldr	r3, [r7, #8]
 80098b2:	681b      	ldr	r3, [r3, #0]
 80098b4:	695b      	ldr	r3, [r3, #20]
 80098b6:	f003 0340 	and.w	r3, r3, #64	; 0x40
 80098ba:	2b40      	cmp	r3, #64	; 0x40
 80098bc:	bf0c      	ite	eq
 80098be:	2301      	moveq	r3, #1
 80098c0:	2300      	movne	r3, #0
 80098c2:	b2db      	uxtb	r3, r3
 80098c4:	60fb      	str	r3, [r7, #12]
  if ((huart->RxState == HAL_UART_STATE_BUSY_RX) && dmarequest)
 80098c6:	68bb      	ldr	r3, [r7, #8]
 80098c8:	f893 303e 	ldrb.w	r3, [r3, #62]	; 0x3e
 80098cc:	b2db      	uxtb	r3, r3
 80098ce:	2b22      	cmp	r3, #34	; 0x22
 80098d0:	d108      	bne.n	80098e4 <UART_DMAError+0x7a>
 80098d2:	68fb      	ldr	r3, [r7, #12]
 80098d4:	2b00      	cmp	r3, #0
 80098d6:	d005      	beq.n	80098e4 <UART_DMAError+0x7a>
  {
    huart->RxXferCount = 0x00U;
 80098d8:	68bb      	ldr	r3, [r7, #8]
 80098da:	2200      	movs	r2, #0
 80098dc:	85da      	strh	r2, [r3, #46]	; 0x2e
    UART_EndRxTransfer(huart);
 80098de:	68b8      	ldr	r0, [r7, #8]
 80098e0:	f000 f8d0 	bl	8009a84 <UART_EndRxTransfer>
  }

  huart->ErrorCode |= HAL_UART_ERROR_DMA;
 80098e4:	68bb      	ldr	r3, [r7, #8]
 80098e6:	6c1b      	ldr	r3, [r3, #64]	; 0x40
 80098e8:	f043 0210 	orr.w	r2, r3, #16
 80098ec:	68bb      	ldr	r3, [r7, #8]
 80098ee:	641a      	str	r2, [r3, #64]	; 0x40
#if (USE_HAL_UART_REGISTER_CALLBACKS == 1)
  /*Call registered error callback*/
  huart->ErrorCallback(huart);
#else
  /*Call legacy weak error callback*/
  HAL_UART_ErrorCallback(huart);
 80098f0:	68b8      	ldr	r0, [r7, #8]
 80098f2:	f7ff fe9b 	bl	800962c <HAL_UART_ErrorCallback>
#endif /* USE_HAL_UART_REGISTER_CALLBACKS */
}
 80098f6:	bf00      	nop
 80098f8:	3710      	adds	r7, #16
 80098fa:	46bd      	mov	sp, r7
 80098fc:	bd80      	pop	{r7, pc}
	...

08009900 <UART_Start_Receive_DMA>:
  * @param  pData Pointer to data buffer (u8 or u16 data elements).
  * @param  Size  Amount of data elements (u8 or u16) to be received.
  * @retval HAL status
  */
HAL_StatusTypeDef UART_Start_Receive_DMA(UART_HandleTypeDef *huart, uint8_t *pData, uint16_t Size)
{
 8009900:	b580      	push	{r7, lr}
 8009902:	b098      	sub	sp, #96	; 0x60
 8009904:	af00      	add	r7, sp, #0
 8009906:	60f8      	str	r0, [r7, #12]
 8009908:	60b9      	str	r1, [r7, #8]
 800990a:	4613      	mov	r3, r2
 800990c:	80fb      	strh	r3, [r7, #6]
  uint32_t *tmp;

  huart->pRxBuffPtr = pData;
 800990e:	68ba      	ldr	r2, [r7, #8]
 8009910:	68fb      	ldr	r3, [r7, #12]
 8009912:	629a      	str	r2, [r3, #40]	; 0x28
  huart->RxXferSize = Size;
 8009914:	68fb      	ldr	r3, [r7, #12]
 8009916:	88fa      	ldrh	r2, [r7, #6]
 8009918:	859a      	strh	r2, [r3, #44]	; 0x2c

  huart->ErrorCode = HAL_UART_ERROR_NONE;
 800991a:	68fb      	ldr	r3, [r7, #12]
 800991c:	2200      	movs	r2, #0
 800991e:	641a      	str	r2, [r3, #64]	; 0x40
  huart->RxState = HAL_UART_STATE_BUSY_RX;
 8009920:	68fb      	ldr	r3, [r7, #12]
 8009922:	2222      	movs	r2, #34	; 0x22
 8009924:	f883 203e 	strb.w	r2, [r3, #62]	; 0x3e

  /* Set the UART DMA transfer complete callback */
  huart->hdmarx->XferCpltCallback = UART_DMAReceiveCplt;
 8009928:	68fb      	ldr	r3, [r7, #12]
 800992a:	6b9b      	ldr	r3, [r3, #56]	; 0x38
 800992c:	4a3e      	ldr	r2, [pc, #248]	; (8009a28 <UART_Start_Receive_DMA+0x128>)
 800992e:	63da      	str	r2, [r3, #60]	; 0x3c

  /* Set the UART DMA Half transfer complete callback */
  huart->hdmarx->XferHalfCpltCallback = UART_DMARxHalfCplt;
 8009930:	68fb      	ldr	r3, [r7, #12]
 8009932:	6b9b      	ldr	r3, [r3, #56]	; 0x38
 8009934:	4a3d      	ldr	r2, [pc, #244]	; (8009a2c <UART_Start_Receive_DMA+0x12c>)
 8009936:	641a      	str	r2, [r3, #64]	; 0x40

  /* Set the DMA error callback */
  huart->hdmarx->XferErrorCallback = UART_DMAError;
 8009938:	68fb      	ldr	r3, [r7, #12]
 800993a:	6b9b      	ldr	r3, [r3, #56]	; 0x38
 800993c:	4a3c      	ldr	r2, [pc, #240]	; (8009a30 <UART_Start_Receive_DMA+0x130>)
 800993e:	64da      	str	r2, [r3, #76]	; 0x4c

  /* Set the DMA abort callback */
  huart->hdmarx->XferAbortCallback = NULL;
 8009940:	68fb      	ldr	r3, [r7, #12]
 8009942:	6b9b      	ldr	r3, [r3, #56]	; 0x38
 8009944:	2200      	movs	r2, #0
 8009946:	651a      	str	r2, [r3, #80]	; 0x50

  /* Enable the DMA stream */
  tmp = (uint32_t *)&pData;
 8009948:	f107 0308 	add.w	r3, r7, #8
 800994c:	65fb      	str	r3, [r7, #92]	; 0x5c
  HAL_DMA_Start_IT(huart->hdmarx, (uint32_t)&huart->Instance->DR, *(uint32_t *)tmp, Size);
 800994e:	68fb      	ldr	r3, [r7, #12]
 8009950:	6b98      	ldr	r0, [r3, #56]	; 0x38
 8009952:	68fb      	ldr	r3, [r7, #12]
 8009954:	681b      	ldr	r3, [r3, #0]
 8009956:	3304      	adds	r3, #4
 8009958:	4619      	mov	r1, r3
 800995a:	6dfb      	ldr	r3, [r7, #92]	; 0x5c
 800995c:	681a      	ldr	r2, [r3, #0]
 800995e:	88fb      	ldrh	r3, [r7, #6]
 8009960:	f7fc fde4 	bl	800652c <HAL_DMA_Start_IT>

  /* Clear the Overrun flag just before enabling the DMA Rx request: can be mandatory for the second transfer */
  __HAL_UART_CLEAR_OREFLAG(huart);
 8009964:	2300      	movs	r3, #0
 8009966:	613b      	str	r3, [r7, #16]
 8009968:	68fb      	ldr	r3, [r7, #12]
 800996a:	681b      	ldr	r3, [r3, #0]
 800996c:	681b      	ldr	r3, [r3, #0]
 800996e:	613b      	str	r3, [r7, #16]
 8009970:	68fb      	ldr	r3, [r7, #12]
 8009972:	681b      	ldr	r3, [r3, #0]
 8009974:	685b      	ldr	r3, [r3, #4]
 8009976:	613b      	str	r3, [r7, #16]
 8009978:	693b      	ldr	r3, [r7, #16]

  /* Process Unlocked */
  __HAL_UNLOCK(huart);
 800997a:	68fb      	ldr	r3, [r7, #12]
 800997c:	2200      	movs	r2, #0
 800997e:	f883 203c 	strb.w	r2, [r3, #60]	; 0x3c

  /* Enable the UART Parity Error Interrupt */
  ATOMIC_SET_BIT(huart->Instance->CR1, USART_CR1_PEIE);
 8009982:	68fb      	ldr	r3, [r7, #12]
 8009984:	681b      	ldr	r3, [r3, #0]
 8009986:	330c      	adds	r3, #12
 8009988:	643b      	str	r3, [r7, #64]	; 0x40
   __ASM volatile ("ldrex %0, %1" : "=r" (result) : "Q" (*addr) );
 800998a:	6c3b      	ldr	r3, [r7, #64]	; 0x40
 800998c:	e853 3f00 	ldrex	r3, [r3]
 8009990:	63fb      	str	r3, [r7, #60]	; 0x3c
   return(result);
 8009992:	6bfb      	ldr	r3, [r7, #60]	; 0x3c
 8009994:	f443 7380 	orr.w	r3, r3, #256	; 0x100
 8009998:	65bb      	str	r3, [r7, #88]	; 0x58
 800999a:	68fb      	ldr	r3, [r7, #12]
 800999c:	681b      	ldr	r3, [r3, #0]
 800999e:	330c      	adds	r3, #12
 80099a0:	6dba      	ldr	r2, [r7, #88]	; 0x58
 80099a2:	64fa      	str	r2, [r7, #76]	; 0x4c
 80099a4:	64bb      	str	r3, [r7, #72]	; 0x48
   __ASM volatile ("strex %0, %2, %1" : "=&r" (result), "=Q" (*addr) : "r" (value) );
 80099a6:	6cb9      	ldr	r1, [r7, #72]	; 0x48
 80099a8:	6cfa      	ldr	r2, [r7, #76]	; 0x4c
 80099aa:	e841 2300 	strex	r3, r2, [r1]
 80099ae:	647b      	str	r3, [r7, #68]	; 0x44
   return(result);
 80099b0:	6c7b      	ldr	r3, [r7, #68]	; 0x44
 80099b2:	2b00      	cmp	r3, #0
 80099b4:	d1e5      	bne.n	8009982 <UART_Start_Receive_DMA+0x82>

  /* Enable the UART Error Interrupt: (Frame error, noise error, overrun error) */
  ATOMIC_SET_BIT(huart->Instance->CR3, USART_CR3_EIE);
 80099b6:	68fb      	ldr	r3, [r7, #12]
 80099b8:	681b      	ldr	r3, [r3, #0]
 80099ba:	3314      	adds	r3, #20
 80099bc:	62fb      	str	r3, [r7, #44]	; 0x2c
   __ASM volatile ("ldrex %0, %1" : "=r" (result) : "Q" (*addr) );
 80099be:	6afb      	ldr	r3, [r7, #44]	; 0x2c
 80099c0:	e853 3f00 	ldrex	r3, [r3]
 80099c4:	62bb      	str	r3, [r7, #40]	; 0x28
   return(result);
 80099c6:	6abb      	ldr	r3, [r7, #40]	; 0x28
 80099c8:	f043 0301 	orr.w	r3, r3, #1
 80099cc:	657b      	str	r3, [r7, #84]	; 0x54
 80099ce:	68fb      	ldr	r3, [r7, #12]
 80099d0:	681b      	ldr	r3, [r3, #0]
 80099d2:	3314      	adds	r3, #20
 80099d4:	6d7a      	ldr	r2, [r7, #84]	; 0x54
 80099d6:	63ba      	str	r2, [r7, #56]	; 0x38
 80099d8:	637b      	str	r3, [r7, #52]	; 0x34
   __ASM volatile ("strex %0, %2, %1" : "=&r" (result), "=Q" (*addr) : "r" (value) );
 80099da:	6b79      	ldr	r1, [r7, #52]	; 0x34
 80099dc:	6bba      	ldr	r2, [r7, #56]	; 0x38
 80099de:	e841 2300 	strex	r3, r2, [r1]
 80099e2:	633b      	str	r3, [r7, #48]	; 0x30
   return(result);
 80099e4:	6b3b      	ldr	r3, [r7, #48]	; 0x30
 80099e6:	2b00      	cmp	r3, #0
 80099e8:	d1e5      	bne.n	80099b6 <UART_Start_Receive_DMA+0xb6>

  /* Enable the DMA transfer for the receiver request by setting the DMAR bit
  in the UART CR3 register */
  ATOMIC_SET_BIT(huart->Instance->CR3, USART_CR3_DMAR);
 80099ea:	68fb      	ldr	r3, [r7, #12]
 80099ec:	681b      	ldr	r3, [r3, #0]
 80099ee:	3314      	adds	r3, #20
 80099f0:	61bb      	str	r3, [r7, #24]
   __ASM volatile ("ldrex %0, %1" : "=r" (result) : "Q" (*addr) );
 80099f2:	69bb      	ldr	r3, [r7, #24]
 80099f4:	e853 3f00 	ldrex	r3, [r3]
 80099f8:	617b      	str	r3, [r7, #20]
   return(result);
 80099fa:	697b      	ldr	r3, [r7, #20]
 80099fc:	f043 0340 	orr.w	r3, r3, #64	; 0x40
 8009a00:	653b      	str	r3, [r7, #80]	; 0x50
 8009a02:	68fb      	ldr	r3, [r7, #12]
 8009a04:	681b      	ldr	r3, [r3, #0]
 8009a06:	3314      	adds	r3, #20
 8009a08:	6d3a      	ldr	r2, [r7, #80]	; 0x50
 8009a0a:	627a      	str	r2, [r7, #36]	; 0x24
 8009a0c:	623b      	str	r3, [r7, #32]
   __ASM volatile ("strex %0, %2, %1" : "=&r" (result), "=Q" (*addr) : "r" (value) );
 8009a0e:	6a39      	ldr	r1, [r7, #32]
 8009a10:	6a7a      	ldr	r2, [r7, #36]	; 0x24
 8009a12:	e841 2300 	strex	r3, r2, [r1]
 8009a16:	61fb      	str	r3, [r7, #28]
   return(result);
 8009a18:	69fb      	ldr	r3, [r7, #28]
 8009a1a:	2b00      	cmp	r3, #0
 8009a1c:	d1e5      	bne.n	80099ea <UART_Start_Receive_DMA+0xea>

  return HAL_OK;
 8009a1e:	2300      	movs	r3, #0
}
 8009a20:	4618      	mov	r0, r3
 8009a22:	3760      	adds	r7, #96	; 0x60
 8009a24:	46bd      	mov	sp, r7
 8009a26:	bd80      	pop	{r7, pc}
 8009a28:	0800970f 	.word	0x0800970f
 8009a2c:	08009835 	.word	0x08009835
 8009a30:	0800986b 	.word	0x0800986b

08009a34 <UART_EndTxTransfer>:
  * @brief  End ongoing Tx transfer on UART peripheral (following error detection or Transmit completion).
  * @param  huart UART handle.
  * @retval None
  */
static void UART_EndTxTransfer(UART_HandleTypeDef *huart)
{
 8009a34:	b480      	push	{r7}
 8009a36:	b089      	sub	sp, #36	; 0x24
 8009a38:	af00      	add	r7, sp, #0
 8009a3a:	6078      	str	r0, [r7, #4]
  /* Disable TXEIE and TCIE interrupts */
  ATOMIC_CLEAR_BIT(huart->Instance->CR1, (USART_CR1_TXEIE | USART_CR1_TCIE));
 8009a3c:	687b      	ldr	r3, [r7, #4]
 8009a3e:	681b      	ldr	r3, [r3, #0]
 8009a40:	330c      	adds	r3, #12
 8009a42:	60fb      	str	r3, [r7, #12]
   __ASM volatile ("ldrex %0, %1" : "=r" (result) : "Q" (*addr) );
 8009a44:	68fb      	ldr	r3, [r7, #12]
 8009a46:	e853 3f00 	ldrex	r3, [r3]
 8009a4a:	60bb      	str	r3, [r7, #8]
   return(result);
 8009a4c:	68bb      	ldr	r3, [r7, #8]
 8009a4e:	f023 03c0 	bic.w	r3, r3, #192	; 0xc0
 8009a52:	61fb      	str	r3, [r7, #28]
 8009a54:	687b      	ldr	r3, [r7, #4]
 8009a56:	681b      	ldr	r3, [r3, #0]
 8009a58:	330c      	adds	r3, #12
 8009a5a:	69fa      	ldr	r2, [r7, #28]
 8009a5c:	61ba      	str	r2, [r7, #24]
 8009a5e:	617b      	str	r3, [r7, #20]
   __ASM volatile ("strex %0, %2, %1" : "=&r" (result), "=Q" (*addr) : "r" (value) );
 8009a60:	6979      	ldr	r1, [r7, #20]
 8009a62:	69ba      	ldr	r2, [r7, #24]
 8009a64:	e841 2300 	strex	r3, r2, [r1]
 8009a68:	613b      	str	r3, [r7, #16]
   return(result);
 8009a6a:	693b      	ldr	r3, [r7, #16]
 8009a6c:	2b00      	cmp	r3, #0
 8009a6e:	d1e5      	bne.n	8009a3c <UART_EndTxTransfer+0x8>

  /* At end of Tx process, restore huart->gState to Ready */
  huart->gState = HAL_UART_STATE_READY;
 8009a70:	687b      	ldr	r3, [r7, #4]
 8009a72:	2220      	movs	r2, #32
 8009a74:	f883 203d 	strb.w	r2, [r3, #61]	; 0x3d
}
 8009a78:	bf00      	nop
 8009a7a:	3724      	adds	r7, #36	; 0x24
 8009a7c:	46bd      	mov	sp, r7
 8009a7e:	f85d 7b04 	ldr.w	r7, [sp], #4
 8009a82:	4770      	bx	lr

08009a84 <UART_EndRxTransfer>:
  * @brief  End ongoing Rx transfer on UART peripheral (following error detection or Reception completion).
  * @param  huart UART handle.
  * @retval None
  */
static void UART_EndRxTransfer(UART_HandleTypeDef *huart)
{
 8009a84:	b480      	push	{r7}
 8009a86:	b095      	sub	sp, #84	; 0x54
 8009a88:	af00      	add	r7, sp, #0
 8009a8a:	6078      	str	r0, [r7, #4]
  /* Disable RXNE, PE and ERR (Frame error, noise error, overrun error) interrupts */
  ATOMIC_CLEAR_BIT(huart->Instance->CR1, (USART_CR1_RXNEIE | USART_CR1_PEIE));
 8009a8c:	687b      	ldr	r3, [r7, #4]
 8009a8e:	681b      	ldr	r3, [r3, #0]
 8009a90:	330c      	adds	r3, #12
 8009a92:	637b      	str	r3, [r7, #52]	; 0x34
   __ASM volatile ("ldrex %0, %1" : "=r" (result) : "Q" (*addr) );
 8009a94:	6b7b      	ldr	r3, [r7, #52]	; 0x34
 8009a96:	e853 3f00 	ldrex	r3, [r3]
 8009a9a:	633b      	str	r3, [r7, #48]	; 0x30
   return(result);
 8009a9c:	6b3b      	ldr	r3, [r7, #48]	; 0x30
 8009a9e:	f423 7390 	bic.w	r3, r3, #288	; 0x120
 8009aa2:	64fb      	str	r3, [r7, #76]	; 0x4c
 8009aa4:	687b      	ldr	r3, [r7, #4]
 8009aa6:	681b      	ldr	r3, [r3, #0]
 8009aa8:	330c      	adds	r3, #12
 8009aaa:	6cfa      	ldr	r2, [r7, #76]	; 0x4c
 8009aac:	643a      	str	r2, [r7, #64]	; 0x40
 8009aae:	63fb      	str	r3, [r7, #60]	; 0x3c
   __ASM volatile ("strex %0, %2, %1" : "=&r" (result), "=Q" (*addr) : "r" (value) );
 8009ab0:	6bf9      	ldr	r1, [r7, #60]	; 0x3c
 8009ab2:	6c3a      	ldr	r2, [r7, #64]	; 0x40
 8009ab4:	e841 2300 	strex	r3, r2, [r1]
 8009ab8:	63bb      	str	r3, [r7, #56]	; 0x38
   return(result);
 8009aba:	6bbb      	ldr	r3, [r7, #56]	; 0x38
 8009abc:	2b00      	cmp	r3, #0
 8009abe:	d1e5      	bne.n	8009a8c <UART_EndRxTransfer+0x8>
  ATOMIC_CLEAR_BIT(huart->Instance->CR3, USART_CR3_EIE);
 8009ac0:	687b      	ldr	r3, [r7, #4]
 8009ac2:	681b      	ldr	r3, [r3, #0]
 8009ac4:	3314      	adds	r3, #20
 8009ac6:	623b      	str	r3, [r7, #32]
   __ASM volatile ("ldrex %0, %1" : "=r" (result) : "Q" (*addr) );
 8009ac8:	6a3b      	ldr	r3, [r7, #32]
 8009aca:	e853 3f00 	ldrex	r3, [r3]
 8009ace:	61fb      	str	r3, [r7, #28]
   return(result);
 8009ad0:	69fb      	ldr	r3, [r7, #28]
 8009ad2:	f023 0301 	bic.w	r3, r3, #1
 8009ad6:	64bb      	str	r3, [r7, #72]	; 0x48
 8009ad8:	687b      	ldr	r3, [r7, #4]
 8009ada:	681b      	ldr	r3, [r3, #0]
 8009adc:	3314      	adds	r3, #20
 8009ade:	6cba      	ldr	r2, [r7, #72]	; 0x48
 8009ae0:	62fa      	str	r2, [r7, #44]	; 0x2c
 8009ae2:	62bb      	str	r3, [r7, #40]	; 0x28
   __ASM volatile ("strex %0, %2, %1" : "=&r" (result), "=Q" (*addr) : "r" (value) );
 8009ae4:	6ab9      	ldr	r1, [r7, #40]	; 0x28
 8009ae6:	6afa      	ldr	r2, [r7, #44]	; 0x2c
 8009ae8:	e841 2300 	strex	r3, r2, [r1]
 8009aec:	627b      	str	r3, [r7, #36]	; 0x24
   return(result);
 8009aee:	6a7b      	ldr	r3, [r7, #36]	; 0x24
 8009af0:	2b00      	cmp	r3, #0
 8009af2:	d1e5      	bne.n	8009ac0 <UART_EndRxTransfer+0x3c>

  /* In case of reception waiting for IDLE event, disable also the IDLE IE interrupt source */
  if (huart->ReceptionType == HAL_UART_RECEPTION_TOIDLE)
 8009af4:	687b      	ldr	r3, [r7, #4]
 8009af6:	6b1b      	ldr	r3, [r3, #48]	; 0x30
 8009af8:	2b01      	cmp	r3, #1
 8009afa:	d119      	bne.n	8009b30 <UART_EndRxTransfer+0xac>
  {
    ATOMIC_CLEAR_BIT(huart->Instance->CR1, USART_CR1_IDLEIE);
 8009afc:	687b      	ldr	r3, [r7, #4]
 8009afe:	681b      	ldr	r3, [r3, #0]
 8009b00:	330c      	adds	r3, #12
 8009b02:	60fb      	str	r3, [r7, #12]
   __ASM volatile ("ldrex %0, %1" : "=r" (result) : "Q" (*addr) );
 8009b04:	68fb      	ldr	r3, [r7, #12]
 8009b06:	e853 3f00 	ldrex	r3, [r3]
 8009b0a:	60bb      	str	r3, [r7, #8]
   return(result);
 8009b0c:	68bb      	ldr	r3, [r7, #8]
 8009b0e:	f023 0310 	bic.w	r3, r3, #16
 8009b12:	647b      	str	r3, [r7, #68]	; 0x44
 8009b14:	687b      	ldr	r3, [r7, #4]
 8009b16:	681b      	ldr	r3, [r3, #0]
 8009b18:	330c      	adds	r3, #12
 8009b1a:	6c7a      	ldr	r2, [r7, #68]	; 0x44
 8009b1c:	61ba      	str	r2, [r7, #24]
 8009b1e:	617b      	str	r3, [r7, #20]
   __ASM volatile ("strex %0, %2, %1" : "=&r" (result), "=Q" (*addr) : "r" (value) );
 8009b20:	6979      	ldr	r1, [r7, #20]
 8009b22:	69ba      	ldr	r2, [r7, #24]
 8009b24:	e841 2300 	strex	r3, r2, [r1]
 8009b28:	613b      	str	r3, [r7, #16]
   return(result);
 8009b2a:	693b      	ldr	r3, [r7, #16]
 8009b2c:	2b00      	cmp	r3, #0
 8009b2e:	d1e5      	bne.n	8009afc <UART_EndRxTransfer+0x78>
  }

  /* At end of Rx process, restore huart->RxState to Ready */
  huart->RxState = HAL_UART_STATE_READY;
 8009b30:	687b      	ldr	r3, [r7, #4]
 8009b32:	2220      	movs	r2, #32
 8009b34:	f883 203e 	strb.w	r2, [r3, #62]	; 0x3e
  huart->ReceptionType = HAL_UART_RECEPTION_STANDARD;
 8009b38:	687b      	ldr	r3, [r7, #4]
 8009b3a:	2200      	movs	r2, #0
 8009b3c:	631a      	str	r2, [r3, #48]	; 0x30
}
 8009b3e:	bf00      	nop
 8009b40:	3754      	adds	r7, #84	; 0x54
 8009b42:	46bd      	mov	sp, r7
 8009b44:	f85d 7b04 	ldr.w	r7, [sp], #4
 8009b48:	4770      	bx	lr

08009b4a <UART_DMAAbortOnError>:
  * @param  hdma  Pointer to a DMA_HandleTypeDef structure that contains
  *               the configuration information for the specified DMA module.
  * @retval None
  */
static void UART_DMAAbortOnError(DMA_HandleTypeDef *hdma)
{
 8009b4a:	b580      	push	{r7, lr}
 8009b4c:	b084      	sub	sp, #16
 8009b4e:	af00      	add	r7, sp, #0
 8009b50:	6078      	str	r0, [r7, #4]
  UART_HandleTypeDef *huart = (UART_HandleTypeDef *)((DMA_HandleTypeDef *)hdma)->Parent;
 8009b52:	687b      	ldr	r3, [r7, #4]
 8009b54:	6b9b      	ldr	r3, [r3, #56]	; 0x38
 8009b56:	60fb      	str	r3, [r7, #12]
  huart->RxXferCount = 0x00U;
 8009b58:	68fb      	ldr	r3, [r7, #12]
 8009b5a:	2200      	movs	r2, #0
 8009b5c:	85da      	strh	r2, [r3, #46]	; 0x2e
  huart->TxXferCount = 0x00U;
 8009b5e:	68fb      	ldr	r3, [r7, #12]
 8009b60:	2200      	movs	r2, #0
 8009b62:	84da      	strh	r2, [r3, #38]	; 0x26
#if (USE_HAL_UART_REGISTER_CALLBACKS == 1)
  /*Call registered error callback*/
  huart->ErrorCallback(huart);
#else
  /*Call legacy weak error callback*/
  HAL_UART_ErrorCallback(huart);
 8009b64:	68f8      	ldr	r0, [r7, #12]
 8009b66:	f7ff fd61 	bl	800962c <HAL_UART_ErrorCallback>
#endif /* USE_HAL_UART_REGISTER_CALLBACKS */
}
 8009b6a:	bf00      	nop
 8009b6c:	3710      	adds	r7, #16
 8009b6e:	46bd      	mov	sp, r7
 8009b70:	bd80      	pop	{r7, pc}

08009b72 <UART_Transmit_IT>:
  * @param  huart  Pointer to a UART_HandleTypeDef structure that contains
  *                the configuration information for the specified UART module.
  * @retval HAL status
  */
static HAL_StatusTypeDef UART_Transmit_IT(UART_HandleTypeDef *huart)
{
 8009b72:	b480      	push	{r7}
 8009b74:	b085      	sub	sp, #20
 8009b76:	af00      	add	r7, sp, #0
 8009b78:	6078      	str	r0, [r7, #4]
  uint16_t *tmp;

  /* Check that a Tx process is ongoing */
  if (huart->gState == HAL_UART_STATE_BUSY_TX)
 8009b7a:	687b      	ldr	r3, [r7, #4]
 8009b7c:	f893 303d 	ldrb.w	r3, [r3, #61]	; 0x3d
 8009b80:	b2db      	uxtb	r3, r3
 8009b82:	2b21      	cmp	r3, #33	; 0x21
 8009b84:	d13e      	bne.n	8009c04 <UART_Transmit_IT+0x92>
  {
    if ((huart->Init.WordLength == UART_WORDLENGTH_9B) && (huart->Init.Parity == UART_PARITY_NONE))
 8009b86:	687b      	ldr	r3, [r7, #4]
 8009b88:	689b      	ldr	r3, [r3, #8]
 8009b8a:	f5b3 5f80 	cmp.w	r3, #4096	; 0x1000
 8009b8e:	d114      	bne.n	8009bba <UART_Transmit_IT+0x48>
 8009b90:	687b      	ldr	r3, [r7, #4]
 8009b92:	691b      	ldr	r3, [r3, #16]
 8009b94:	2b00      	cmp	r3, #0
 8009b96:	d110      	bne.n	8009bba <UART_Transmit_IT+0x48>
    {
      tmp = (uint16_t *) huart->pTxBuffPtr;
 8009b98:	687b      	ldr	r3, [r7, #4]
 8009b9a:	6a1b      	ldr	r3, [r3, #32]
 8009b9c:	60fb      	str	r3, [r7, #12]
      huart->Instance->DR = (uint16_t)(*tmp & (uint16_t)0x01FF);
 8009b9e:	68fb      	ldr	r3, [r7, #12]
 8009ba0:	881b      	ldrh	r3, [r3, #0]
 8009ba2:	461a      	mov	r2, r3
 8009ba4:	687b      	ldr	r3, [r7, #4]
 8009ba6:	681b      	ldr	r3, [r3, #0]
 8009ba8:	f3c2 0208 	ubfx	r2, r2, #0, #9
 8009bac:	605a      	str	r2, [r3, #4]
      huart->pTxBuffPtr += 2U;
 8009bae:	687b      	ldr	r3, [r7, #4]
 8009bb0:	6a1b      	ldr	r3, [r3, #32]
 8009bb2:	1c9a      	adds	r2, r3, #2
 8009bb4:	687b      	ldr	r3, [r7, #4]
 8009bb6:	621a      	str	r2, [r3, #32]
 8009bb8:	e008      	b.n	8009bcc <UART_Transmit_IT+0x5a>
    }
    else
    {
      huart->Instance->DR = (uint8_t)(*huart->pTxBuffPtr++ & (uint8_t)0x00FF);
 8009bba:	687b      	ldr	r3, [r7, #4]
 8009bbc:	6a1b      	ldr	r3, [r3, #32]
 8009bbe:	1c59      	adds	r1, r3, #1
 8009bc0:	687a      	ldr	r2, [r7, #4]
 8009bc2:	6211      	str	r1, [r2, #32]
 8009bc4:	781a      	ldrb	r2, [r3, #0]
 8009bc6:	687b      	ldr	r3, [r7, #4]
 8009bc8:	681b      	ldr	r3, [r3, #0]
 8009bca:	605a      	str	r2, [r3, #4]
    }

    if (--huart->TxXferCount == 0U)
 8009bcc:	687b      	ldr	r3, [r7, #4]
 8009bce:	8cdb      	ldrh	r3, [r3, #38]	; 0x26
 8009bd0:	b29b      	uxth	r3, r3
 8009bd2:	3b01      	subs	r3, #1
 8009bd4:	b29b      	uxth	r3, r3
 8009bd6:	687a      	ldr	r2, [r7, #4]
 8009bd8:	4619      	mov	r1, r3
 8009bda:	84d1      	strh	r1, [r2, #38]	; 0x26
 8009bdc:	2b00      	cmp	r3, #0
 8009bde:	d10f      	bne.n	8009c00 <UART_Transmit_IT+0x8e>
    {
      /* Disable the UART Transmit Complete Interrupt */
      __HAL_UART_DISABLE_IT(huart, UART_IT_TXE);
 8009be0:	687b      	ldr	r3, [r7, #4]
 8009be2:	681b      	ldr	r3, [r3, #0]
 8009be4:	68da      	ldr	r2, [r3, #12]
 8009be6:	687b      	ldr	r3, [r7, #4]
 8009be8:	681b      	ldr	r3, [r3, #0]
 8009bea:	f022 0280 	bic.w	r2, r2, #128	; 0x80
 8009bee:	60da      	str	r2, [r3, #12]

      /* Enable the UART Transmit Complete Interrupt */
      __HAL_UART_ENABLE_IT(huart, UART_IT_TC);
 8009bf0:	687b      	ldr	r3, [r7, #4]
 8009bf2:	681b      	ldr	r3, [r3, #0]
 8009bf4:	68da      	ldr	r2, [r3, #12]
 8009bf6:	687b      	ldr	r3, [r7, #4]
 8009bf8:	681b      	ldr	r3, [r3, #0]
 8009bfa:	f042 0240 	orr.w	r2, r2, #64	; 0x40
 8009bfe:	60da      	str	r2, [r3, #12]
    }
    return HAL_OK;
 8009c00:	2300      	movs	r3, #0
 8009c02:	e000      	b.n	8009c06 <UART_Transmit_IT+0x94>
  }
  else
  {
    return HAL_BUSY;
 8009c04:	2302      	movs	r3, #2
  }
}
 8009c06:	4618      	mov	r0, r3
 8009c08:	3714      	adds	r7, #20
 8009c0a:	46bd      	mov	sp, r7
 8009c0c:	f85d 7b04 	ldr.w	r7, [sp], #4
 8009c10:	4770      	bx	lr

08009c12 <UART_EndTransmit_IT>:
  * @param  huart  Pointer to a UART_HandleTypeDef structure that contains
  *                the configuration information for the specified UART module.
  * @retval HAL status
  */
static HAL_StatusTypeDef UART_EndTransmit_IT(UART_HandleTypeDef *huart)
{
 8009c12:	b580      	push	{r7, lr}
 8009c14:	b082      	sub	sp, #8
 8009c16:	af00      	add	r7, sp, #0
 8009c18:	6078      	str	r0, [r7, #4]
  /* Disable the UART Transmit Complete Interrupt */
  __HAL_UART_DISABLE_IT(huart, UART_IT_TC);
 8009c1a:	687b      	ldr	r3, [r7, #4]
 8009c1c:	681b      	ldr	r3, [r3, #0]
 8009c1e:	68da      	ldr	r2, [r3, #12]
 8009c20:	687b      	ldr	r3, [r7, #4]
 8009c22:	681b      	ldr	r3, [r3, #0]
 8009c24:	f022 0240 	bic.w	r2, r2, #64	; 0x40
 8009c28:	60da      	str	r2, [r3, #12]

  /* Tx process is ended, restore huart->gState to Ready */
  huart->gState = HAL_UART_STATE_READY;
 8009c2a:	687b      	ldr	r3, [r7, #4]
 8009c2c:	2220      	movs	r2, #32
 8009c2e:	f883 203d 	strb.w	r2, [r3, #61]	; 0x3d
#if (USE_HAL_UART_REGISTER_CALLBACKS == 1)
  /*Call registered Tx complete callback*/
  huart->TxCpltCallback(huart);
#else
  /*Call legacy weak Tx complete callback*/
  HAL_UART_TxCpltCallback(huart);
 8009c32:	6878      	ldr	r0, [r7, #4]
 8009c34:	f7ff fcdc 	bl	80095f0 <HAL_UART_TxCpltCallback>
#endif /* USE_HAL_UART_REGISTER_CALLBACKS */

  return HAL_OK;
 8009c38:	2300      	movs	r3, #0
}
 8009c3a:	4618      	mov	r0, r3
 8009c3c:	3708      	adds	r7, #8
 8009c3e:	46bd      	mov	sp, r7
 8009c40:	bd80      	pop	{r7, pc}

08009c42 <UART_Receive_IT>:
  * @param  huart  Pointer to a UART_HandleTypeDef structure that contains
  *                the configuration information for the specified UART module.
  * @retval HAL status
  */
static HAL_StatusTypeDef UART_Receive_IT(UART_HandleTypeDef *huart)
{
 8009c42:	b580      	push	{r7, lr}
 8009c44:	b08c      	sub	sp, #48	; 0x30
 8009c46:	af00      	add	r7, sp, #0
 8009c48:	6078      	str	r0, [r7, #4]
  uint8_t  *pdata8bits;
  uint16_t *pdata16bits;

  /* Check that a Rx process is ongoing */
  if (huart->RxState == HAL_UART_STATE_BUSY_RX)
 8009c4a:	687b      	ldr	r3, [r7, #4]
 8009c4c:	f893 303e 	ldrb.w	r3, [r3, #62]	; 0x3e
 8009c50:	b2db      	uxtb	r3, r3
 8009c52:	2b22      	cmp	r3, #34	; 0x22
 8009c54:	f040 80ab 	bne.w	8009dae <UART_Receive_IT+0x16c>
  {
    if ((huart->Init.WordLength == UART_WORDLENGTH_9B) && (huart->Init.Parity == UART_PARITY_NONE))
 8009c58:	687b      	ldr	r3, [r7, #4]
 8009c5a:	689b      	ldr	r3, [r3, #8]
 8009c5c:	f5b3 5f80 	cmp.w	r3, #4096	; 0x1000
 8009c60:	d117      	bne.n	8009c92 <UART_Receive_IT+0x50>
 8009c62:	687b      	ldr	r3, [r7, #4]
 8009c64:	691b      	ldr	r3, [r3, #16]
 8009c66:	2b00      	cmp	r3, #0
 8009c68:	d113      	bne.n	8009c92 <UART_Receive_IT+0x50>
    {
      pdata8bits  = NULL;
 8009c6a:	2300      	movs	r3, #0
 8009c6c:	62fb      	str	r3, [r7, #44]	; 0x2c
      pdata16bits = (uint16_t *) huart->pRxBuffPtr;
 8009c6e:	687b      	ldr	r3, [r7, #4]
 8009c70:	6a9b      	ldr	r3, [r3, #40]	; 0x28
 8009c72:	62bb      	str	r3, [r7, #40]	; 0x28
      *pdata16bits = (uint16_t)(huart->Instance->DR & (uint16_t)0x01FF);
 8009c74:	687b      	ldr	r3, [r7, #4]
 8009c76:	681b      	ldr	r3, [r3, #0]
 8009c78:	685b      	ldr	r3, [r3, #4]
 8009c7a:	b29b      	uxth	r3, r3
 8009c7c:	f3c3 0308 	ubfx	r3, r3, #0, #9
 8009c80:	b29a      	uxth	r2, r3
 8009c82:	6abb      	ldr	r3, [r7, #40]	; 0x28
 8009c84:	801a      	strh	r2, [r3, #0]
      huart->pRxBuffPtr += 2U;
 8009c86:	687b      	ldr	r3, [r7, #4]
 8009c88:	6a9b      	ldr	r3, [r3, #40]	; 0x28
 8009c8a:	1c9a      	adds	r2, r3, #2
 8009c8c:	687b      	ldr	r3, [r7, #4]
 8009c8e:	629a      	str	r2, [r3, #40]	; 0x28
 8009c90:	e026      	b.n	8009ce0 <UART_Receive_IT+0x9e>
    }
    else
    {
      pdata8bits = (uint8_t *) huart->pRxBuffPtr;
 8009c92:	687b      	ldr	r3, [r7, #4]
 8009c94:	6a9b      	ldr	r3, [r3, #40]	; 0x28
 8009c96:	62fb      	str	r3, [r7, #44]	; 0x2c
      pdata16bits  = NULL;
 8009c98:	2300      	movs	r3, #0
 8009c9a:	62bb      	str	r3, [r7, #40]	; 0x28

      if ((huart->Init.WordLength == UART_WORDLENGTH_9B) || ((huart->Init.WordLength == UART_WORDLENGTH_8B) && (huart->Init.Parity == UART_PARITY_NONE)))
 8009c9c:	687b      	ldr	r3, [r7, #4]
 8009c9e:	689b      	ldr	r3, [r3, #8]
 8009ca0:	f5b3 5f80 	cmp.w	r3, #4096	; 0x1000
 8009ca4:	d007      	beq.n	8009cb6 <UART_Receive_IT+0x74>
 8009ca6:	687b      	ldr	r3, [r7, #4]
 8009ca8:	689b      	ldr	r3, [r3, #8]
 8009caa:	2b00      	cmp	r3, #0
 8009cac:	d10a      	bne.n	8009cc4 <UART_Receive_IT+0x82>
 8009cae:	687b      	ldr	r3, [r7, #4]
 8009cb0:	691b      	ldr	r3, [r3, #16]
 8009cb2:	2b00      	cmp	r3, #0
 8009cb4:	d106      	bne.n	8009cc4 <UART_Receive_IT+0x82>
      {
        *pdata8bits = (uint8_t)(huart->Instance->DR & (uint8_t)0x00FF);
 8009cb6:	687b      	ldr	r3, [r7, #4]
 8009cb8:	681b      	ldr	r3, [r3, #0]
 8009cba:	685b      	ldr	r3, [r3, #4]
 8009cbc:	b2da      	uxtb	r2, r3
 8009cbe:	6afb      	ldr	r3, [r7, #44]	; 0x2c
 8009cc0:	701a      	strb	r2, [r3, #0]
 8009cc2:	e008      	b.n	8009cd6 <UART_Receive_IT+0x94>
      }
      else
      {
        *pdata8bits = (uint8_t)(huart->Instance->DR & (uint8_t)0x007F);
 8009cc4:	687b      	ldr	r3, [r7, #4]
 8009cc6:	681b      	ldr	r3, [r3, #0]
 8009cc8:	685b      	ldr	r3, [r3, #4]
 8009cca:	b2db      	uxtb	r3, r3
 8009ccc:	f003 037f 	and.w	r3, r3, #127	; 0x7f
 8009cd0:	b2da      	uxtb	r2, r3
 8009cd2:	6afb      	ldr	r3, [r7, #44]	; 0x2c
 8009cd4:	701a      	strb	r2, [r3, #0]
      }
      huart->pRxBuffPtr += 1U;
 8009cd6:	687b      	ldr	r3, [r7, #4]
 8009cd8:	6a9b      	ldr	r3, [r3, #40]	; 0x28
 8009cda:	1c5a      	adds	r2, r3, #1
 8009cdc:	687b      	ldr	r3, [r7, #4]
 8009cde:	629a      	str	r2, [r3, #40]	; 0x28
    }

    if (--huart->RxXferCount == 0U)
 8009ce0:	687b      	ldr	r3, [r7, #4]
 8009ce2:	8ddb      	ldrh	r3, [r3, #46]	; 0x2e
 8009ce4:	b29b      	uxth	r3, r3
 8009ce6:	3b01      	subs	r3, #1
 8009ce8:	b29b      	uxth	r3, r3
 8009cea:	687a      	ldr	r2, [r7, #4]
 8009cec:	4619      	mov	r1, r3
 8009cee:	85d1      	strh	r1, [r2, #46]	; 0x2e
 8009cf0:	2b00      	cmp	r3, #0
 8009cf2:	d15a      	bne.n	8009daa <UART_Receive_IT+0x168>
    {
      /* Disable the UART Data Register not empty Interrupt */
      __HAL_UART_DISABLE_IT(huart, UART_IT_RXNE);
 8009cf4:	687b      	ldr	r3, [r7, #4]
 8009cf6:	681b      	ldr	r3, [r3, #0]
 8009cf8:	68da      	ldr	r2, [r3, #12]
 8009cfa:	687b      	ldr	r3, [r7, #4]
 8009cfc:	681b      	ldr	r3, [r3, #0]
 8009cfe:	f022 0220 	bic.w	r2, r2, #32
 8009d02:	60da      	str	r2, [r3, #12]

      /* Disable the UART Parity Error Interrupt */
      __HAL_UART_DISABLE_IT(huart, UART_IT_PE);
 8009d04:	687b      	ldr	r3, [r7, #4]
 8009d06:	681b      	ldr	r3, [r3, #0]
 8009d08:	68da      	ldr	r2, [r3, #12]
 8009d0a:	687b      	ldr	r3, [r7, #4]
 8009d0c:	681b      	ldr	r3, [r3, #0]
 8009d0e:	f422 7280 	bic.w	r2, r2, #256	; 0x100
 8009d12:	60da      	str	r2, [r3, #12]

      /* Disable the UART Error Interrupt: (Frame error, noise error, overrun error) */
      __HAL_UART_DISABLE_IT(huart, UART_IT_ERR);
 8009d14:	687b      	ldr	r3, [r7, #4]
 8009d16:	681b      	ldr	r3, [r3, #0]
 8009d18:	695a      	ldr	r2, [r3, #20]
 8009d1a:	687b      	ldr	r3, [r7, #4]
 8009d1c:	681b      	ldr	r3, [r3, #0]
 8009d1e:	f022 0201 	bic.w	r2, r2, #1
 8009d22:	615a      	str	r2, [r3, #20]

      /* Rx process is completed, restore huart->RxState to Ready */
      huart->RxState = HAL_UART_STATE_READY;
 8009d24:	687b      	ldr	r3, [r7, #4]
 8009d26:	2220      	movs	r2, #32
 8009d28:	f883 203e 	strb.w	r2, [r3, #62]	; 0x3e

      /* Check current reception Mode :
         If Reception till IDLE event has been selected : */
      if (huart->ReceptionType == HAL_UART_RECEPTION_TOIDLE)
 8009d2c:	687b      	ldr	r3, [r7, #4]
 8009d2e:	6b1b      	ldr	r3, [r3, #48]	; 0x30
 8009d30:	2b01      	cmp	r3, #1
 8009d32:	d135      	bne.n	8009da0 <UART_Receive_IT+0x15e>
      {
        /* Set reception type to Standard */
        huart->ReceptionType = HAL_UART_RECEPTION_STANDARD;
 8009d34:	687b      	ldr	r3, [r7, #4]
 8009d36:	2200      	movs	r2, #0
 8009d38:	631a      	str	r2, [r3, #48]	; 0x30

        /* Disable IDLE interrupt */
        ATOMIC_CLEAR_BIT(huart->Instance->CR1, USART_CR1_IDLEIE);
 8009d3a:	687b      	ldr	r3, [r7, #4]
 8009d3c:	681b      	ldr	r3, [r3, #0]
 8009d3e:	330c      	adds	r3, #12
 8009d40:	617b      	str	r3, [r7, #20]
   __ASM volatile ("ldrex %0, %1" : "=r" (result) : "Q" (*addr) );
 8009d42:	697b      	ldr	r3, [r7, #20]
 8009d44:	e853 3f00 	ldrex	r3, [r3]
 8009d48:	613b      	str	r3, [r7, #16]
   return(result);
 8009d4a:	693b      	ldr	r3, [r7, #16]
 8009d4c:	f023 0310 	bic.w	r3, r3, #16
 8009d50:	627b      	str	r3, [r7, #36]	; 0x24
 8009d52:	687b      	ldr	r3, [r7, #4]
 8009d54:	681b      	ldr	r3, [r3, #0]
 8009d56:	330c      	adds	r3, #12
 8009d58:	6a7a      	ldr	r2, [r7, #36]	; 0x24
 8009d5a:	623a      	str	r2, [r7, #32]
 8009d5c:	61fb      	str	r3, [r7, #28]
   __ASM volatile ("strex %0, %2, %1" : "=&r" (result), "=Q" (*addr) : "r" (value) );
 8009d5e:	69f9      	ldr	r1, [r7, #28]
 8009d60:	6a3a      	ldr	r2, [r7, #32]
 8009d62:	e841 2300 	strex	r3, r2, [r1]
 8009d66:	61bb      	str	r3, [r7, #24]
   return(result);
 8009d68:	69bb      	ldr	r3, [r7, #24]
 8009d6a:	2b00      	cmp	r3, #0
 8009d6c:	d1e5      	bne.n	8009d3a <UART_Receive_IT+0xf8>

        /* Check if IDLE flag is set */
        if (__HAL_UART_GET_FLAG(huart, UART_FLAG_IDLE))
 8009d6e:	687b      	ldr	r3, [r7, #4]
 8009d70:	681b      	ldr	r3, [r3, #0]
 8009d72:	681b      	ldr	r3, [r3, #0]
 8009d74:	f003 0310 	and.w	r3, r3, #16
 8009d78:	2b10      	cmp	r3, #16
 8009d7a:	d10a      	bne.n	8009d92 <UART_Receive_IT+0x150>
        {
          /* Clear IDLE flag in ISR */
          __HAL_UART_CLEAR_IDLEFLAG(huart);
 8009d7c:	2300      	movs	r3, #0
 8009d7e:	60fb      	str	r3, [r7, #12]
 8009d80:	687b      	ldr	r3, [r7, #4]
 8009d82:	681b      	ldr	r3, [r3, #0]
 8009d84:	681b      	ldr	r3, [r3, #0]
 8009d86:	60fb      	str	r3, [r7, #12]
 8009d88:	687b      	ldr	r3, [r7, #4]
 8009d8a:	681b      	ldr	r3, [r3, #0]
 8009d8c:	685b      	ldr	r3, [r3, #4]
 8009d8e:	60fb      	str	r3, [r7, #12]
 8009d90:	68fb      	ldr	r3, [r7, #12]
#if (USE_HAL_UART_REGISTER_CALLBACKS == 1)
        /*Call registered Rx Event callback*/
        huart->RxEventCallback(huart, huart->RxXferSize);
#else
        /*Call legacy weak Rx Event callback*/
        HAL_UARTEx_RxEventCallback(huart, huart->RxXferSize);
 8009d92:	687b      	ldr	r3, [r7, #4]
 8009d94:	8d9b      	ldrh	r3, [r3, #44]	; 0x2c
 8009d96:	4619      	mov	r1, r3
 8009d98:	6878      	ldr	r0, [r7, #4]
 8009d9a:	f7ff fc51 	bl	8009640 <HAL_UARTEx_RxEventCallback>
 8009d9e:	e002      	b.n	8009da6 <UART_Receive_IT+0x164>
#if (USE_HAL_UART_REGISTER_CALLBACKS == 1)
        /*Call registered Rx complete callback*/
        huart->RxCpltCallback(huart);
#else
        /*Call legacy weak Rx complete callback*/
        HAL_UART_RxCpltCallback(huart);
 8009da0:	6878      	ldr	r0, [r7, #4]
 8009da2:	f7f9 fbe7 	bl	8003574 <HAL_UART_RxCpltCallback>
#endif /* USE_HAL_UART_REGISTER_CALLBACKS */
      }

      return HAL_OK;
 8009da6:	2300      	movs	r3, #0
 8009da8:	e002      	b.n	8009db0 <UART_Receive_IT+0x16e>
    }
    return HAL_OK;
 8009daa:	2300      	movs	r3, #0
 8009dac:	e000      	b.n	8009db0 <UART_Receive_IT+0x16e>
  }
  else
  {
    return HAL_BUSY;
 8009dae:	2302      	movs	r3, #2
  }
}
 8009db0:	4618      	mov	r0, r3
 8009db2:	3730      	adds	r7, #48	; 0x30
 8009db4:	46bd      	mov	sp, r7
 8009db6:	bd80      	pop	{r7, pc}

08009db8 <UART_SetConfig>:
  * @param  huart  Pointer to a UART_HandleTypeDef structure that contains
  *                the configuration information for the specified UART module.
  * @retval None
  */
static void UART_SetConfig(UART_HandleTypeDef *huart)
{
 8009db8:	e92d 4ff0 	stmdb	sp!, {r4, r5, r6, r7, r8, r9, sl, fp, lr}
 8009dbc:	b09f      	sub	sp, #124	; 0x7c
 8009dbe:	af00      	add	r7, sp, #0
 8009dc0:	66f8      	str	r0, [r7, #108]	; 0x6c
  assert_param(IS_UART_MODE(huart->Init.Mode));

  /*-------------------------- USART CR2 Configuration -----------------------*/
  /* Configure the UART Stop Bits: Set STOP[13:12] bits
     according to huart->Init.StopBits value */
  MODIFY_REG(huart->Instance->CR2, USART_CR2_STOP, huart->Init.StopBits);
 8009dc2:	6efb      	ldr	r3, [r7, #108]	; 0x6c
 8009dc4:	681b      	ldr	r3, [r3, #0]
 8009dc6:	691b      	ldr	r3, [r3, #16]
 8009dc8:	f423 5040 	bic.w	r0, r3, #12288	; 0x3000
 8009dcc:	6efb      	ldr	r3, [r7, #108]	; 0x6c
 8009dce:	68d9      	ldr	r1, [r3, #12]
 8009dd0:	6efb      	ldr	r3, [r7, #108]	; 0x6c
 8009dd2:	681a      	ldr	r2, [r3, #0]
 8009dd4:	ea40 0301 	orr.w	r3, r0, r1
 8009dd8:	6113      	str	r3, [r2, #16]
     Set the M bits according to huart->Init.WordLength value
     Set PCE and PS bits according to huart->Init.Parity value
     Set TE and RE bits according to huart->Init.Mode value
     Set OVER8 bit according to huart->Init.OverSampling value */

  tmpreg = (uint32_t)huart->Init.WordLength | huart->Init.Parity | huart->Init.Mode | huart->Init.OverSampling;
 8009dda:	6efb      	ldr	r3, [r7, #108]	; 0x6c
 8009ddc:	689a      	ldr	r2, [r3, #8]
 8009dde:	6efb      	ldr	r3, [r7, #108]	; 0x6c
 8009de0:	691b      	ldr	r3, [r3, #16]
 8009de2:	431a      	orrs	r2, r3
 8009de4:	6efb      	ldr	r3, [r7, #108]	; 0x6c
 8009de6:	695b      	ldr	r3, [r3, #20]
 8009de8:	431a      	orrs	r2, r3
 8009dea:	6efb      	ldr	r3, [r7, #108]	; 0x6c
 8009dec:	69db      	ldr	r3, [r3, #28]
 8009dee:	4313      	orrs	r3, r2
 8009df0:	673b      	str	r3, [r7, #112]	; 0x70
  MODIFY_REG(huart->Instance->CR1,
 8009df2:	6efb      	ldr	r3, [r7, #108]	; 0x6c
 8009df4:	681b      	ldr	r3, [r3, #0]
 8009df6:	68db      	ldr	r3, [r3, #12]
 8009df8:	f423 4116 	bic.w	r1, r3, #38400	; 0x9600
 8009dfc:	f021 010c 	bic.w	r1, r1, #12
 8009e00:	6efb      	ldr	r3, [r7, #108]	; 0x6c
 8009e02:	681a      	ldr	r2, [r3, #0]
 8009e04:	6f3b      	ldr	r3, [r7, #112]	; 0x70
 8009e06:	430b      	orrs	r3, r1
 8009e08:	60d3      	str	r3, [r2, #12]
             (uint32_t)(USART_CR1_M | USART_CR1_PCE | USART_CR1_PS | USART_CR1_TE | USART_CR1_RE | USART_CR1_OVER8),
             tmpreg);

  /*-------------------------- USART CR3 Configuration -----------------------*/
  /* Configure the UART HFC: Set CTSE and RTSE bits according to huart->Init.HwFlowCtl value */
  MODIFY_REG(huart->Instance->CR3, (USART_CR3_RTSE | USART_CR3_CTSE), huart->Init.HwFlowCtl);
 8009e0a:	6efb      	ldr	r3, [r7, #108]	; 0x6c
 8009e0c:	681b      	ldr	r3, [r3, #0]
 8009e0e:	695b      	ldr	r3, [r3, #20]
 8009e10:	f423 7040 	bic.w	r0, r3, #768	; 0x300
 8009e14:	6efb      	ldr	r3, [r7, #108]	; 0x6c
 8009e16:	6999      	ldr	r1, [r3, #24]
 8009e18:	6efb      	ldr	r3, [r7, #108]	; 0x6c
 8009e1a:	681a      	ldr	r2, [r3, #0]
 8009e1c:	ea40 0301 	orr.w	r3, r0, r1
 8009e20:	6153      	str	r3, [r2, #20]
    if ((huart->Instance == USART1) || (huart->Instance == USART6) || (huart->Instance == UART9) || (huart->Instance == UART10))
    {
      pclk = HAL_RCC_GetPCLK2Freq();
    }
#elif defined(USART6)
    if ((huart->Instance == USART1) || (huart->Instance == USART6))
 8009e22:	6efb      	ldr	r3, [r7, #108]	; 0x6c
 8009e24:	681a      	ldr	r2, [r3, #0]
 8009e26:	4bc5      	ldr	r3, [pc, #788]	; (800a13c <UART_SetConfig+0x384>)
 8009e28:	429a      	cmp	r2, r3
 8009e2a:	d004      	beq.n	8009e36 <UART_SetConfig+0x7e>
 8009e2c:	6efb      	ldr	r3, [r7, #108]	; 0x6c
 8009e2e:	681a      	ldr	r2, [r3, #0]
 8009e30:	4bc3      	ldr	r3, [pc, #780]	; (800a140 <UART_SetConfig+0x388>)
 8009e32:	429a      	cmp	r2, r3
 8009e34:	d103      	bne.n	8009e3e <UART_SetConfig+0x86>
    {
      pclk = HAL_RCC_GetPCLK2Freq();
 8009e36:	f7fd fcfd 	bl	8007834 <HAL_RCC_GetPCLK2Freq>
 8009e3a:	6778      	str	r0, [r7, #116]	; 0x74
 8009e3c:	e002      	b.n	8009e44 <UART_SetConfig+0x8c>
      pclk = HAL_RCC_GetPCLK2Freq();
    }
#endif /* USART6 */
    else
    {
      pclk = HAL_RCC_GetPCLK1Freq();
 8009e3e:	f7fd fce5 	bl	800780c <HAL_RCC_GetPCLK1Freq>
 8009e42:	6778      	str	r0, [r7, #116]	; 0x74
    }
  /*-------------------------- USART BRR Configuration ---------------------*/
  if (huart->Init.OverSampling == UART_OVERSAMPLING_8)
 8009e44:	6efb      	ldr	r3, [r7, #108]	; 0x6c
 8009e46:	69db      	ldr	r3, [r3, #28]
 8009e48:	f5b3 4f00 	cmp.w	r3, #32768	; 0x8000
 8009e4c:	f040 80b6 	bne.w	8009fbc <UART_SetConfig+0x204>
  {
    huart->Instance->BRR = UART_BRR_SAMPLING8(pclk, huart->Init.BaudRate);
 8009e50:	6f7b      	ldr	r3, [r7, #116]	; 0x74
 8009e52:	461c      	mov	r4, r3
 8009e54:	f04f 0500 	mov.w	r5, #0
 8009e58:	4622      	mov	r2, r4
 8009e5a:	462b      	mov	r3, r5
 8009e5c:	1891      	adds	r1, r2, r2
 8009e5e:	6439      	str	r1, [r7, #64]	; 0x40
 8009e60:	415b      	adcs	r3, r3
 8009e62:	647b      	str	r3, [r7, #68]	; 0x44
 8009e64:	e9d7 2310 	ldrd	r2, r3, [r7, #64]	; 0x40
 8009e68:	1912      	adds	r2, r2, r4
 8009e6a:	eb45 0303 	adc.w	r3, r5, r3
 8009e6e:	f04f 0000 	mov.w	r0, #0
 8009e72:	f04f 0100 	mov.w	r1, #0
 8009e76:	00d9      	lsls	r1, r3, #3
 8009e78:	ea41 7152 	orr.w	r1, r1, r2, lsr #29
 8009e7c:	00d0      	lsls	r0, r2, #3
 8009e7e:	4602      	mov	r2, r0
 8009e80:	460b      	mov	r3, r1
 8009e82:	1911      	adds	r1, r2, r4
 8009e84:	6639      	str	r1, [r7, #96]	; 0x60
 8009e86:	416b      	adcs	r3, r5
 8009e88:	667b      	str	r3, [r7, #100]	; 0x64
 8009e8a:	6efb      	ldr	r3, [r7, #108]	; 0x6c
 8009e8c:	685b      	ldr	r3, [r3, #4]
 8009e8e:	461a      	mov	r2, r3
 8009e90:	f04f 0300 	mov.w	r3, #0
 8009e94:	1891      	adds	r1, r2, r2
 8009e96:	63b9      	str	r1, [r7, #56]	; 0x38
 8009e98:	415b      	adcs	r3, r3
 8009e9a:	63fb      	str	r3, [r7, #60]	; 0x3c
 8009e9c:	e9d7 230e 	ldrd	r2, r3, [r7, #56]	; 0x38
 8009ea0:	e9d7 0118 	ldrd	r0, r1, [r7, #96]	; 0x60
 8009ea4:	f7f6 fe5e 	bl	8000b64 <__aeabi_uldivmod>
 8009ea8:	4602      	mov	r2, r0
 8009eaa:	460b      	mov	r3, r1
 8009eac:	4ba5      	ldr	r3, [pc, #660]	; (800a144 <UART_SetConfig+0x38c>)
 8009eae:	fba3 2302 	umull	r2, r3, r3, r2
 8009eb2:	095b      	lsrs	r3, r3, #5
 8009eb4:	011e      	lsls	r6, r3, #4
 8009eb6:	6f7b      	ldr	r3, [r7, #116]	; 0x74
 8009eb8:	461c      	mov	r4, r3
 8009eba:	f04f 0500 	mov.w	r5, #0
 8009ebe:	4622      	mov	r2, r4
 8009ec0:	462b      	mov	r3, r5
 8009ec2:	1891      	adds	r1, r2, r2
 8009ec4:	6339      	str	r1, [r7, #48]	; 0x30
 8009ec6:	415b      	adcs	r3, r3
 8009ec8:	637b      	str	r3, [r7, #52]	; 0x34
 8009eca:	e9d7 230c 	ldrd	r2, r3, [r7, #48]	; 0x30
 8009ece:	1912      	adds	r2, r2, r4
 8009ed0:	eb45 0303 	adc.w	r3, r5, r3
 8009ed4:	f04f 0000 	mov.w	r0, #0
 8009ed8:	f04f 0100 	mov.w	r1, #0
 8009edc:	00d9      	lsls	r1, r3, #3
 8009ede:	ea41 7152 	orr.w	r1, r1, r2, lsr #29
 8009ee2:	00d0      	lsls	r0, r2, #3
 8009ee4:	4602      	mov	r2, r0
 8009ee6:	460b      	mov	r3, r1
 8009ee8:	1911      	adds	r1, r2, r4
 8009eea:	65b9      	str	r1, [r7, #88]	; 0x58
 8009eec:	416b      	adcs	r3, r5
 8009eee:	65fb      	str	r3, [r7, #92]	; 0x5c
 8009ef0:	6efb      	ldr	r3, [r7, #108]	; 0x6c
 8009ef2:	685b      	ldr	r3, [r3, #4]
 8009ef4:	461a      	mov	r2, r3
 8009ef6:	f04f 0300 	mov.w	r3, #0
 8009efa:	1891      	adds	r1, r2, r2
 8009efc:	62b9      	str	r1, [r7, #40]	; 0x28
 8009efe:	415b      	adcs	r3, r3
 8009f00:	62fb      	str	r3, [r7, #44]	; 0x2c
 8009f02:	e9d7 230a 	ldrd	r2, r3, [r7, #40]	; 0x28
 8009f06:	e9d7 0116 	ldrd	r0, r1, [r7, #88]	; 0x58
 8009f0a:	f7f6 fe2b 	bl	8000b64 <__aeabi_uldivmod>
 8009f0e:	4602      	mov	r2, r0
 8009f10:	460b      	mov	r3, r1
 8009f12:	4b8c      	ldr	r3, [pc, #560]	; (800a144 <UART_SetConfig+0x38c>)
 8009f14:	fba3 1302 	umull	r1, r3, r3, r2
 8009f18:	095b      	lsrs	r3, r3, #5
 8009f1a:	2164      	movs	r1, #100	; 0x64
 8009f1c:	fb01 f303 	mul.w	r3, r1, r3
 8009f20:	1ad3      	subs	r3, r2, r3
 8009f22:	00db      	lsls	r3, r3, #3
 8009f24:	3332      	adds	r3, #50	; 0x32
 8009f26:	4a87      	ldr	r2, [pc, #540]	; (800a144 <UART_SetConfig+0x38c>)
 8009f28:	fba2 2303 	umull	r2, r3, r2, r3
 8009f2c:	095b      	lsrs	r3, r3, #5
 8009f2e:	005b      	lsls	r3, r3, #1
 8009f30:	f403 73f8 	and.w	r3, r3, #496	; 0x1f0
 8009f34:	441e      	add	r6, r3
 8009f36:	6f7b      	ldr	r3, [r7, #116]	; 0x74
 8009f38:	4618      	mov	r0, r3
 8009f3a:	f04f 0100 	mov.w	r1, #0
 8009f3e:	4602      	mov	r2, r0
 8009f40:	460b      	mov	r3, r1
 8009f42:	1894      	adds	r4, r2, r2
 8009f44:	623c      	str	r4, [r7, #32]
 8009f46:	415b      	adcs	r3, r3
 8009f48:	627b      	str	r3, [r7, #36]	; 0x24
 8009f4a:	e9d7 2308 	ldrd	r2, r3, [r7, #32]
 8009f4e:	1812      	adds	r2, r2, r0
 8009f50:	eb41 0303 	adc.w	r3, r1, r3
 8009f54:	f04f 0400 	mov.w	r4, #0
 8009f58:	f04f 0500 	mov.w	r5, #0
 8009f5c:	00dd      	lsls	r5, r3, #3
 8009f5e:	ea45 7552 	orr.w	r5, r5, r2, lsr #29
 8009f62:	00d4      	lsls	r4, r2, #3
 8009f64:	4622      	mov	r2, r4
 8009f66:	462b      	mov	r3, r5
 8009f68:	1814      	adds	r4, r2, r0
 8009f6a:	653c      	str	r4, [r7, #80]	; 0x50
 8009f6c:	414b      	adcs	r3, r1
 8009f6e:	657b      	str	r3, [r7, #84]	; 0x54
 8009f70:	6efb      	ldr	r3, [r7, #108]	; 0x6c
 8009f72:	685b      	ldr	r3, [r3, #4]
 8009f74:	461a      	mov	r2, r3
 8009f76:	f04f 0300 	mov.w	r3, #0
 8009f7a:	1891      	adds	r1, r2, r2
 8009f7c:	61b9      	str	r1, [r7, #24]
 8009f7e:	415b      	adcs	r3, r3
 8009f80:	61fb      	str	r3, [r7, #28]
 8009f82:	e9d7 2306 	ldrd	r2, r3, [r7, #24]
 8009f86:	e9d7 0114 	ldrd	r0, r1, [r7, #80]	; 0x50
 8009f8a:	f7f6 fdeb 	bl	8000b64 <__aeabi_uldivmod>
 8009f8e:	4602      	mov	r2, r0
 8009f90:	460b      	mov	r3, r1
 8009f92:	4b6c      	ldr	r3, [pc, #432]	; (800a144 <UART_SetConfig+0x38c>)
 8009f94:	fba3 1302 	umull	r1, r3, r3, r2
 8009f98:	095b      	lsrs	r3, r3, #5
 8009f9a:	2164      	movs	r1, #100	; 0x64
 8009f9c:	fb01 f303 	mul.w	r3, r1, r3
 8009fa0:	1ad3      	subs	r3, r2, r3
 8009fa2:	00db      	lsls	r3, r3, #3
 8009fa4:	3332      	adds	r3, #50	; 0x32
 8009fa6:	4a67      	ldr	r2, [pc, #412]	; (800a144 <UART_SetConfig+0x38c>)
 8009fa8:	fba2 2303 	umull	r2, r3, r2, r3
 8009fac:	095b      	lsrs	r3, r3, #5
 8009fae:	f003 0207 	and.w	r2, r3, #7
 8009fb2:	6efb      	ldr	r3, [r7, #108]	; 0x6c
 8009fb4:	681b      	ldr	r3, [r3, #0]
 8009fb6:	4432      	add	r2, r6
 8009fb8:	609a      	str	r2, [r3, #8]
  }
  else
  {
    huart->Instance->BRR = UART_BRR_SAMPLING16(pclk, huart->Init.BaudRate);
  }
}
 8009fba:	e0b9      	b.n	800a130 <UART_SetConfig+0x378>
    huart->Instance->BRR = UART_BRR_SAMPLING16(pclk, huart->Init.BaudRate);
 8009fbc:	6f7b      	ldr	r3, [r7, #116]	; 0x74
 8009fbe:	461c      	mov	r4, r3
 8009fc0:	f04f 0500 	mov.w	r5, #0
 8009fc4:	4622      	mov	r2, r4
 8009fc6:	462b      	mov	r3, r5
 8009fc8:	1891      	adds	r1, r2, r2
 8009fca:	6139      	str	r1, [r7, #16]
 8009fcc:	415b      	adcs	r3, r3
 8009fce:	617b      	str	r3, [r7, #20]
 8009fd0:	e9d7 2304 	ldrd	r2, r3, [r7, #16]
 8009fd4:	1912      	adds	r2, r2, r4
 8009fd6:	eb45 0303 	adc.w	r3, r5, r3
 8009fda:	f04f 0000 	mov.w	r0, #0
 8009fde:	f04f 0100 	mov.w	r1, #0
 8009fe2:	00d9      	lsls	r1, r3, #3
 8009fe4:	ea41 7152 	orr.w	r1, r1, r2, lsr #29
 8009fe8:	00d0      	lsls	r0, r2, #3
 8009fea:	4602      	mov	r2, r0
 8009fec:	460b      	mov	r3, r1
 8009fee:	eb12 0804 	adds.w	r8, r2, r4
 8009ff2:	eb43 0905 	adc.w	r9, r3, r5
 8009ff6:	6efb      	ldr	r3, [r7, #108]	; 0x6c
 8009ff8:	685b      	ldr	r3, [r3, #4]
 8009ffa:	4618      	mov	r0, r3
 8009ffc:	f04f 0100 	mov.w	r1, #0
 800a000:	f04f 0200 	mov.w	r2, #0
 800a004:	f04f 0300 	mov.w	r3, #0
 800a008:	008b      	lsls	r3, r1, #2
 800a00a:	ea43 7390 	orr.w	r3, r3, r0, lsr #30
 800a00e:	0082      	lsls	r2, r0, #2
 800a010:	4640      	mov	r0, r8
 800a012:	4649      	mov	r1, r9
 800a014:	f7f6 fda6 	bl	8000b64 <__aeabi_uldivmod>
 800a018:	4602      	mov	r2, r0
 800a01a:	460b      	mov	r3, r1
 800a01c:	4b49      	ldr	r3, [pc, #292]	; (800a144 <UART_SetConfig+0x38c>)
 800a01e:	fba3 2302 	umull	r2, r3, r3, r2
 800a022:	095b      	lsrs	r3, r3, #5
 800a024:	011e      	lsls	r6, r3, #4
 800a026:	6f7b      	ldr	r3, [r7, #116]	; 0x74
 800a028:	4618      	mov	r0, r3
 800a02a:	f04f 0100 	mov.w	r1, #0
 800a02e:	4602      	mov	r2, r0
 800a030:	460b      	mov	r3, r1
 800a032:	1894      	adds	r4, r2, r2
 800a034:	60bc      	str	r4, [r7, #8]
 800a036:	415b      	adcs	r3, r3
 800a038:	60fb      	str	r3, [r7, #12]
 800a03a:	e9d7 2302 	ldrd	r2, r3, [r7, #8]
 800a03e:	1812      	adds	r2, r2, r0
 800a040:	eb41 0303 	adc.w	r3, r1, r3
 800a044:	f04f 0400 	mov.w	r4, #0
 800a048:	f04f 0500 	mov.w	r5, #0
 800a04c:	00dd      	lsls	r5, r3, #3
 800a04e:	ea45 7552 	orr.w	r5, r5, r2, lsr #29
 800a052:	00d4      	lsls	r4, r2, #3
 800a054:	4622      	mov	r2, r4
 800a056:	462b      	mov	r3, r5
 800a058:	1814      	adds	r4, r2, r0
 800a05a:	64bc      	str	r4, [r7, #72]	; 0x48
 800a05c:	414b      	adcs	r3, r1
 800a05e:	64fb      	str	r3, [r7, #76]	; 0x4c
 800a060:	6efb      	ldr	r3, [r7, #108]	; 0x6c
 800a062:	685b      	ldr	r3, [r3, #4]
 800a064:	4618      	mov	r0, r3
 800a066:	f04f 0100 	mov.w	r1, #0
 800a06a:	f04f 0200 	mov.w	r2, #0
 800a06e:	f04f 0300 	mov.w	r3, #0
 800a072:	008b      	lsls	r3, r1, #2
 800a074:	ea43 7390 	orr.w	r3, r3, r0, lsr #30
 800a078:	0082      	lsls	r2, r0, #2
 800a07a:	e9d7 0112 	ldrd	r0, r1, [r7, #72]	; 0x48
 800a07e:	f7f6 fd71 	bl	8000b64 <__aeabi_uldivmod>
 800a082:	4602      	mov	r2, r0
 800a084:	460b      	mov	r3, r1
 800a086:	4b2f      	ldr	r3, [pc, #188]	; (800a144 <UART_SetConfig+0x38c>)
 800a088:	fba3 1302 	umull	r1, r3, r3, r2
 800a08c:	095b      	lsrs	r3, r3, #5
 800a08e:	2164      	movs	r1, #100	; 0x64
 800a090:	fb01 f303 	mul.w	r3, r1, r3
 800a094:	1ad3      	subs	r3, r2, r3
 800a096:	011b      	lsls	r3, r3, #4
 800a098:	3332      	adds	r3, #50	; 0x32
 800a09a:	4a2a      	ldr	r2, [pc, #168]	; (800a144 <UART_SetConfig+0x38c>)
 800a09c:	fba2 2303 	umull	r2, r3, r2, r3
 800a0a0:	095b      	lsrs	r3, r3, #5
 800a0a2:	f003 03f0 	and.w	r3, r3, #240	; 0xf0
 800a0a6:	441e      	add	r6, r3
 800a0a8:	6f7b      	ldr	r3, [r7, #116]	; 0x74
 800a0aa:	4618      	mov	r0, r3
 800a0ac:	f04f 0100 	mov.w	r1, #0
 800a0b0:	4602      	mov	r2, r0
 800a0b2:	460b      	mov	r3, r1
 800a0b4:	1894      	adds	r4, r2, r2
 800a0b6:	603c      	str	r4, [r7, #0]
 800a0b8:	415b      	adcs	r3, r3
 800a0ba:	607b      	str	r3, [r7, #4]
 800a0bc:	e9d7 2300 	ldrd	r2, r3, [r7]
 800a0c0:	1812      	adds	r2, r2, r0
 800a0c2:	eb41 0303 	adc.w	r3, r1, r3
 800a0c6:	f04f 0400 	mov.w	r4, #0
 800a0ca:	f04f 0500 	mov.w	r5, #0
 800a0ce:	00dd      	lsls	r5, r3, #3
 800a0d0:	ea45 7552 	orr.w	r5, r5, r2, lsr #29
 800a0d4:	00d4      	lsls	r4, r2, #3
 800a0d6:	4622      	mov	r2, r4
 800a0d8:	462b      	mov	r3, r5
 800a0da:	eb12 0a00 	adds.w	sl, r2, r0
 800a0de:	eb43 0b01 	adc.w	fp, r3, r1
 800a0e2:	6efb      	ldr	r3, [r7, #108]	; 0x6c
 800a0e4:	685b      	ldr	r3, [r3, #4]
 800a0e6:	4618      	mov	r0, r3
 800a0e8:	f04f 0100 	mov.w	r1, #0
 800a0ec:	f04f 0200 	mov.w	r2, #0
 800a0f0:	f04f 0300 	mov.w	r3, #0
 800a0f4:	008b      	lsls	r3, r1, #2
 800a0f6:	ea43 7390 	orr.w	r3, r3, r0, lsr #30
 800a0fa:	0082      	lsls	r2, r0, #2
 800a0fc:	4650      	mov	r0, sl
 800a0fe:	4659      	mov	r1, fp
 800a100:	f7f6 fd30 	bl	8000b64 <__aeabi_uldivmod>
 800a104:	4602      	mov	r2, r0
 800a106:	460b      	mov	r3, r1
 800a108:	4b0e      	ldr	r3, [pc, #56]	; (800a144 <UART_SetConfig+0x38c>)
 800a10a:	fba3 1302 	umull	r1, r3, r3, r2
 800a10e:	095b      	lsrs	r3, r3, #5
 800a110:	2164      	movs	r1, #100	; 0x64
 800a112:	fb01 f303 	mul.w	r3, r1, r3
 800a116:	1ad3      	subs	r3, r2, r3
 800a118:	011b      	lsls	r3, r3, #4
 800a11a:	3332      	adds	r3, #50	; 0x32
 800a11c:	4a09      	ldr	r2, [pc, #36]	; (800a144 <UART_SetConfig+0x38c>)
 800a11e:	fba2 2303 	umull	r2, r3, r2, r3
 800a122:	095b      	lsrs	r3, r3, #5
 800a124:	f003 020f 	and.w	r2, r3, #15
 800a128:	6efb      	ldr	r3, [r7, #108]	; 0x6c
 800a12a:	681b      	ldr	r3, [r3, #0]
 800a12c:	4432      	add	r2, r6
 800a12e:	609a      	str	r2, [r3, #8]
}
 800a130:	bf00      	nop
 800a132:	377c      	adds	r7, #124	; 0x7c
 800a134:	46bd      	mov	sp, r7
 800a136:	e8bd 8ff0 	ldmia.w	sp!, {r4, r5, r6, r7, r8, r9, sl, fp, pc}
 800a13a:	bf00      	nop
 800a13c:	40011000 	.word	0x40011000
 800a140:	40011400 	.word	0x40011400
 800a144:	51eb851f 	.word	0x51eb851f

0800a148 <cosf>:
 800a148:	ee10 3a10 	vmov	r3, s0
 800a14c:	b507      	push	{r0, r1, r2, lr}
 800a14e:	4a1c      	ldr	r2, [pc, #112]	; (800a1c0 <cosf+0x78>)
 800a150:	f023 4300 	bic.w	r3, r3, #2147483648	; 0x80000000
 800a154:	4293      	cmp	r3, r2
 800a156:	dc04      	bgt.n	800a162 <cosf+0x1a>
 800a158:	eddf 0a1a 	vldr	s1, [pc, #104]	; 800a1c4 <cosf+0x7c>
 800a15c:	f000 fb96 	bl	800a88c <__kernel_cosf>
 800a160:	e004      	b.n	800a16c <cosf+0x24>
 800a162:	f1b3 4fff 	cmp.w	r3, #2139095040	; 0x7f800000
 800a166:	db04      	blt.n	800a172 <cosf+0x2a>
 800a168:	ee30 0a40 	vsub.f32	s0, s0, s0
 800a16c:	b003      	add	sp, #12
 800a16e:	f85d fb04 	ldr.w	pc, [sp], #4
 800a172:	4668      	mov	r0, sp
 800a174:	f000 fa4a 	bl	800a60c <__ieee754_rem_pio2f>
 800a178:	f000 0003 	and.w	r0, r0, #3
 800a17c:	2801      	cmp	r0, #1
 800a17e:	d007      	beq.n	800a190 <cosf+0x48>
 800a180:	2802      	cmp	r0, #2
 800a182:	d00e      	beq.n	800a1a2 <cosf+0x5a>
 800a184:	b9a0      	cbnz	r0, 800a1b0 <cosf+0x68>
 800a186:	eddd 0a01 	vldr	s1, [sp, #4]
 800a18a:	ed9d 0a00 	vldr	s0, [sp]
 800a18e:	e7e5      	b.n	800a15c <cosf+0x14>
 800a190:	eddd 0a01 	vldr	s1, [sp, #4]
 800a194:	ed9d 0a00 	vldr	s0, [sp]
 800a198:	f000 fe62 	bl	800ae60 <__kernel_sinf>
 800a19c:	eeb1 0a40 	vneg.f32	s0, s0
 800a1a0:	e7e4      	b.n	800a16c <cosf+0x24>
 800a1a2:	eddd 0a01 	vldr	s1, [sp, #4]
 800a1a6:	ed9d 0a00 	vldr	s0, [sp]
 800a1aa:	f000 fb6f 	bl	800a88c <__kernel_cosf>
 800a1ae:	e7f5      	b.n	800a19c <cosf+0x54>
 800a1b0:	eddd 0a01 	vldr	s1, [sp, #4]
 800a1b4:	ed9d 0a00 	vldr	s0, [sp]
 800a1b8:	2001      	movs	r0, #1
 800a1ba:	f000 fe51 	bl	800ae60 <__kernel_sinf>
 800a1be:	e7d5      	b.n	800a16c <cosf+0x24>
 800a1c0:	3f490fd8 	.word	0x3f490fd8
 800a1c4:	00000000 	.word	0x00000000

0800a1c8 <sinf>:
 800a1c8:	ee10 3a10 	vmov	r3, s0
 800a1cc:	b507      	push	{r0, r1, r2, lr}
 800a1ce:	4a1d      	ldr	r2, [pc, #116]	; (800a244 <sinf+0x7c>)
 800a1d0:	f023 4300 	bic.w	r3, r3, #2147483648	; 0x80000000
 800a1d4:	4293      	cmp	r3, r2
 800a1d6:	dc05      	bgt.n	800a1e4 <sinf+0x1c>
 800a1d8:	eddf 0a1b 	vldr	s1, [pc, #108]	; 800a248 <sinf+0x80>
 800a1dc:	2000      	movs	r0, #0
 800a1de:	f000 fe3f 	bl	800ae60 <__kernel_sinf>
 800a1e2:	e004      	b.n	800a1ee <sinf+0x26>
 800a1e4:	f1b3 4fff 	cmp.w	r3, #2139095040	; 0x7f800000
 800a1e8:	db04      	blt.n	800a1f4 <sinf+0x2c>
 800a1ea:	ee30 0a40 	vsub.f32	s0, s0, s0
 800a1ee:	b003      	add	sp, #12
 800a1f0:	f85d fb04 	ldr.w	pc, [sp], #4
 800a1f4:	4668      	mov	r0, sp
 800a1f6:	f000 fa09 	bl	800a60c <__ieee754_rem_pio2f>
 800a1fa:	f000 0003 	and.w	r0, r0, #3
 800a1fe:	2801      	cmp	r0, #1
 800a200:	d008      	beq.n	800a214 <sinf+0x4c>
 800a202:	2802      	cmp	r0, #2
 800a204:	d00d      	beq.n	800a222 <sinf+0x5a>
 800a206:	b9b0      	cbnz	r0, 800a236 <sinf+0x6e>
 800a208:	eddd 0a01 	vldr	s1, [sp, #4]
 800a20c:	ed9d 0a00 	vldr	s0, [sp]
 800a210:	2001      	movs	r0, #1
 800a212:	e7e4      	b.n	800a1de <sinf+0x16>
 800a214:	eddd 0a01 	vldr	s1, [sp, #4]
 800a218:	ed9d 0a00 	vldr	s0, [sp]
 800a21c:	f000 fb36 	bl	800a88c <__kernel_cosf>
 800a220:	e7e5      	b.n	800a1ee <sinf+0x26>
 800a222:	eddd 0a01 	vldr	s1, [sp, #4]
 800a226:	ed9d 0a00 	vldr	s0, [sp]
 800a22a:	2001      	movs	r0, #1
 800a22c:	f000 fe18 	bl	800ae60 <__kernel_sinf>
 800a230:	eeb1 0a40 	vneg.f32	s0, s0
 800a234:	e7db      	b.n	800a1ee <sinf+0x26>
 800a236:	eddd 0a01 	vldr	s1, [sp, #4]
 800a23a:	ed9d 0a00 	vldr	s0, [sp]
 800a23e:	f000 fb25 	bl	800a88c <__kernel_cosf>
 800a242:	e7f5      	b.n	800a230 <sinf+0x68>
 800a244:	3f490fd8 	.word	0x3f490fd8
 800a248:	00000000 	.word	0x00000000

0800a24c <asinf>:
 800a24c:	b508      	push	{r3, lr}
 800a24e:	ed2d 8b02 	vpush	{d8}
 800a252:	eeb0 8a40 	vmov.f32	s16, s0
 800a256:	f000 f853 	bl	800a300 <__ieee754_asinf>
 800a25a:	4b13      	ldr	r3, [pc, #76]	; (800a2a8 <asinf+0x5c>)
 800a25c:	f993 3000 	ldrsb.w	r3, [r3]
 800a260:	3301      	adds	r3, #1
 800a262:	eef0 8a40 	vmov.f32	s17, s0
 800a266:	d01a      	beq.n	800a29e <asinf+0x52>
 800a268:	eeb4 8a48 	vcmp.f32	s16, s16
 800a26c:	eef1 fa10 	vmrs	APSR_nzcv, fpscr
 800a270:	d615      	bvs.n	800a29e <asinf+0x52>
 800a272:	eeb0 0a48 	vmov.f32	s0, s16
 800a276:	f000 ff0f 	bl	800b098 <fabsf>
 800a27a:	eef7 7a00 	vmov.f32	s15, #112	; 0x3f800000  1.0
 800a27e:	eeb4 0ae7 	vcmpe.f32	s0, s15
 800a282:	eef1 fa10 	vmrs	APSR_nzcv, fpscr
 800a286:	dd0a      	ble.n	800a29e <asinf+0x52>
 800a288:	f000 ffc8 	bl	800b21c <__errno>
 800a28c:	ecbd 8b02 	vpop	{d8}
 800a290:	2321      	movs	r3, #33	; 0x21
 800a292:	6003      	str	r3, [r0, #0]
 800a294:	e8bd 4008 	ldmia.w	sp!, {r3, lr}
 800a298:	4804      	ldr	r0, [pc, #16]	; (800a2ac <asinf+0x60>)
 800a29a:	f000 bf47 	b.w	800b12c <nanf>
 800a29e:	eeb0 0a68 	vmov.f32	s0, s17
 800a2a2:	ecbd 8b02 	vpop	{d8}
 800a2a6:	bd08      	pop	{r3, pc}
 800a2a8:	20000039 	.word	0x20000039
 800a2ac:	0800b2e0 	.word	0x0800b2e0

0800a2b0 <atan2f>:
 800a2b0:	f000 b90c 	b.w	800a4cc <__ieee754_atan2f>

0800a2b4 <sqrtf>:
 800a2b4:	b508      	push	{r3, lr}
 800a2b6:	ed2d 8b02 	vpush	{d8}
 800a2ba:	eeb0 8a40 	vmov.f32	s16, s0
 800a2be:	f000 fae1 	bl	800a884 <__ieee754_sqrtf>
 800a2c2:	4b0d      	ldr	r3, [pc, #52]	; (800a2f8 <sqrtf+0x44>)
 800a2c4:	f993 3000 	ldrsb.w	r3, [r3]
 800a2c8:	3301      	adds	r3, #1
 800a2ca:	d011      	beq.n	800a2f0 <sqrtf+0x3c>
 800a2cc:	eeb4 8a48 	vcmp.f32	s16, s16
 800a2d0:	eef1 fa10 	vmrs	APSR_nzcv, fpscr
 800a2d4:	d60c      	bvs.n	800a2f0 <sqrtf+0x3c>
 800a2d6:	eddf 8a09 	vldr	s17, [pc, #36]	; 800a2fc <sqrtf+0x48>
 800a2da:	eeb4 8ae8 	vcmpe.f32	s16, s17
 800a2de:	eef1 fa10 	vmrs	APSR_nzcv, fpscr
 800a2e2:	d505      	bpl.n	800a2f0 <sqrtf+0x3c>
 800a2e4:	f000 ff9a 	bl	800b21c <__errno>
 800a2e8:	ee88 0aa8 	vdiv.f32	s0, s17, s17
 800a2ec:	2321      	movs	r3, #33	; 0x21
 800a2ee:	6003      	str	r3, [r0, #0]
 800a2f0:	ecbd 8b02 	vpop	{d8}
 800a2f4:	bd08      	pop	{r3, pc}
 800a2f6:	bf00      	nop
 800a2f8:	20000039 	.word	0x20000039
 800a2fc:	00000000 	.word	0x00000000

0800a300 <__ieee754_asinf>:
 800a300:	b538      	push	{r3, r4, r5, lr}
 800a302:	ee10 5a10 	vmov	r5, s0
 800a306:	f025 4400 	bic.w	r4, r5, #2147483648	; 0x80000000
 800a30a:	f1b4 5f7e 	cmp.w	r4, #1065353216	; 0x3f800000
 800a30e:	ed2d 8b04 	vpush	{d8-d9}
 800a312:	d10c      	bne.n	800a32e <__ieee754_asinf+0x2e>
 800a314:	eddf 7a5d 	vldr	s15, [pc, #372]	; 800a48c <__ieee754_asinf+0x18c>
 800a318:	ed9f 7a5d 	vldr	s14, [pc, #372]	; 800a490 <__ieee754_asinf+0x190>
 800a31c:	ee60 7a27 	vmul.f32	s15, s0, s15
 800a320:	eee0 7a07 	vfma.f32	s15, s0, s14
 800a324:	eeb0 0a67 	vmov.f32	s0, s15
 800a328:	ecbd 8b04 	vpop	{d8-d9}
 800a32c:	bd38      	pop	{r3, r4, r5, pc}
 800a32e:	dd04      	ble.n	800a33a <__ieee754_asinf+0x3a>
 800a330:	ee70 7a40 	vsub.f32	s15, s0, s0
 800a334:	ee87 0aa7 	vdiv.f32	s0, s15, s15
 800a338:	e7f6      	b.n	800a328 <__ieee754_asinf+0x28>
 800a33a:	f1b4 5f7c 	cmp.w	r4, #1056964608	; 0x3f000000
 800a33e:	eef7 8a00 	vmov.f32	s17, #112	; 0x3f800000  1.0
 800a342:	da0b      	bge.n	800a35c <__ieee754_asinf+0x5c>
 800a344:	f1b4 5f48 	cmp.w	r4, #838860800	; 0x32000000
 800a348:	da52      	bge.n	800a3f0 <__ieee754_asinf+0xf0>
 800a34a:	eddf 7a52 	vldr	s15, [pc, #328]	; 800a494 <__ieee754_asinf+0x194>
 800a34e:	ee70 7a27 	vadd.f32	s15, s0, s15
 800a352:	eef4 7ae8 	vcmpe.f32	s15, s17
 800a356:	eef1 fa10 	vmrs	APSR_nzcv, fpscr
 800a35a:	dce5      	bgt.n	800a328 <__ieee754_asinf+0x28>
 800a35c:	f000 fe9c 	bl	800b098 <fabsf>
 800a360:	ee38 0ac0 	vsub.f32	s0, s17, s0
 800a364:	eeb6 8a00 	vmov.f32	s16, #96	; 0x3f000000  0.5
 800a368:	ee20 8a08 	vmul.f32	s16, s0, s16
 800a36c:	eddf 7a4a 	vldr	s15, [pc, #296]	; 800a498 <__ieee754_asinf+0x198>
 800a370:	ed9f 7a4a 	vldr	s14, [pc, #296]	; 800a49c <__ieee754_asinf+0x19c>
 800a374:	ed9f 9a4a 	vldr	s18, [pc, #296]	; 800a4a0 <__ieee754_asinf+0x1a0>
 800a378:	eea8 7a27 	vfma.f32	s14, s16, s15
 800a37c:	eddf 7a49 	vldr	s15, [pc, #292]	; 800a4a4 <__ieee754_asinf+0x1a4>
 800a380:	eee7 7a08 	vfma.f32	s15, s14, s16
 800a384:	ed9f 7a48 	vldr	s14, [pc, #288]	; 800a4a8 <__ieee754_asinf+0x1a8>
 800a388:	eea7 7a88 	vfma.f32	s14, s15, s16
 800a38c:	eddf 7a47 	vldr	s15, [pc, #284]	; 800a4ac <__ieee754_asinf+0x1ac>
 800a390:	eee7 7a08 	vfma.f32	s15, s14, s16
 800a394:	ed9f 7a46 	vldr	s14, [pc, #280]	; 800a4b0 <__ieee754_asinf+0x1b0>
 800a398:	eea7 9a88 	vfma.f32	s18, s15, s16
 800a39c:	eddf 7a45 	vldr	s15, [pc, #276]	; 800a4b4 <__ieee754_asinf+0x1b4>
 800a3a0:	eee8 7a07 	vfma.f32	s15, s16, s14
 800a3a4:	ed9f 7a44 	vldr	s14, [pc, #272]	; 800a4b8 <__ieee754_asinf+0x1b8>
 800a3a8:	eea7 7a88 	vfma.f32	s14, s15, s16
 800a3ac:	eddf 7a43 	vldr	s15, [pc, #268]	; 800a4bc <__ieee754_asinf+0x1bc>
 800a3b0:	eee7 7a08 	vfma.f32	s15, s14, s16
 800a3b4:	eeb0 0a48 	vmov.f32	s0, s16
 800a3b8:	eee7 8a88 	vfma.f32	s17, s15, s16
 800a3bc:	f000 fa62 	bl	800a884 <__ieee754_sqrtf>
 800a3c0:	4b3f      	ldr	r3, [pc, #252]	; (800a4c0 <__ieee754_asinf+0x1c0>)
 800a3c2:	ee29 9a08 	vmul.f32	s18, s18, s16
 800a3c6:	429c      	cmp	r4, r3
 800a3c8:	ee89 6a28 	vdiv.f32	s12, s18, s17
 800a3cc:	eef0 6a00 	vmov.f32	s13, #0	; 0x40000000  2.0
 800a3d0:	dd3d      	ble.n	800a44e <__ieee754_asinf+0x14e>
 800a3d2:	eea0 0a06 	vfma.f32	s0, s0, s12
 800a3d6:	eddf 7a3b 	vldr	s15, [pc, #236]	; 800a4c4 <__ieee754_asinf+0x1c4>
 800a3da:	eee0 7a26 	vfma.f32	s15, s0, s13
 800a3de:	ed9f 0a2c 	vldr	s0, [pc, #176]	; 800a490 <__ieee754_asinf+0x190>
 800a3e2:	ee30 0a67 	vsub.f32	s0, s0, s15
 800a3e6:	2d00      	cmp	r5, #0
 800a3e8:	bfd8      	it	le
 800a3ea:	eeb1 0a40 	vnegle.f32	s0, s0
 800a3ee:	e79b      	b.n	800a328 <__ieee754_asinf+0x28>
 800a3f0:	ee60 7a00 	vmul.f32	s15, s0, s0
 800a3f4:	eddf 6a28 	vldr	s13, [pc, #160]	; 800a498 <__ieee754_asinf+0x198>
 800a3f8:	ed9f 7a28 	vldr	s14, [pc, #160]	; 800a49c <__ieee754_asinf+0x19c>
 800a3fc:	ed9f 6a2c 	vldr	s12, [pc, #176]	; 800a4b0 <__ieee754_asinf+0x1b0>
 800a400:	eea7 7aa6 	vfma.f32	s14, s15, s13
 800a404:	eddf 6a27 	vldr	s13, [pc, #156]	; 800a4a4 <__ieee754_asinf+0x1a4>
 800a408:	eee7 6a27 	vfma.f32	s13, s14, s15
 800a40c:	ed9f 7a26 	vldr	s14, [pc, #152]	; 800a4a8 <__ieee754_asinf+0x1a8>
 800a410:	eea6 7aa7 	vfma.f32	s14, s13, s15
 800a414:	eddf 6a25 	vldr	s13, [pc, #148]	; 800a4ac <__ieee754_asinf+0x1ac>
 800a418:	eee7 6a27 	vfma.f32	s13, s14, s15
 800a41c:	ed9f 7a20 	vldr	s14, [pc, #128]	; 800a4a0 <__ieee754_asinf+0x1a0>
 800a420:	eea6 7aa7 	vfma.f32	s14, s13, s15
 800a424:	eddf 6a23 	vldr	s13, [pc, #140]	; 800a4b4 <__ieee754_asinf+0x1b4>
 800a428:	eee7 6a86 	vfma.f32	s13, s15, s12
 800a42c:	ed9f 6a22 	vldr	s12, [pc, #136]	; 800a4b8 <__ieee754_asinf+0x1b8>
 800a430:	eea6 6aa7 	vfma.f32	s12, s13, s15
 800a434:	eddf 6a21 	vldr	s13, [pc, #132]	; 800a4bc <__ieee754_asinf+0x1bc>
 800a438:	eee6 6a27 	vfma.f32	s13, s12, s15
 800a43c:	ee27 7a27 	vmul.f32	s14, s14, s15
 800a440:	eee6 8aa7 	vfma.f32	s17, s13, s15
 800a444:	eec7 7a28 	vdiv.f32	s15, s14, s17
 800a448:	eea0 0a27 	vfma.f32	s0, s0, s15
 800a44c:	e76c      	b.n	800a328 <__ieee754_asinf+0x28>
 800a44e:	ee10 3a10 	vmov	r3, s0
 800a452:	f423 637f 	bic.w	r3, r3, #4080	; 0xff0
 800a456:	f023 030f 	bic.w	r3, r3, #15
 800a45a:	ee07 3a10 	vmov	s14, r3
 800a45e:	eea7 8a47 	vfms.f32	s16, s14, s14
 800a462:	ee70 7a07 	vadd.f32	s15, s0, s14
 800a466:	ee30 0a00 	vadd.f32	s0, s0, s0
 800a46a:	eec8 5a27 	vdiv.f32	s11, s16, s15
 800a46e:	eddf 7a07 	vldr	s15, [pc, #28]	; 800a48c <__ieee754_asinf+0x18c>
 800a472:	eee5 7ae6 	vfms.f32	s15, s11, s13
 800a476:	eed0 7a06 	vfnms.f32	s15, s0, s12
 800a47a:	ed9f 0a13 	vldr	s0, [pc, #76]	; 800a4c8 <__ieee754_asinf+0x1c8>
 800a47e:	eeb0 6a40 	vmov.f32	s12, s0
 800a482:	eea7 6a66 	vfms.f32	s12, s14, s13
 800a486:	ee77 7ac6 	vsub.f32	s15, s15, s12
 800a48a:	e7aa      	b.n	800a3e2 <__ieee754_asinf+0xe2>
 800a48c:	b33bbd2e 	.word	0xb33bbd2e
 800a490:	3fc90fdb 	.word	0x3fc90fdb
 800a494:	7149f2ca 	.word	0x7149f2ca
 800a498:	3811ef08 	.word	0x3811ef08
 800a49c:	3a4f7f04 	.word	0x3a4f7f04
 800a4a0:	3e2aaaab 	.word	0x3e2aaaab
 800a4a4:	bd241146 	.word	0xbd241146
 800a4a8:	3e4e0aa8 	.word	0x3e4e0aa8
 800a4ac:	bea6b090 	.word	0xbea6b090
 800a4b0:	3d9dc62e 	.word	0x3d9dc62e
 800a4b4:	bf303361 	.word	0xbf303361
 800a4b8:	4001572d 	.word	0x4001572d
 800a4bc:	c019d139 	.word	0xc019d139
 800a4c0:	3f799999 	.word	0x3f799999
 800a4c4:	333bbd2e 	.word	0x333bbd2e
 800a4c8:	3f490fdb 	.word	0x3f490fdb

0800a4cc <__ieee754_atan2f>:
 800a4cc:	ee10 2a90 	vmov	r2, s1
 800a4d0:	f022 4100 	bic.w	r1, r2, #2147483648	; 0x80000000
 800a4d4:	f1b1 4fff 	cmp.w	r1, #2139095040	; 0x7f800000
 800a4d8:	b510      	push	{r4, lr}
 800a4da:	eef0 7a40 	vmov.f32	s15, s0
 800a4de:	dc06      	bgt.n	800a4ee <__ieee754_atan2f+0x22>
 800a4e0:	ee10 0a10 	vmov	r0, s0
 800a4e4:	f020 4300 	bic.w	r3, r0, #2147483648	; 0x80000000
 800a4e8:	f1b3 4fff 	cmp.w	r3, #2139095040	; 0x7f800000
 800a4ec:	dd04      	ble.n	800a4f8 <__ieee754_atan2f+0x2c>
 800a4ee:	ee77 7aa0 	vadd.f32	s15, s15, s1
 800a4f2:	eeb0 0a67 	vmov.f32	s0, s15
 800a4f6:	bd10      	pop	{r4, pc}
 800a4f8:	f1b2 5f7e 	cmp.w	r2, #1065353216	; 0x3f800000
 800a4fc:	d103      	bne.n	800a506 <__ieee754_atan2f+0x3a>
 800a4fe:	e8bd 4010 	ldmia.w	sp!, {r4, lr}
 800a502:	f000 bcf5 	b.w	800aef0 <atanf>
 800a506:	1794      	asrs	r4, r2, #30
 800a508:	f004 0402 	and.w	r4, r4, #2
 800a50c:	ea44 74d0 	orr.w	r4, r4, r0, lsr #31
 800a510:	b943      	cbnz	r3, 800a524 <__ieee754_atan2f+0x58>
 800a512:	2c02      	cmp	r4, #2
 800a514:	d05e      	beq.n	800a5d4 <__ieee754_atan2f+0x108>
 800a516:	ed9f 7a34 	vldr	s14, [pc, #208]	; 800a5e8 <__ieee754_atan2f+0x11c>
 800a51a:	2c03      	cmp	r4, #3
 800a51c:	bf08      	it	eq
 800a51e:	eef0 7a47 	vmoveq.f32	s15, s14
 800a522:	e7e6      	b.n	800a4f2 <__ieee754_atan2f+0x26>
 800a524:	b941      	cbnz	r1, 800a538 <__ieee754_atan2f+0x6c>
 800a526:	eddf 7a31 	vldr	s15, [pc, #196]	; 800a5ec <__ieee754_atan2f+0x120>
 800a52a:	ed9f 0a31 	vldr	s0, [pc, #196]	; 800a5f0 <__ieee754_atan2f+0x124>
 800a52e:	2800      	cmp	r0, #0
 800a530:	bfb8      	it	lt
 800a532:	eef0 7a40 	vmovlt.f32	s15, s0
 800a536:	e7dc      	b.n	800a4f2 <__ieee754_atan2f+0x26>
 800a538:	f1b1 4fff 	cmp.w	r1, #2139095040	; 0x7f800000
 800a53c:	d110      	bne.n	800a560 <__ieee754_atan2f+0x94>
 800a53e:	f1b3 4fff 	cmp.w	r3, #2139095040	; 0x7f800000
 800a542:	f104 34ff 	add.w	r4, r4, #4294967295
 800a546:	d107      	bne.n	800a558 <__ieee754_atan2f+0x8c>
 800a548:	2c02      	cmp	r4, #2
 800a54a:	d846      	bhi.n	800a5da <__ieee754_atan2f+0x10e>
 800a54c:	4b29      	ldr	r3, [pc, #164]	; (800a5f4 <__ieee754_atan2f+0x128>)
 800a54e:	eb03 0484 	add.w	r4, r3, r4, lsl #2
 800a552:	edd4 7a00 	vldr	s15, [r4]
 800a556:	e7cc      	b.n	800a4f2 <__ieee754_atan2f+0x26>
 800a558:	2c02      	cmp	r4, #2
 800a55a:	d841      	bhi.n	800a5e0 <__ieee754_atan2f+0x114>
 800a55c:	4b26      	ldr	r3, [pc, #152]	; (800a5f8 <__ieee754_atan2f+0x12c>)
 800a55e:	e7f6      	b.n	800a54e <__ieee754_atan2f+0x82>
 800a560:	f1b3 4fff 	cmp.w	r3, #2139095040	; 0x7f800000
 800a564:	d0df      	beq.n	800a526 <__ieee754_atan2f+0x5a>
 800a566:	1a5b      	subs	r3, r3, r1
 800a568:	f1b3 5ff4 	cmp.w	r3, #511705088	; 0x1e800000
 800a56c:	ea4f 51e3 	mov.w	r1, r3, asr #23
 800a570:	da1a      	bge.n	800a5a8 <__ieee754_atan2f+0xdc>
 800a572:	2a00      	cmp	r2, #0
 800a574:	da01      	bge.n	800a57a <__ieee754_atan2f+0xae>
 800a576:	313c      	adds	r1, #60	; 0x3c
 800a578:	db19      	blt.n	800a5ae <__ieee754_atan2f+0xe2>
 800a57a:	ee87 0aa0 	vdiv.f32	s0, s15, s1
 800a57e:	f000 fd8b 	bl	800b098 <fabsf>
 800a582:	f000 fcb5 	bl	800aef0 <atanf>
 800a586:	eef0 7a40 	vmov.f32	s15, s0
 800a58a:	2c01      	cmp	r4, #1
 800a58c:	d012      	beq.n	800a5b4 <__ieee754_atan2f+0xe8>
 800a58e:	2c02      	cmp	r4, #2
 800a590:	d017      	beq.n	800a5c2 <__ieee754_atan2f+0xf6>
 800a592:	2c00      	cmp	r4, #0
 800a594:	d0ad      	beq.n	800a4f2 <__ieee754_atan2f+0x26>
 800a596:	ed9f 0a19 	vldr	s0, [pc, #100]	; 800a5fc <__ieee754_atan2f+0x130>
 800a59a:	ee77 7a80 	vadd.f32	s15, s15, s0
 800a59e:	ed9f 0a18 	vldr	s0, [pc, #96]	; 800a600 <__ieee754_atan2f+0x134>
 800a5a2:	ee77 7ac0 	vsub.f32	s15, s15, s0
 800a5a6:	e7a4      	b.n	800a4f2 <__ieee754_atan2f+0x26>
 800a5a8:	eddf 7a10 	vldr	s15, [pc, #64]	; 800a5ec <__ieee754_atan2f+0x120>
 800a5ac:	e7ed      	b.n	800a58a <__ieee754_atan2f+0xbe>
 800a5ae:	eddf 7a15 	vldr	s15, [pc, #84]	; 800a604 <__ieee754_atan2f+0x138>
 800a5b2:	e7ea      	b.n	800a58a <__ieee754_atan2f+0xbe>
 800a5b4:	ee17 3a90 	vmov	r3, s15
 800a5b8:	f103 4300 	add.w	r3, r3, #2147483648	; 0x80000000
 800a5bc:	ee07 3a90 	vmov	s15, r3
 800a5c0:	e797      	b.n	800a4f2 <__ieee754_atan2f+0x26>
 800a5c2:	ed9f 0a0e 	vldr	s0, [pc, #56]	; 800a5fc <__ieee754_atan2f+0x130>
 800a5c6:	ee77 7a80 	vadd.f32	s15, s15, s0
 800a5ca:	ed9f 0a0d 	vldr	s0, [pc, #52]	; 800a600 <__ieee754_atan2f+0x134>
 800a5ce:	ee70 7a67 	vsub.f32	s15, s0, s15
 800a5d2:	e78e      	b.n	800a4f2 <__ieee754_atan2f+0x26>
 800a5d4:	eddf 7a0a 	vldr	s15, [pc, #40]	; 800a600 <__ieee754_atan2f+0x134>
 800a5d8:	e78b      	b.n	800a4f2 <__ieee754_atan2f+0x26>
 800a5da:	eddf 7a0b 	vldr	s15, [pc, #44]	; 800a608 <__ieee754_atan2f+0x13c>
 800a5de:	e788      	b.n	800a4f2 <__ieee754_atan2f+0x26>
 800a5e0:	eddf 7a08 	vldr	s15, [pc, #32]	; 800a604 <__ieee754_atan2f+0x138>
 800a5e4:	e785      	b.n	800a4f2 <__ieee754_atan2f+0x26>
 800a5e6:	bf00      	nop
 800a5e8:	c0490fdb 	.word	0xc0490fdb
 800a5ec:	3fc90fdb 	.word	0x3fc90fdb
 800a5f0:	bfc90fdb 	.word	0xbfc90fdb
 800a5f4:	0800b2e4 	.word	0x0800b2e4
 800a5f8:	0800b2f0 	.word	0x0800b2f0
 800a5fc:	33bbbd2e 	.word	0x33bbbd2e
 800a600:	40490fdb 	.word	0x40490fdb
 800a604:	00000000 	.word	0x00000000
 800a608:	3f490fdb 	.word	0x3f490fdb

0800a60c <__ieee754_rem_pio2f>:
 800a60c:	b5f0      	push	{r4, r5, r6, r7, lr}
 800a60e:	ee10 6a10 	vmov	r6, s0
 800a612:	4b8e      	ldr	r3, [pc, #568]	; (800a84c <__ieee754_rem_pio2f+0x240>)
 800a614:	f026 4500 	bic.w	r5, r6, #2147483648	; 0x80000000
 800a618:	429d      	cmp	r5, r3
 800a61a:	b087      	sub	sp, #28
 800a61c:	eef0 7a40 	vmov.f32	s15, s0
 800a620:	4604      	mov	r4, r0
 800a622:	dc05      	bgt.n	800a630 <__ieee754_rem_pio2f+0x24>
 800a624:	2300      	movs	r3, #0
 800a626:	ed80 0a00 	vstr	s0, [r0]
 800a62a:	6043      	str	r3, [r0, #4]
 800a62c:	2000      	movs	r0, #0
 800a62e:	e01a      	b.n	800a666 <__ieee754_rem_pio2f+0x5a>
 800a630:	4b87      	ldr	r3, [pc, #540]	; (800a850 <__ieee754_rem_pio2f+0x244>)
 800a632:	429d      	cmp	r5, r3
 800a634:	dc46      	bgt.n	800a6c4 <__ieee754_rem_pio2f+0xb8>
 800a636:	2e00      	cmp	r6, #0
 800a638:	ed9f 0a86 	vldr	s0, [pc, #536]	; 800a854 <__ieee754_rem_pio2f+0x248>
 800a63c:	4b86      	ldr	r3, [pc, #536]	; (800a858 <__ieee754_rem_pio2f+0x24c>)
 800a63e:	f025 050f 	bic.w	r5, r5, #15
 800a642:	dd1f      	ble.n	800a684 <__ieee754_rem_pio2f+0x78>
 800a644:	429d      	cmp	r5, r3
 800a646:	ee77 7ac0 	vsub.f32	s15, s15, s0
 800a64a:	d00e      	beq.n	800a66a <__ieee754_rem_pio2f+0x5e>
 800a64c:	ed9f 7a83 	vldr	s14, [pc, #524]	; 800a85c <__ieee754_rem_pio2f+0x250>
 800a650:	ee37 0ac7 	vsub.f32	s0, s15, s14
 800a654:	ee77 7ac0 	vsub.f32	s15, s15, s0
 800a658:	ed80 0a00 	vstr	s0, [r0]
 800a65c:	ee77 7ac7 	vsub.f32	s15, s15, s14
 800a660:	2001      	movs	r0, #1
 800a662:	edc4 7a01 	vstr	s15, [r4, #4]
 800a666:	b007      	add	sp, #28
 800a668:	bdf0      	pop	{r4, r5, r6, r7, pc}
 800a66a:	ed9f 0a7d 	vldr	s0, [pc, #500]	; 800a860 <__ieee754_rem_pio2f+0x254>
 800a66e:	ed9f 7a7d 	vldr	s14, [pc, #500]	; 800a864 <__ieee754_rem_pio2f+0x258>
 800a672:	ee77 7ac0 	vsub.f32	s15, s15, s0
 800a676:	ee77 6ac7 	vsub.f32	s13, s15, s14
 800a67a:	ee77 7ae6 	vsub.f32	s15, s15, s13
 800a67e:	edc0 6a00 	vstr	s13, [r0]
 800a682:	e7eb      	b.n	800a65c <__ieee754_rem_pio2f+0x50>
 800a684:	429d      	cmp	r5, r3
 800a686:	ee77 7a80 	vadd.f32	s15, s15, s0
 800a68a:	d00e      	beq.n	800a6aa <__ieee754_rem_pio2f+0x9e>
 800a68c:	ed9f 7a73 	vldr	s14, [pc, #460]	; 800a85c <__ieee754_rem_pio2f+0x250>
 800a690:	ee37 0a87 	vadd.f32	s0, s15, s14
 800a694:	ee77 7ac0 	vsub.f32	s15, s15, s0
 800a698:	ed80 0a00 	vstr	s0, [r0]
 800a69c:	ee77 7a87 	vadd.f32	s15, s15, s14
 800a6a0:	f04f 30ff 	mov.w	r0, #4294967295
 800a6a4:	edc4 7a01 	vstr	s15, [r4, #4]
 800a6a8:	e7dd      	b.n	800a666 <__ieee754_rem_pio2f+0x5a>
 800a6aa:	ed9f 0a6d 	vldr	s0, [pc, #436]	; 800a860 <__ieee754_rem_pio2f+0x254>
 800a6ae:	ed9f 7a6d 	vldr	s14, [pc, #436]	; 800a864 <__ieee754_rem_pio2f+0x258>
 800a6b2:	ee77 7a80 	vadd.f32	s15, s15, s0
 800a6b6:	ee77 6a87 	vadd.f32	s13, s15, s14
 800a6ba:	ee77 7ae6 	vsub.f32	s15, s15, s13
 800a6be:	edc0 6a00 	vstr	s13, [r0]
 800a6c2:	e7eb      	b.n	800a69c <__ieee754_rem_pio2f+0x90>
 800a6c4:	4b68      	ldr	r3, [pc, #416]	; (800a868 <__ieee754_rem_pio2f+0x25c>)
 800a6c6:	429d      	cmp	r5, r3
 800a6c8:	dc72      	bgt.n	800a7b0 <__ieee754_rem_pio2f+0x1a4>
 800a6ca:	f000 fce5 	bl	800b098 <fabsf>
 800a6ce:	ed9f 7a67 	vldr	s14, [pc, #412]	; 800a86c <__ieee754_rem_pio2f+0x260>
 800a6d2:	eef6 7a00 	vmov.f32	s15, #96	; 0x3f000000  0.5
 800a6d6:	eee0 7a07 	vfma.f32	s15, s0, s14
 800a6da:	eefd 7ae7 	vcvt.s32.f32	s15, s15
 800a6de:	eeb8 7ae7 	vcvt.f32.s32	s14, s15
 800a6e2:	ee17 0a90 	vmov	r0, s15
 800a6e6:	eddf 7a5b 	vldr	s15, [pc, #364]	; 800a854 <__ieee754_rem_pio2f+0x248>
 800a6ea:	eea7 0a67 	vfms.f32	s0, s14, s15
 800a6ee:	281f      	cmp	r0, #31
 800a6f0:	eddf 7a5a 	vldr	s15, [pc, #360]	; 800a85c <__ieee754_rem_pio2f+0x250>
 800a6f4:	ee67 7a27 	vmul.f32	s15, s14, s15
 800a6f8:	eeb1 6a47 	vneg.f32	s12, s14
 800a6fc:	ee70 6a67 	vsub.f32	s13, s0, s15
 800a700:	ee16 2a90 	vmov	r2, s13
 800a704:	dc1c      	bgt.n	800a740 <__ieee754_rem_pio2f+0x134>
 800a706:	495a      	ldr	r1, [pc, #360]	; (800a870 <__ieee754_rem_pio2f+0x264>)
 800a708:	1e47      	subs	r7, r0, #1
 800a70a:	f025 03ff 	bic.w	r3, r5, #255	; 0xff
 800a70e:	f851 1027 	ldr.w	r1, [r1, r7, lsl #2]
 800a712:	428b      	cmp	r3, r1
 800a714:	d014      	beq.n	800a740 <__ieee754_rem_pio2f+0x134>
 800a716:	6022      	str	r2, [r4, #0]
 800a718:	ed94 7a00 	vldr	s14, [r4]
 800a71c:	ee30 0a47 	vsub.f32	s0, s0, s14
 800a720:	2e00      	cmp	r6, #0
 800a722:	ee30 0a67 	vsub.f32	s0, s0, s15
 800a726:	ed84 0a01 	vstr	s0, [r4, #4]
 800a72a:	da9c      	bge.n	800a666 <__ieee754_rem_pio2f+0x5a>
 800a72c:	eeb1 7a47 	vneg.f32	s14, s14
 800a730:	eeb1 0a40 	vneg.f32	s0, s0
 800a734:	ed84 7a00 	vstr	s14, [r4]
 800a738:	ed84 0a01 	vstr	s0, [r4, #4]
 800a73c:	4240      	negs	r0, r0
 800a73e:	e792      	b.n	800a666 <__ieee754_rem_pio2f+0x5a>
 800a740:	f3c2 51c7 	ubfx	r1, r2, #23, #8
 800a744:	15eb      	asrs	r3, r5, #23
 800a746:	ebc1 55d5 	rsb	r5, r1, r5, lsr #23
 800a74a:	2d08      	cmp	r5, #8
 800a74c:	dde3      	ble.n	800a716 <__ieee754_rem_pio2f+0x10a>
 800a74e:	eddf 7a44 	vldr	s15, [pc, #272]	; 800a860 <__ieee754_rem_pio2f+0x254>
 800a752:	eef0 6a40 	vmov.f32	s13, s0
 800a756:	eee6 6a27 	vfma.f32	s13, s12, s15
 800a75a:	ee30 0a66 	vsub.f32	s0, s0, s13
 800a75e:	eea6 0a27 	vfma.f32	s0, s12, s15
 800a762:	eddf 7a40 	vldr	s15, [pc, #256]	; 800a864 <__ieee754_rem_pio2f+0x258>
 800a766:	ee97 0a27 	vfnms.f32	s0, s14, s15
 800a76a:	ee76 5ac0 	vsub.f32	s11, s13, s0
 800a76e:	eef0 7a40 	vmov.f32	s15, s0
 800a772:	ee15 2a90 	vmov	r2, s11
 800a776:	f3c2 51c7 	ubfx	r1, r2, #23, #8
 800a77a:	1a5b      	subs	r3, r3, r1
 800a77c:	2b19      	cmp	r3, #25
 800a77e:	dc04      	bgt.n	800a78a <__ieee754_rem_pio2f+0x17e>
 800a780:	edc4 5a00 	vstr	s11, [r4]
 800a784:	eeb0 0a66 	vmov.f32	s0, s13
 800a788:	e7c6      	b.n	800a718 <__ieee754_rem_pio2f+0x10c>
 800a78a:	eddf 5a3a 	vldr	s11, [pc, #232]	; 800a874 <__ieee754_rem_pio2f+0x268>
 800a78e:	eeb0 0a66 	vmov.f32	s0, s13
 800a792:	eea6 0a25 	vfma.f32	s0, s12, s11
 800a796:	ee76 7ac0 	vsub.f32	s15, s13, s0
 800a79a:	eddf 6a37 	vldr	s13, [pc, #220]	; 800a878 <__ieee754_rem_pio2f+0x26c>
 800a79e:	eee6 7a25 	vfma.f32	s15, s12, s11
 800a7a2:	eed7 7a26 	vfnms.f32	s15, s14, s13
 800a7a6:	ee30 7a67 	vsub.f32	s14, s0, s15
 800a7aa:	ed84 7a00 	vstr	s14, [r4]
 800a7ae:	e7b3      	b.n	800a718 <__ieee754_rem_pio2f+0x10c>
 800a7b0:	f1b5 4fff 	cmp.w	r5, #2139095040	; 0x7f800000
 800a7b4:	db06      	blt.n	800a7c4 <__ieee754_rem_pio2f+0x1b8>
 800a7b6:	ee70 7a40 	vsub.f32	s15, s0, s0
 800a7ba:	edc0 7a01 	vstr	s15, [r0, #4]
 800a7be:	edc0 7a00 	vstr	s15, [r0]
 800a7c2:	e733      	b.n	800a62c <__ieee754_rem_pio2f+0x20>
 800a7c4:	15ea      	asrs	r2, r5, #23
 800a7c6:	3a86      	subs	r2, #134	; 0x86
 800a7c8:	eba5 53c2 	sub.w	r3, r5, r2, lsl #23
 800a7cc:	ee07 3a90 	vmov	s15, r3
 800a7d0:	eebd 7ae7 	vcvt.s32.f32	s14, s15
 800a7d4:	eddf 6a29 	vldr	s13, [pc, #164]	; 800a87c <__ieee754_rem_pio2f+0x270>
 800a7d8:	eeb8 7ac7 	vcvt.f32.s32	s14, s14
 800a7dc:	ee77 7ac7 	vsub.f32	s15, s15, s14
 800a7e0:	ed8d 7a03 	vstr	s14, [sp, #12]
 800a7e4:	ee67 7aa6 	vmul.f32	s15, s15, s13
 800a7e8:	eebd 7ae7 	vcvt.s32.f32	s14, s15
 800a7ec:	eeb8 7ac7 	vcvt.f32.s32	s14, s14
 800a7f0:	ee77 7ac7 	vsub.f32	s15, s15, s14
 800a7f4:	ed8d 7a04 	vstr	s14, [sp, #16]
 800a7f8:	ee67 7aa6 	vmul.f32	s15, s15, s13
 800a7fc:	eef5 7a40 	vcmp.f32	s15, #0.0
 800a800:	eef1 fa10 	vmrs	APSR_nzcv, fpscr
 800a804:	edcd 7a05 	vstr	s15, [sp, #20]
 800a808:	d11e      	bne.n	800a848 <__ieee754_rem_pio2f+0x23c>
 800a80a:	eeb5 7a40 	vcmp.f32	s14, #0.0
 800a80e:	eef1 fa10 	vmrs	APSR_nzcv, fpscr
 800a812:	bf14      	ite	ne
 800a814:	2302      	movne	r3, #2
 800a816:	2301      	moveq	r3, #1
 800a818:	4919      	ldr	r1, [pc, #100]	; (800a880 <__ieee754_rem_pio2f+0x274>)
 800a81a:	9101      	str	r1, [sp, #4]
 800a81c:	2102      	movs	r1, #2
 800a81e:	9100      	str	r1, [sp, #0]
 800a820:	a803      	add	r0, sp, #12
 800a822:	4621      	mov	r1, r4
 800a824:	f000 f892 	bl	800a94c <__kernel_rem_pio2f>
 800a828:	2e00      	cmp	r6, #0
 800a82a:	f6bf af1c 	bge.w	800a666 <__ieee754_rem_pio2f+0x5a>
 800a82e:	edd4 7a00 	vldr	s15, [r4]
 800a832:	eef1 7a67 	vneg.f32	s15, s15
 800a836:	edc4 7a00 	vstr	s15, [r4]
 800a83a:	edd4 7a01 	vldr	s15, [r4, #4]
 800a83e:	eef1 7a67 	vneg.f32	s15, s15
 800a842:	edc4 7a01 	vstr	s15, [r4, #4]
 800a846:	e779      	b.n	800a73c <__ieee754_rem_pio2f+0x130>
 800a848:	2303      	movs	r3, #3
 800a84a:	e7e5      	b.n	800a818 <__ieee754_rem_pio2f+0x20c>
 800a84c:	3f490fd8 	.word	0x3f490fd8
 800a850:	4016cbe3 	.word	0x4016cbe3
 800a854:	3fc90f80 	.word	0x3fc90f80
 800a858:	3fc90fd0 	.word	0x3fc90fd0
 800a85c:	37354443 	.word	0x37354443
 800a860:	37354400 	.word	0x37354400
 800a864:	2e85a308 	.word	0x2e85a308
 800a868:	43490f80 	.word	0x43490f80
 800a86c:	3f22f984 	.word	0x3f22f984
 800a870:	0800b2fc 	.word	0x0800b2fc
 800a874:	2e85a300 	.word	0x2e85a300
 800a878:	248d3132 	.word	0x248d3132
 800a87c:	43800000 	.word	0x43800000
 800a880:	0800b37c 	.word	0x0800b37c

0800a884 <__ieee754_sqrtf>:
 800a884:	eeb1 0ac0 	vsqrt.f32	s0, s0
 800a888:	4770      	bx	lr
	...

0800a88c <__kernel_cosf>:
 800a88c:	ee10 3a10 	vmov	r3, s0
 800a890:	f023 4300 	bic.w	r3, r3, #2147483648	; 0x80000000
 800a894:	f1b3 5f48 	cmp.w	r3, #838860800	; 0x32000000
 800a898:	eeb7 6a00 	vmov.f32	s12, #112	; 0x3f800000  1.0
 800a89c:	da05      	bge.n	800a8aa <__kernel_cosf+0x1e>
 800a89e:	eefd 7ac0 	vcvt.s32.f32	s15, s0
 800a8a2:	ee17 2a90 	vmov	r2, s15
 800a8a6:	2a00      	cmp	r2, #0
 800a8a8:	d03d      	beq.n	800a926 <__kernel_cosf+0x9a>
 800a8aa:	ee60 5a00 	vmul.f32	s11, s0, s0
 800a8ae:	eddf 7a1f 	vldr	s15, [pc, #124]	; 800a92c <__kernel_cosf+0xa0>
 800a8b2:	ed9f 7a1f 	vldr	s14, [pc, #124]	; 800a930 <__kernel_cosf+0xa4>
 800a8b6:	eddf 6a1f 	vldr	s13, [pc, #124]	; 800a934 <__kernel_cosf+0xa8>
 800a8ba:	4a1f      	ldr	r2, [pc, #124]	; (800a938 <__kernel_cosf+0xac>)
 800a8bc:	eea5 7aa7 	vfma.f32	s14, s11, s15
 800a8c0:	4293      	cmp	r3, r2
 800a8c2:	eddf 7a1e 	vldr	s15, [pc, #120]	; 800a93c <__kernel_cosf+0xb0>
 800a8c6:	eee7 7a25 	vfma.f32	s15, s14, s11
 800a8ca:	ed9f 7a1d 	vldr	s14, [pc, #116]	; 800a940 <__kernel_cosf+0xb4>
 800a8ce:	eea7 7aa5 	vfma.f32	s14, s15, s11
 800a8d2:	eddf 7a1c 	vldr	s15, [pc, #112]	; 800a944 <__kernel_cosf+0xb8>
 800a8d6:	eee7 7a25 	vfma.f32	s15, s14, s11
 800a8da:	eeb0 7a66 	vmov.f32	s14, s13
 800a8de:	eea7 7aa5 	vfma.f32	s14, s15, s11
 800a8e2:	eef6 6a00 	vmov.f32	s13, #96	; 0x3f000000  0.5
 800a8e6:	ee65 7aa6 	vmul.f32	s15, s11, s13
 800a8ea:	ee67 6a25 	vmul.f32	s13, s14, s11
 800a8ee:	ee20 7ac0 	vnmul.f32	s14, s1, s0
 800a8f2:	eea5 7aa6 	vfma.f32	s14, s11, s13
 800a8f6:	dc04      	bgt.n	800a902 <__kernel_cosf+0x76>
 800a8f8:	ee37 7ac7 	vsub.f32	s14, s15, s14
 800a8fc:	ee36 0a47 	vsub.f32	s0, s12, s14
 800a900:	4770      	bx	lr
 800a902:	4a11      	ldr	r2, [pc, #68]	; (800a948 <__kernel_cosf+0xbc>)
 800a904:	4293      	cmp	r3, r2
 800a906:	bfda      	itte	le
 800a908:	f103 437f 	addle.w	r3, r3, #4278190080	; 0xff000000
 800a90c:	ee06 3a90 	vmovle	s13, r3
 800a910:	eef5 6a02 	vmovgt.f32	s13, #82	; 0x3e900000  0.2812500
 800a914:	ee77 7ae6 	vsub.f32	s15, s15, s13
 800a918:	ee36 0a66 	vsub.f32	s0, s12, s13
 800a91c:	ee77 7ac7 	vsub.f32	s15, s15, s14
 800a920:	ee30 0a67 	vsub.f32	s0, s0, s15
 800a924:	4770      	bx	lr
 800a926:	eeb0 0a46 	vmov.f32	s0, s12
 800a92a:	4770      	bx	lr
 800a92c:	ad47d74e 	.word	0xad47d74e
 800a930:	310f74f6 	.word	0x310f74f6
 800a934:	3d2aaaab 	.word	0x3d2aaaab
 800a938:	3e999999 	.word	0x3e999999
 800a93c:	b493f27c 	.word	0xb493f27c
 800a940:	37d00d01 	.word	0x37d00d01
 800a944:	bab60b61 	.word	0xbab60b61
 800a948:	3f480000 	.word	0x3f480000

0800a94c <__kernel_rem_pio2f>:
 800a94c:	e92d 4ff0 	stmdb	sp!, {r4, r5, r6, r7, r8, r9, sl, fp, lr}
 800a950:	ed2d 8b04 	vpush	{d8-d9}
 800a954:	b0d7      	sub	sp, #348	; 0x15c
 800a956:	4616      	mov	r6, r2
 800a958:	4698      	mov	r8, r3
 800a95a:	9a64      	ldr	r2, [sp, #400]	; 0x190
 800a95c:	4bbb      	ldr	r3, [pc, #748]	; (800ac4c <__kernel_rem_pio2f+0x300>)
 800a95e:	9001      	str	r0, [sp, #4]
 800a960:	f853 7022 	ldr.w	r7, [r3, r2, lsl #2]
 800a964:	1d33      	adds	r3, r6, #4
 800a966:	460d      	mov	r5, r1
 800a968:	f108 39ff 	add.w	r9, r8, #4294967295
 800a96c:	db29      	blt.n	800a9c2 <__kernel_rem_pio2f+0x76>
 800a96e:	1ef1      	subs	r1, r6, #3
 800a970:	bf48      	it	mi
 800a972:	1d31      	addmi	r1, r6, #4
 800a974:	10c9      	asrs	r1, r1, #3
 800a976:	1c4c      	adds	r4, r1, #1
 800a978:	00e3      	lsls	r3, r4, #3
 800a97a:	9302      	str	r3, [sp, #8]
 800a97c:	9b65      	ldr	r3, [sp, #404]	; 0x194
 800a97e:	ed9f 7ab7 	vldr	s14, [pc, #732]	; 800ac5c <__kernel_rem_pio2f+0x310>
 800a982:	eba1 0009 	sub.w	r0, r1, r9
 800a986:	eb03 0e80 	add.w	lr, r3, r0, lsl #2
 800a98a:	eba6 04c4 	sub.w	r4, r6, r4, lsl #3
 800a98e:	eb07 0c09 	add.w	ip, r7, r9
 800a992:	f10d 0a68 	add.w	sl, sp, #104	; 0x68
 800a996:	2300      	movs	r3, #0
 800a998:	4563      	cmp	r3, ip
 800a99a:	dd14      	ble.n	800a9c6 <__kernel_rem_pio2f+0x7a>
 800a99c:	ab1a      	add	r3, sp, #104	; 0x68
 800a99e:	eb03 0388 	add.w	r3, r3, r8, lsl #2
 800a9a2:	46cc      	mov	ip, r9
 800a9a4:	f50d 7a84 	add.w	sl, sp, #264	; 0x108
 800a9a8:	f1c8 0b01 	rsb	fp, r8, #1
 800a9ac:	eb0b 020c 	add.w	r2, fp, ip
 800a9b0:	4297      	cmp	r7, r2
 800a9b2:	db27      	blt.n	800aa04 <__kernel_rem_pio2f+0xb8>
 800a9b4:	f8dd e004 	ldr.w	lr, [sp, #4]
 800a9b8:	eddf 7aa8 	vldr	s15, [pc, #672]	; 800ac5c <__kernel_rem_pio2f+0x310>
 800a9bc:	4618      	mov	r0, r3
 800a9be:	2200      	movs	r2, #0
 800a9c0:	e016      	b.n	800a9f0 <__kernel_rem_pio2f+0xa4>
 800a9c2:	2100      	movs	r1, #0
 800a9c4:	e7d7      	b.n	800a976 <__kernel_rem_pio2f+0x2a>
 800a9c6:	42d8      	cmn	r0, r3
 800a9c8:	bf5d      	ittte	pl
 800a9ca:	f85e 2023 	ldrpl.w	r2, [lr, r3, lsl #2]
 800a9ce:	ee07 2a90 	vmovpl	s15, r2
 800a9d2:	eef8 7ae7 	vcvtpl.f32.s32	s15, s15
 800a9d6:	eef0 7a47 	vmovmi.f32	s15, s14
 800a9da:	ecea 7a01 	vstmia	sl!, {s15}
 800a9de:	3301      	adds	r3, #1
 800a9e0:	e7da      	b.n	800a998 <__kernel_rem_pio2f+0x4c>
 800a9e2:	ecfe 6a01 	vldmia	lr!, {s13}
 800a9e6:	ed90 7a00 	vldr	s14, [r0]
 800a9ea:	eee6 7a87 	vfma.f32	s15, s13, s14
 800a9ee:	3201      	adds	r2, #1
 800a9f0:	454a      	cmp	r2, r9
 800a9f2:	f1a0 0004 	sub.w	r0, r0, #4
 800a9f6:	ddf4      	ble.n	800a9e2 <__kernel_rem_pio2f+0x96>
 800a9f8:	ecea 7a01 	vstmia	sl!, {s15}
 800a9fc:	3304      	adds	r3, #4
 800a9fe:	f10c 0c01 	add.w	ip, ip, #1
 800aa02:	e7d3      	b.n	800a9ac <__kernel_rem_pio2f+0x60>
 800aa04:	ab06      	add	r3, sp, #24
 800aa06:	eb03 0387 	add.w	r3, r3, r7, lsl #2
 800aa0a:	9304      	str	r3, [sp, #16]
 800aa0c:	9b65      	ldr	r3, [sp, #404]	; 0x194
 800aa0e:	eddf 8a92 	vldr	s17, [pc, #584]	; 800ac58 <__kernel_rem_pio2f+0x30c>
 800aa12:	ed9f 9a90 	vldr	s18, [pc, #576]	; 800ac54 <__kernel_rem_pio2f+0x308>
 800aa16:	eb03 0381 	add.w	r3, r3, r1, lsl #2
 800aa1a:	9303      	str	r3, [sp, #12]
 800aa1c:	46ba      	mov	sl, r7
 800aa1e:	ab56      	add	r3, sp, #344	; 0x158
 800aa20:	eb03 038a 	add.w	r3, r3, sl, lsl #2
 800aa24:	ed13 0a14 	vldr	s0, [r3, #-80]	; 0xffffffb0
 800aa28:	ab06      	add	r3, sp, #24
 800aa2a:	4618      	mov	r0, r3
 800aa2c:	4652      	mov	r2, sl
 800aa2e:	2a00      	cmp	r2, #0
 800aa30:	dc51      	bgt.n	800aad6 <__kernel_rem_pio2f+0x18a>
 800aa32:	4620      	mov	r0, r4
 800aa34:	9305      	str	r3, [sp, #20]
 800aa36:	f000 fb7f 	bl	800b138 <scalbnf>
 800aa3a:	eeb0 8a40 	vmov.f32	s16, s0
 800aa3e:	eeb4 0a00 	vmov.f32	s0, #64	; 0x3e000000  0.125
 800aa42:	ee28 0a00 	vmul.f32	s0, s16, s0
 800aa46:	f000 fb2f 	bl	800b0a8 <floorf>
 800aa4a:	eef2 7a00 	vmov.f32	s15, #32	; 0x41000000  8.0
 800aa4e:	eea0 8a67 	vfms.f32	s16, s0, s15
 800aa52:	2c00      	cmp	r4, #0
 800aa54:	9b05      	ldr	r3, [sp, #20]
 800aa56:	eefd 7ac8 	vcvt.s32.f32	s15, s16
 800aa5a:	eeb8 0ae7 	vcvt.f32.s32	s0, s15
 800aa5e:	edcd 7a00 	vstr	s15, [sp]
 800aa62:	ee38 8a40 	vsub.f32	s16, s16, s0
 800aa66:	dd4b      	ble.n	800ab00 <__kernel_rem_pio2f+0x1b4>
 800aa68:	f10a 3cff 	add.w	ip, sl, #4294967295
 800aa6c:	aa06      	add	r2, sp, #24
 800aa6e:	f1c4 0e08 	rsb	lr, r4, #8
 800aa72:	f852 202c 	ldr.w	r2, [r2, ip, lsl #2]
 800aa76:	ee17 1a90 	vmov	r1, s15
 800aa7a:	fa42 f00e 	asr.w	r0, r2, lr
 800aa7e:	4401      	add	r1, r0
 800aa80:	9100      	str	r1, [sp, #0]
 800aa82:	fa00 f00e 	lsl.w	r0, r0, lr
 800aa86:	a906      	add	r1, sp, #24
 800aa88:	1a12      	subs	r2, r2, r0
 800aa8a:	f841 202c 	str.w	r2, [r1, ip, lsl #2]
 800aa8e:	f1c4 0007 	rsb	r0, r4, #7
 800aa92:	fa42 fb00 	asr.w	fp, r2, r0
 800aa96:	f1bb 0f00 	cmp.w	fp, #0
 800aa9a:	dd43      	ble.n	800ab24 <__kernel_rem_pio2f+0x1d8>
 800aa9c:	9a00      	ldr	r2, [sp, #0]
 800aa9e:	f04f 0e00 	mov.w	lr, #0
 800aaa2:	3201      	adds	r2, #1
 800aaa4:	9200      	str	r2, [sp, #0]
 800aaa6:	4670      	mov	r0, lr
 800aaa8:	45f2      	cmp	sl, lr
 800aaaa:	dc6c      	bgt.n	800ab86 <__kernel_rem_pio2f+0x23a>
 800aaac:	2c00      	cmp	r4, #0
 800aaae:	dd04      	ble.n	800aaba <__kernel_rem_pio2f+0x16e>
 800aab0:	2c01      	cmp	r4, #1
 800aab2:	d079      	beq.n	800aba8 <__kernel_rem_pio2f+0x25c>
 800aab4:	2c02      	cmp	r4, #2
 800aab6:	f000 8082 	beq.w	800abbe <__kernel_rem_pio2f+0x272>
 800aaba:	f1bb 0f02 	cmp.w	fp, #2
 800aabe:	d131      	bne.n	800ab24 <__kernel_rem_pio2f+0x1d8>
 800aac0:	eeb7 0a00 	vmov.f32	s0, #112	; 0x3f800000  1.0
 800aac4:	ee30 8a48 	vsub.f32	s16, s0, s16
 800aac8:	b360      	cbz	r0, 800ab24 <__kernel_rem_pio2f+0x1d8>
 800aaca:	4620      	mov	r0, r4
 800aacc:	f000 fb34 	bl	800b138 <scalbnf>
 800aad0:	ee38 8a40 	vsub.f32	s16, s16, s0
 800aad4:	e026      	b.n	800ab24 <__kernel_rem_pio2f+0x1d8>
 800aad6:	ee60 7a28 	vmul.f32	s15, s0, s17
 800aada:	3a01      	subs	r2, #1
 800aadc:	eefd 7ae7 	vcvt.s32.f32	s15, s15
 800aae0:	a942      	add	r1, sp, #264	; 0x108
 800aae2:	eef8 7ae7 	vcvt.f32.s32	s15, s15
 800aae6:	eb01 0c82 	add.w	ip, r1, r2, lsl #2
 800aaea:	eea7 0ac9 	vfms.f32	s0, s15, s18
 800aaee:	eebd 0ac0 	vcvt.s32.f32	s0, s0
 800aaf2:	eca0 0a01 	vstmia	r0!, {s0}
 800aaf6:	ed9c 0a00 	vldr	s0, [ip]
 800aafa:	ee37 0a80 	vadd.f32	s0, s15, s0
 800aafe:	e796      	b.n	800aa2e <__kernel_rem_pio2f+0xe2>
 800ab00:	d107      	bne.n	800ab12 <__kernel_rem_pio2f+0x1c6>
 800ab02:	f10a 32ff 	add.w	r2, sl, #4294967295
 800ab06:	a906      	add	r1, sp, #24
 800ab08:	f851 2022 	ldr.w	r2, [r1, r2, lsl #2]
 800ab0c:	ea4f 2b22 	mov.w	fp, r2, asr #8
 800ab10:	e7c1      	b.n	800aa96 <__kernel_rem_pio2f+0x14a>
 800ab12:	eef6 7a00 	vmov.f32	s15, #96	; 0x3f000000  0.5
 800ab16:	eeb4 8ae7 	vcmpe.f32	s16, s15
 800ab1a:	eef1 fa10 	vmrs	APSR_nzcv, fpscr
 800ab1e:	da2f      	bge.n	800ab80 <__kernel_rem_pio2f+0x234>
 800ab20:	f04f 0b00 	mov.w	fp, #0
 800ab24:	eeb5 8a40 	vcmp.f32	s16, #0.0
 800ab28:	eef1 fa10 	vmrs	APSR_nzcv, fpscr
 800ab2c:	f040 8098 	bne.w	800ac60 <__kernel_rem_pio2f+0x314>
 800ab30:	f10a 33ff 	add.w	r3, sl, #4294967295
 800ab34:	469c      	mov	ip, r3
 800ab36:	2200      	movs	r2, #0
 800ab38:	45bc      	cmp	ip, r7
 800ab3a:	da48      	bge.n	800abce <__kernel_rem_pio2f+0x282>
 800ab3c:	2a00      	cmp	r2, #0
 800ab3e:	d05f      	beq.n	800ac00 <__kernel_rem_pio2f+0x2b4>
 800ab40:	aa06      	add	r2, sp, #24
 800ab42:	3c08      	subs	r4, #8
 800ab44:	f852 1023 	ldr.w	r1, [r2, r3, lsl #2]
 800ab48:	2900      	cmp	r1, #0
 800ab4a:	d07d      	beq.n	800ac48 <__kernel_rem_pio2f+0x2fc>
 800ab4c:	4620      	mov	r0, r4
 800ab4e:	eeb7 0a00 	vmov.f32	s0, #112	; 0x3f800000  1.0
 800ab52:	9301      	str	r3, [sp, #4]
 800ab54:	f000 faf0 	bl	800b138 <scalbnf>
 800ab58:	9b01      	ldr	r3, [sp, #4]
 800ab5a:	ed9f 7a3f 	vldr	s14, [pc, #252]	; 800ac58 <__kernel_rem_pio2f+0x30c>
 800ab5e:	4619      	mov	r1, r3
 800ab60:	2900      	cmp	r1, #0
 800ab62:	f280 80af 	bge.w	800acc4 <__kernel_rem_pio2f+0x378>
 800ab66:	4618      	mov	r0, r3
 800ab68:	2400      	movs	r4, #0
 800ab6a:	2800      	cmp	r0, #0
 800ab6c:	f2c0 80d0 	blt.w	800ad10 <__kernel_rem_pio2f+0x3c4>
 800ab70:	a942      	add	r1, sp, #264	; 0x108
 800ab72:	eb01 0680 	add.w	r6, r1, r0, lsl #2
 800ab76:	4a36      	ldr	r2, [pc, #216]	; (800ac50 <__kernel_rem_pio2f+0x304>)
 800ab78:	eddf 7a38 	vldr	s15, [pc, #224]	; 800ac5c <__kernel_rem_pio2f+0x310>
 800ab7c:	2100      	movs	r1, #0
 800ab7e:	e0bb      	b.n	800acf8 <__kernel_rem_pio2f+0x3ac>
 800ab80:	f04f 0b02 	mov.w	fp, #2
 800ab84:	e78a      	b.n	800aa9c <__kernel_rem_pio2f+0x150>
 800ab86:	681a      	ldr	r2, [r3, #0]
 800ab88:	b948      	cbnz	r0, 800ab9e <__kernel_rem_pio2f+0x252>
 800ab8a:	b11a      	cbz	r2, 800ab94 <__kernel_rem_pio2f+0x248>
 800ab8c:	f5c2 7280 	rsb	r2, r2, #256	; 0x100
 800ab90:	601a      	str	r2, [r3, #0]
 800ab92:	2201      	movs	r2, #1
 800ab94:	f10e 0e01 	add.w	lr, lr, #1
 800ab98:	3304      	adds	r3, #4
 800ab9a:	4610      	mov	r0, r2
 800ab9c:	e784      	b.n	800aaa8 <__kernel_rem_pio2f+0x15c>
 800ab9e:	f1c2 02ff 	rsb	r2, r2, #255	; 0xff
 800aba2:	601a      	str	r2, [r3, #0]
 800aba4:	4602      	mov	r2, r0
 800aba6:	e7f5      	b.n	800ab94 <__kernel_rem_pio2f+0x248>
 800aba8:	f10a 3cff 	add.w	ip, sl, #4294967295
 800abac:	ab06      	add	r3, sp, #24
 800abae:	f853 302c 	ldr.w	r3, [r3, ip, lsl #2]
 800abb2:	f003 037f 	and.w	r3, r3, #127	; 0x7f
 800abb6:	aa06      	add	r2, sp, #24
 800abb8:	f842 302c 	str.w	r3, [r2, ip, lsl #2]
 800abbc:	e77d      	b.n	800aaba <__kernel_rem_pio2f+0x16e>
 800abbe:	f10a 3cff 	add.w	ip, sl, #4294967295
 800abc2:	ab06      	add	r3, sp, #24
 800abc4:	f853 302c 	ldr.w	r3, [r3, ip, lsl #2]
 800abc8:	f003 033f 	and.w	r3, r3, #63	; 0x3f
 800abcc:	e7f3      	b.n	800abb6 <__kernel_rem_pio2f+0x26a>
 800abce:	a906      	add	r1, sp, #24
 800abd0:	f851 002c 	ldr.w	r0, [r1, ip, lsl #2]
 800abd4:	f10c 3cff 	add.w	ip, ip, #4294967295
 800abd8:	4302      	orrs	r2, r0
 800abda:	e7ad      	b.n	800ab38 <__kernel_rem_pio2f+0x1ec>
 800abdc:	3001      	adds	r0, #1
 800abde:	f853 2d04 	ldr.w	r2, [r3, #-4]!
 800abe2:	2a00      	cmp	r2, #0
 800abe4:	d0fa      	beq.n	800abdc <__kernel_rem_pio2f+0x290>
 800abe6:	a91a      	add	r1, sp, #104	; 0x68
 800abe8:	eb0a 0208 	add.w	r2, sl, r8
 800abec:	eb01 0282 	add.w	r2, r1, r2, lsl #2
 800abf0:	f10a 0301 	add.w	r3, sl, #1
 800abf4:	eb0a 0100 	add.w	r1, sl, r0
 800abf8:	4299      	cmp	r1, r3
 800abfa:	da04      	bge.n	800ac06 <__kernel_rem_pio2f+0x2ba>
 800abfc:	468a      	mov	sl, r1
 800abfe:	e70e      	b.n	800aa1e <__kernel_rem_pio2f+0xd2>
 800ac00:	9b04      	ldr	r3, [sp, #16]
 800ac02:	2001      	movs	r0, #1
 800ac04:	e7eb      	b.n	800abde <__kernel_rem_pio2f+0x292>
 800ac06:	9803      	ldr	r0, [sp, #12]
 800ac08:	f8dd c004 	ldr.w	ip, [sp, #4]
 800ac0c:	f850 0023 	ldr.w	r0, [r0, r3, lsl #2]
 800ac10:	9000      	str	r0, [sp, #0]
 800ac12:	ee07 0a90 	vmov	s15, r0
 800ac16:	eef8 7ae7 	vcvt.f32.s32	s15, s15
 800ac1a:	2000      	movs	r0, #0
 800ac1c:	ece2 7a01 	vstmia	r2!, {s15}
 800ac20:	eddf 7a0e 	vldr	s15, [pc, #56]	; 800ac5c <__kernel_rem_pio2f+0x310>
 800ac24:	4696      	mov	lr, r2
 800ac26:	4548      	cmp	r0, r9
 800ac28:	dd06      	ble.n	800ac38 <__kernel_rem_pio2f+0x2ec>
 800ac2a:	a842      	add	r0, sp, #264	; 0x108
 800ac2c:	eb00 0083 	add.w	r0, r0, r3, lsl #2
 800ac30:	edc0 7a00 	vstr	s15, [r0]
 800ac34:	3301      	adds	r3, #1
 800ac36:	e7df      	b.n	800abf8 <__kernel_rem_pio2f+0x2ac>
 800ac38:	ecfc 6a01 	vldmia	ip!, {s13}
 800ac3c:	ed3e 7a01 	vldmdb	lr!, {s14}
 800ac40:	3001      	adds	r0, #1
 800ac42:	eee6 7a87 	vfma.f32	s15, s13, s14
 800ac46:	e7ee      	b.n	800ac26 <__kernel_rem_pio2f+0x2da>
 800ac48:	3b01      	subs	r3, #1
 800ac4a:	e779      	b.n	800ab40 <__kernel_rem_pio2f+0x1f4>
 800ac4c:	0800b6c0 	.word	0x0800b6c0
 800ac50:	0800b694 	.word	0x0800b694
 800ac54:	43800000 	.word	0x43800000
 800ac58:	3b800000 	.word	0x3b800000
 800ac5c:	00000000 	.word	0x00000000
 800ac60:	9b02      	ldr	r3, [sp, #8]
 800ac62:	eeb0 0a48 	vmov.f32	s0, s16
 800ac66:	1b98      	subs	r0, r3, r6
 800ac68:	f000 fa66 	bl	800b138 <scalbnf>
 800ac6c:	ed1f 7a07 	vldr	s14, [pc, #-28]	; 800ac54 <__kernel_rem_pio2f+0x308>
 800ac70:	eeb4 0ac7 	vcmpe.f32	s0, s14
 800ac74:	eef1 fa10 	vmrs	APSR_nzcv, fpscr
 800ac78:	db1b      	blt.n	800acb2 <__kernel_rem_pio2f+0x366>
 800ac7a:	ed5f 7a09 	vldr	s15, [pc, #-36]	; 800ac58 <__kernel_rem_pio2f+0x30c>
 800ac7e:	ee60 7a27 	vmul.f32	s15, s0, s15
 800ac82:	aa06      	add	r2, sp, #24
 800ac84:	eefd 7ae7 	vcvt.s32.f32	s15, s15
 800ac88:	a906      	add	r1, sp, #24
 800ac8a:	eef8 7ae7 	vcvt.f32.s32	s15, s15
 800ac8e:	3408      	adds	r4, #8
 800ac90:	eea7 0ac7 	vfms.f32	s0, s15, s14
 800ac94:	eefd 7ae7 	vcvt.s32.f32	s15, s15
 800ac98:	eebd 0ac0 	vcvt.s32.f32	s0, s0
 800ac9c:	ee10 3a10 	vmov	r3, s0
 800aca0:	f842 302a 	str.w	r3, [r2, sl, lsl #2]
 800aca4:	ee17 2a90 	vmov	r2, s15
 800aca8:	f10a 0301 	add.w	r3, sl, #1
 800acac:	f841 2023 	str.w	r2, [r1, r3, lsl #2]
 800acb0:	e74c      	b.n	800ab4c <__kernel_rem_pio2f+0x200>
 800acb2:	eebd 0ac0 	vcvt.s32.f32	s0, s0
 800acb6:	aa06      	add	r2, sp, #24
 800acb8:	ee10 3a10 	vmov	r3, s0
 800acbc:	f842 302a 	str.w	r3, [r2, sl, lsl #2]
 800acc0:	4653      	mov	r3, sl
 800acc2:	e743      	b.n	800ab4c <__kernel_rem_pio2f+0x200>
 800acc4:	aa42      	add	r2, sp, #264	; 0x108
 800acc6:	eb02 0081 	add.w	r0, r2, r1, lsl #2
 800acca:	aa06      	add	r2, sp, #24
 800accc:	f852 2021 	ldr.w	r2, [r2, r1, lsl #2]
 800acd0:	9201      	str	r2, [sp, #4]
 800acd2:	ee07 2a90 	vmov	s15, r2
 800acd6:	eef8 7ae7 	vcvt.f32.s32	s15, s15
 800acda:	3901      	subs	r1, #1
 800acdc:	ee67 7a80 	vmul.f32	s15, s15, s0
 800ace0:	ee20 0a07 	vmul.f32	s0, s0, s14
 800ace4:	edc0 7a00 	vstr	s15, [r0]
 800ace8:	e73a      	b.n	800ab60 <__kernel_rem_pio2f+0x214>
 800acea:	ecf2 6a01 	vldmia	r2!, {s13}
 800acee:	ecb6 7a01 	vldmia	r6!, {s14}
 800acf2:	eee6 7a87 	vfma.f32	s15, s13, s14
 800acf6:	3101      	adds	r1, #1
 800acf8:	42b9      	cmp	r1, r7
 800acfa:	dc01      	bgt.n	800ad00 <__kernel_rem_pio2f+0x3b4>
 800acfc:	428c      	cmp	r4, r1
 800acfe:	daf4      	bge.n	800acea <__kernel_rem_pio2f+0x39e>
 800ad00:	aa56      	add	r2, sp, #344	; 0x158
 800ad02:	eb02 0184 	add.w	r1, r2, r4, lsl #2
 800ad06:	ed41 7a28 	vstr	s15, [r1, #-160]	; 0xffffff60
 800ad0a:	3801      	subs	r0, #1
 800ad0c:	3401      	adds	r4, #1
 800ad0e:	e72c      	b.n	800ab6a <__kernel_rem_pio2f+0x21e>
 800ad10:	9a64      	ldr	r2, [sp, #400]	; 0x190
 800ad12:	2a02      	cmp	r2, #2
 800ad14:	dc0a      	bgt.n	800ad2c <__kernel_rem_pio2f+0x3e0>
 800ad16:	2a00      	cmp	r2, #0
 800ad18:	dc61      	bgt.n	800adde <__kernel_rem_pio2f+0x492>
 800ad1a:	d03c      	beq.n	800ad96 <__kernel_rem_pio2f+0x44a>
 800ad1c:	9b00      	ldr	r3, [sp, #0]
 800ad1e:	f003 0007 	and.w	r0, r3, #7
 800ad22:	b057      	add	sp, #348	; 0x15c
 800ad24:	ecbd 8b04 	vpop	{d8-d9}
 800ad28:	e8bd 8ff0 	ldmia.w	sp!, {r4, r5, r6, r7, r8, r9, sl, fp, pc}
 800ad2c:	9a64      	ldr	r2, [sp, #400]	; 0x190
 800ad2e:	2a03      	cmp	r2, #3
 800ad30:	d1f4      	bne.n	800ad1c <__kernel_rem_pio2f+0x3d0>
 800ad32:	aa2e      	add	r2, sp, #184	; 0xb8
 800ad34:	eb02 0183 	add.w	r1, r2, r3, lsl #2
 800ad38:	4608      	mov	r0, r1
 800ad3a:	461c      	mov	r4, r3
 800ad3c:	2c00      	cmp	r4, #0
 800ad3e:	f1a0 0004 	sub.w	r0, r0, #4
 800ad42:	dc59      	bgt.n	800adf8 <__kernel_rem_pio2f+0x4ac>
 800ad44:	4618      	mov	r0, r3
 800ad46:	2801      	cmp	r0, #1
 800ad48:	f1a1 0104 	sub.w	r1, r1, #4
 800ad4c:	dc64      	bgt.n	800ae18 <__kernel_rem_pio2f+0x4cc>
 800ad4e:	ed5f 7a3d 	vldr	s15, [pc, #-244]	; 800ac5c <__kernel_rem_pio2f+0x310>
 800ad52:	2b01      	cmp	r3, #1
 800ad54:	dc70      	bgt.n	800ae38 <__kernel_rem_pio2f+0x4ec>
 800ad56:	eddd 6a2e 	vldr	s13, [sp, #184]	; 0xb8
 800ad5a:	ed9d 7a2f 	vldr	s14, [sp, #188]	; 0xbc
 800ad5e:	f1bb 0f00 	cmp.w	fp, #0
 800ad62:	d172      	bne.n	800ae4a <__kernel_rem_pio2f+0x4fe>
 800ad64:	edc5 6a00 	vstr	s13, [r5]
 800ad68:	ed85 7a01 	vstr	s14, [r5, #4]
 800ad6c:	edc5 7a02 	vstr	s15, [r5, #8]
 800ad70:	e7d4      	b.n	800ad1c <__kernel_rem_pio2f+0x3d0>
 800ad72:	aa2e      	add	r2, sp, #184	; 0xb8
 800ad74:	eb02 0183 	add.w	r1, r2, r3, lsl #2
 800ad78:	ed91 7a00 	vldr	s14, [r1]
 800ad7c:	ee77 7a87 	vadd.f32	s15, s15, s14
 800ad80:	3b01      	subs	r3, #1
 800ad82:	2b00      	cmp	r3, #0
 800ad84:	daf5      	bge.n	800ad72 <__kernel_rem_pio2f+0x426>
 800ad86:	f1bb 0f00 	cmp.w	fp, #0
 800ad8a:	d001      	beq.n	800ad90 <__kernel_rem_pio2f+0x444>
 800ad8c:	eef1 7a67 	vneg.f32	s15, s15
 800ad90:	edc5 7a00 	vstr	s15, [r5]
 800ad94:	e7c2      	b.n	800ad1c <__kernel_rem_pio2f+0x3d0>
 800ad96:	ed5f 7a4f 	vldr	s15, [pc, #-316]	; 800ac5c <__kernel_rem_pio2f+0x310>
 800ad9a:	e7f2      	b.n	800ad82 <__kernel_rem_pio2f+0x436>
 800ad9c:	aa2e      	add	r2, sp, #184	; 0xb8
 800ad9e:	eb02 0081 	add.w	r0, r2, r1, lsl #2
 800ada2:	edd0 7a00 	vldr	s15, [r0]
 800ada6:	ee37 7a27 	vadd.f32	s14, s14, s15
 800adaa:	3901      	subs	r1, #1
 800adac:	2900      	cmp	r1, #0
 800adae:	daf5      	bge.n	800ad9c <__kernel_rem_pio2f+0x450>
 800adb0:	f1bb 0f00 	cmp.w	fp, #0
 800adb4:	d017      	beq.n	800ade6 <__kernel_rem_pio2f+0x49a>
 800adb6:	eef1 7a47 	vneg.f32	s15, s14
 800adba:	edc5 7a00 	vstr	s15, [r5]
 800adbe:	eddd 7a2e 	vldr	s15, [sp, #184]	; 0xb8
 800adc2:	ee77 7ac7 	vsub.f32	s15, s15, s14
 800adc6:	a82f      	add	r0, sp, #188	; 0xbc
 800adc8:	2101      	movs	r1, #1
 800adca:	428b      	cmp	r3, r1
 800adcc:	da0e      	bge.n	800adec <__kernel_rem_pio2f+0x4a0>
 800adce:	f1bb 0f00 	cmp.w	fp, #0
 800add2:	d001      	beq.n	800add8 <__kernel_rem_pio2f+0x48c>
 800add4:	eef1 7a67 	vneg.f32	s15, s15
 800add8:	edc5 7a01 	vstr	s15, [r5, #4]
 800addc:	e79e      	b.n	800ad1c <__kernel_rem_pio2f+0x3d0>
 800adde:	ed1f 7a61 	vldr	s14, [pc, #-388]	; 800ac5c <__kernel_rem_pio2f+0x310>
 800ade2:	4619      	mov	r1, r3
 800ade4:	e7e2      	b.n	800adac <__kernel_rem_pio2f+0x460>
 800ade6:	eef0 7a47 	vmov.f32	s15, s14
 800adea:	e7e6      	b.n	800adba <__kernel_rem_pio2f+0x46e>
 800adec:	ecb0 7a01 	vldmia	r0!, {s14}
 800adf0:	3101      	adds	r1, #1
 800adf2:	ee77 7a87 	vadd.f32	s15, s15, s14
 800adf6:	e7e8      	b.n	800adca <__kernel_rem_pio2f+0x47e>
 800adf8:	edd0 7a00 	vldr	s15, [r0]
 800adfc:	edd0 6a01 	vldr	s13, [r0, #4]
 800ae00:	ee37 7aa6 	vadd.f32	s14, s15, s13
 800ae04:	3c01      	subs	r4, #1
 800ae06:	ee77 7ac7 	vsub.f32	s15, s15, s14
 800ae0a:	ed80 7a00 	vstr	s14, [r0]
 800ae0e:	ee77 7aa6 	vadd.f32	s15, s15, s13
 800ae12:	edc0 7a01 	vstr	s15, [r0, #4]
 800ae16:	e791      	b.n	800ad3c <__kernel_rem_pio2f+0x3f0>
 800ae18:	edd1 7a00 	vldr	s15, [r1]
 800ae1c:	edd1 6a01 	vldr	s13, [r1, #4]
 800ae20:	ee37 7aa6 	vadd.f32	s14, s15, s13
 800ae24:	3801      	subs	r0, #1
 800ae26:	ee77 7ac7 	vsub.f32	s15, s15, s14
 800ae2a:	ed81 7a00 	vstr	s14, [r1]
 800ae2e:	ee77 7aa6 	vadd.f32	s15, s15, s13
 800ae32:	edc1 7a01 	vstr	s15, [r1, #4]
 800ae36:	e786      	b.n	800ad46 <__kernel_rem_pio2f+0x3fa>
 800ae38:	aa2e      	add	r2, sp, #184	; 0xb8
 800ae3a:	eb02 0183 	add.w	r1, r2, r3, lsl #2
 800ae3e:	ed91 7a00 	vldr	s14, [r1]
 800ae42:	3b01      	subs	r3, #1
 800ae44:	ee77 7a87 	vadd.f32	s15, s15, s14
 800ae48:	e783      	b.n	800ad52 <__kernel_rem_pio2f+0x406>
 800ae4a:	eef1 6a66 	vneg.f32	s13, s13
 800ae4e:	eeb1 7a47 	vneg.f32	s14, s14
 800ae52:	edc5 6a00 	vstr	s13, [r5]
 800ae56:	ed85 7a01 	vstr	s14, [r5, #4]
 800ae5a:	eef1 7a67 	vneg.f32	s15, s15
 800ae5e:	e785      	b.n	800ad6c <__kernel_rem_pio2f+0x420>

0800ae60 <__kernel_sinf>:
 800ae60:	ee10 3a10 	vmov	r3, s0
 800ae64:	f023 4300 	bic.w	r3, r3, #2147483648	; 0x80000000
 800ae68:	f1b3 5f48 	cmp.w	r3, #838860800	; 0x32000000
 800ae6c:	da04      	bge.n	800ae78 <__kernel_sinf+0x18>
 800ae6e:	eefd 7ac0 	vcvt.s32.f32	s15, s0
 800ae72:	ee17 3a90 	vmov	r3, s15
 800ae76:	b35b      	cbz	r3, 800aed0 <__kernel_sinf+0x70>
 800ae78:	ee20 7a00 	vmul.f32	s14, s0, s0
 800ae7c:	eddf 7a15 	vldr	s15, [pc, #84]	; 800aed4 <__kernel_sinf+0x74>
 800ae80:	ed9f 6a15 	vldr	s12, [pc, #84]	; 800aed8 <__kernel_sinf+0x78>
 800ae84:	eea7 6a27 	vfma.f32	s12, s14, s15
 800ae88:	eddf 7a14 	vldr	s15, [pc, #80]	; 800aedc <__kernel_sinf+0x7c>
 800ae8c:	eee6 7a07 	vfma.f32	s15, s12, s14
 800ae90:	ed9f 6a13 	vldr	s12, [pc, #76]	; 800aee0 <__kernel_sinf+0x80>
 800ae94:	eea7 6a87 	vfma.f32	s12, s15, s14
 800ae98:	eddf 7a12 	vldr	s15, [pc, #72]	; 800aee4 <__kernel_sinf+0x84>
 800ae9c:	ee60 6a07 	vmul.f32	s13, s0, s14
 800aea0:	eee6 7a07 	vfma.f32	s15, s12, s14
 800aea4:	b930      	cbnz	r0, 800aeb4 <__kernel_sinf+0x54>
 800aea6:	ed9f 6a10 	vldr	s12, [pc, #64]	; 800aee8 <__kernel_sinf+0x88>
 800aeaa:	eea7 6a27 	vfma.f32	s12, s14, s15
 800aeae:	eea6 0a26 	vfma.f32	s0, s12, s13
 800aeb2:	4770      	bx	lr
 800aeb4:	ee67 7ae6 	vnmul.f32	s15, s15, s13
 800aeb8:	eeb6 6a00 	vmov.f32	s12, #96	; 0x3f000000  0.5
 800aebc:	eee0 7a86 	vfma.f32	s15, s1, s12
 800aec0:	eed7 0a87 	vfnms.f32	s1, s15, s14
 800aec4:	eddf 7a09 	vldr	s15, [pc, #36]	; 800aeec <__kernel_sinf+0x8c>
 800aec8:	eee6 0aa7 	vfma.f32	s1, s13, s15
 800aecc:	ee30 0a60 	vsub.f32	s0, s0, s1
 800aed0:	4770      	bx	lr
 800aed2:	bf00      	nop
 800aed4:	2f2ec9d3 	.word	0x2f2ec9d3
 800aed8:	b2d72f34 	.word	0xb2d72f34
 800aedc:	3638ef1b 	.word	0x3638ef1b
 800aee0:	b9500d01 	.word	0xb9500d01
 800aee4:	3c088889 	.word	0x3c088889
 800aee8:	be2aaaab 	.word	0xbe2aaaab
 800aeec:	3e2aaaab 	.word	0x3e2aaaab

0800aef0 <atanf>:
 800aef0:	b538      	push	{r3, r4, r5, lr}
 800aef2:	ee10 5a10 	vmov	r5, s0
 800aef6:	f025 4400 	bic.w	r4, r5, #2147483648	; 0x80000000
 800aefa:	f1b4 4fa1 	cmp.w	r4, #1350565888	; 0x50800000
 800aefe:	eef0 7a40 	vmov.f32	s15, s0
 800af02:	db10      	blt.n	800af26 <atanf+0x36>
 800af04:	f1b4 4fff 	cmp.w	r4, #2139095040	; 0x7f800000
 800af08:	dd04      	ble.n	800af14 <atanf+0x24>
 800af0a:	ee70 7a00 	vadd.f32	s15, s0, s0
 800af0e:	eeb0 0a67 	vmov.f32	s0, s15
 800af12:	bd38      	pop	{r3, r4, r5, pc}
 800af14:	eddf 7a4d 	vldr	s15, [pc, #308]	; 800b04c <atanf+0x15c>
 800af18:	ed9f 0a4d 	vldr	s0, [pc, #308]	; 800b050 <atanf+0x160>
 800af1c:	2d00      	cmp	r5, #0
 800af1e:	bfd8      	it	le
 800af20:	eef0 7a40 	vmovle.f32	s15, s0
 800af24:	e7f3      	b.n	800af0e <atanf+0x1e>
 800af26:	4b4b      	ldr	r3, [pc, #300]	; (800b054 <atanf+0x164>)
 800af28:	429c      	cmp	r4, r3
 800af2a:	dc10      	bgt.n	800af4e <atanf+0x5e>
 800af2c:	f1b4 5f44 	cmp.w	r4, #822083584	; 0x31000000
 800af30:	da0a      	bge.n	800af48 <atanf+0x58>
 800af32:	ed9f 7a49 	vldr	s14, [pc, #292]	; 800b058 <atanf+0x168>
 800af36:	ee30 7a07 	vadd.f32	s14, s0, s14
 800af3a:	eef7 6a00 	vmov.f32	s13, #112	; 0x3f800000  1.0
 800af3e:	eeb4 7ae6 	vcmpe.f32	s14, s13
 800af42:	eef1 fa10 	vmrs	APSR_nzcv, fpscr
 800af46:	dce2      	bgt.n	800af0e <atanf+0x1e>
 800af48:	f04f 33ff 	mov.w	r3, #4294967295
 800af4c:	e013      	b.n	800af76 <atanf+0x86>
 800af4e:	f000 f8a3 	bl	800b098 <fabsf>
 800af52:	4b42      	ldr	r3, [pc, #264]	; (800b05c <atanf+0x16c>)
 800af54:	429c      	cmp	r4, r3
 800af56:	dc4f      	bgt.n	800aff8 <atanf+0x108>
 800af58:	f5a3 03d0 	sub.w	r3, r3, #6815744	; 0x680000
 800af5c:	429c      	cmp	r4, r3
 800af5e:	dc41      	bgt.n	800afe4 <atanf+0xf4>
 800af60:	eef0 7a00 	vmov.f32	s15, #0	; 0x40000000  2.0
 800af64:	eebf 7a00 	vmov.f32	s14, #240	; 0xbf800000 -1.0
 800af68:	eea0 7a27 	vfma.f32	s14, s0, s15
 800af6c:	2300      	movs	r3, #0
 800af6e:	ee30 0a27 	vadd.f32	s0, s0, s15
 800af72:	eec7 7a00 	vdiv.f32	s15, s14, s0
 800af76:	1c5a      	adds	r2, r3, #1
 800af78:	ee67 6aa7 	vmul.f32	s13, s15, s15
 800af7c:	eddf 5a38 	vldr	s11, [pc, #224]	; 800b060 <atanf+0x170>
 800af80:	ed9f 6a38 	vldr	s12, [pc, #224]	; 800b064 <atanf+0x174>
 800af84:	ed9f 5a38 	vldr	s10, [pc, #224]	; 800b068 <atanf+0x178>
 800af88:	ed9f 0a38 	vldr	s0, [pc, #224]	; 800b06c <atanf+0x17c>
 800af8c:	ee26 7aa6 	vmul.f32	s14, s13, s13
 800af90:	eea7 6a25 	vfma.f32	s12, s14, s11
 800af94:	eddf 5a36 	vldr	s11, [pc, #216]	; 800b070 <atanf+0x180>
 800af98:	eee6 5a07 	vfma.f32	s11, s12, s14
 800af9c:	ed9f 6a35 	vldr	s12, [pc, #212]	; 800b074 <atanf+0x184>
 800afa0:	eea5 6a87 	vfma.f32	s12, s11, s14
 800afa4:	eddf 5a34 	vldr	s11, [pc, #208]	; 800b078 <atanf+0x188>
 800afa8:	eee6 5a07 	vfma.f32	s11, s12, s14
 800afac:	ed9f 6a33 	vldr	s12, [pc, #204]	; 800b07c <atanf+0x18c>
 800afb0:	eea5 6a87 	vfma.f32	s12, s11, s14
 800afb4:	eddf 5a32 	vldr	s11, [pc, #200]	; 800b080 <atanf+0x190>
 800afb8:	eee7 5a05 	vfma.f32	s11, s14, s10
 800afbc:	ed9f 5a31 	vldr	s10, [pc, #196]	; 800b084 <atanf+0x194>
 800afc0:	eea5 5a87 	vfma.f32	s10, s11, s14
 800afc4:	eddf 5a30 	vldr	s11, [pc, #192]	; 800b088 <atanf+0x198>
 800afc8:	eee5 5a07 	vfma.f32	s11, s10, s14
 800afcc:	eea5 0a87 	vfma.f32	s0, s11, s14
 800afd0:	ee20 0a07 	vmul.f32	s0, s0, s14
 800afd4:	eea6 0a26 	vfma.f32	s0, s12, s13
 800afd8:	ee27 0a80 	vmul.f32	s0, s15, s0
 800afdc:	d121      	bne.n	800b022 <atanf+0x132>
 800afde:	ee77 7ac0 	vsub.f32	s15, s15, s0
 800afe2:	e794      	b.n	800af0e <atanf+0x1e>
 800afe4:	eef7 7a00 	vmov.f32	s15, #112	; 0x3f800000  1.0
 800afe8:	ee30 7a67 	vsub.f32	s14, s0, s15
 800afec:	ee30 0a27 	vadd.f32	s0, s0, s15
 800aff0:	2301      	movs	r3, #1
 800aff2:	eec7 7a00 	vdiv.f32	s15, s14, s0
 800aff6:	e7be      	b.n	800af76 <atanf+0x86>
 800aff8:	4b24      	ldr	r3, [pc, #144]	; (800b08c <atanf+0x19c>)
 800affa:	429c      	cmp	r4, r3
 800affc:	dc0b      	bgt.n	800b016 <atanf+0x126>
 800affe:	eef7 7a08 	vmov.f32	s15, #120	; 0x3fc00000  1.5
 800b002:	eeb7 7a00 	vmov.f32	s14, #112	; 0x3f800000  1.0
 800b006:	eea0 7a27 	vfma.f32	s14, s0, s15
 800b00a:	2302      	movs	r3, #2
 800b00c:	ee70 6a67 	vsub.f32	s13, s0, s15
 800b010:	eec6 7a87 	vdiv.f32	s15, s13, s14
 800b014:	e7af      	b.n	800af76 <atanf+0x86>
 800b016:	eebf 7a00 	vmov.f32	s14, #240	; 0xbf800000 -1.0
 800b01a:	eec7 7a00 	vdiv.f32	s15, s14, s0
 800b01e:	2303      	movs	r3, #3
 800b020:	e7a9      	b.n	800af76 <atanf+0x86>
 800b022:	4a1b      	ldr	r2, [pc, #108]	; (800b090 <atanf+0x1a0>)
 800b024:	491b      	ldr	r1, [pc, #108]	; (800b094 <atanf+0x1a4>)
 800b026:	eb02 0283 	add.w	r2, r2, r3, lsl #2
 800b02a:	eb01 0383 	add.w	r3, r1, r3, lsl #2
 800b02e:	ed93 7a00 	vldr	s14, [r3]
 800b032:	ee30 0a47 	vsub.f32	s0, s0, s14
 800b036:	2d00      	cmp	r5, #0
 800b038:	ee70 7a67 	vsub.f32	s15, s0, s15
 800b03c:	ed92 0a00 	vldr	s0, [r2]
 800b040:	ee70 7a67 	vsub.f32	s15, s0, s15
 800b044:	bfb8      	it	lt
 800b046:	eef1 7a67 	vneglt.f32	s15, s15
 800b04a:	e760      	b.n	800af0e <atanf+0x1e>
 800b04c:	3fc90fdb 	.word	0x3fc90fdb
 800b050:	bfc90fdb 	.word	0xbfc90fdb
 800b054:	3edfffff 	.word	0x3edfffff
 800b058:	7149f2ca 	.word	0x7149f2ca
 800b05c:	3f97ffff 	.word	0x3f97ffff
 800b060:	3c8569d7 	.word	0x3c8569d7
 800b064:	3d4bda59 	.word	0x3d4bda59
 800b068:	bd15a221 	.word	0xbd15a221
 800b06c:	be4ccccd 	.word	0xbe4ccccd
 800b070:	3d886b35 	.word	0x3d886b35
 800b074:	3dba2e6e 	.word	0x3dba2e6e
 800b078:	3e124925 	.word	0x3e124925
 800b07c:	3eaaaaab 	.word	0x3eaaaaab
 800b080:	bd6ef16b 	.word	0xbd6ef16b
 800b084:	bd9d8795 	.word	0xbd9d8795
 800b088:	bde38e38 	.word	0xbde38e38
 800b08c:	401bffff 	.word	0x401bffff
 800b090:	0800b6cc 	.word	0x0800b6cc
 800b094:	0800b6dc 	.word	0x0800b6dc

0800b098 <fabsf>:
 800b098:	ee10 3a10 	vmov	r3, s0
 800b09c:	f023 4300 	bic.w	r3, r3, #2147483648	; 0x80000000
 800b0a0:	ee00 3a10 	vmov	s0, r3
 800b0a4:	4770      	bx	lr
	...

0800b0a8 <floorf>:
 800b0a8:	ee10 3a10 	vmov	r3, s0
 800b0ac:	f3c3 52c7 	ubfx	r2, r3, #23, #8
 800b0b0:	3a7f      	subs	r2, #127	; 0x7f
 800b0b2:	2a16      	cmp	r2, #22
 800b0b4:	f023 4100 	bic.w	r1, r3, #2147483648	; 0x80000000
 800b0b8:	dc2a      	bgt.n	800b110 <floorf+0x68>
 800b0ba:	2a00      	cmp	r2, #0
 800b0bc:	da11      	bge.n	800b0e2 <floorf+0x3a>
 800b0be:	eddf 7a18 	vldr	s15, [pc, #96]	; 800b120 <floorf+0x78>
 800b0c2:	ee30 0a27 	vadd.f32	s0, s0, s15
 800b0c6:	eeb5 0ac0 	vcmpe.f32	s0, #0.0
 800b0ca:	eef1 fa10 	vmrs	APSR_nzcv, fpscr
 800b0ce:	dd05      	ble.n	800b0dc <floorf+0x34>
 800b0d0:	2b00      	cmp	r3, #0
 800b0d2:	da23      	bge.n	800b11c <floorf+0x74>
 800b0d4:	4a13      	ldr	r2, [pc, #76]	; (800b124 <floorf+0x7c>)
 800b0d6:	2900      	cmp	r1, #0
 800b0d8:	bf18      	it	ne
 800b0da:	4613      	movne	r3, r2
 800b0dc:	ee00 3a10 	vmov	s0, r3
 800b0e0:	4770      	bx	lr
 800b0e2:	4911      	ldr	r1, [pc, #68]	; (800b128 <floorf+0x80>)
 800b0e4:	4111      	asrs	r1, r2
 800b0e6:	420b      	tst	r3, r1
 800b0e8:	d0fa      	beq.n	800b0e0 <floorf+0x38>
 800b0ea:	eddf 7a0d 	vldr	s15, [pc, #52]	; 800b120 <floorf+0x78>
 800b0ee:	ee30 0a27 	vadd.f32	s0, s0, s15
 800b0f2:	eeb5 0ac0 	vcmpe.f32	s0, #0.0
 800b0f6:	eef1 fa10 	vmrs	APSR_nzcv, fpscr
 800b0fa:	ddef      	ble.n	800b0dc <floorf+0x34>
 800b0fc:	2b00      	cmp	r3, #0
 800b0fe:	bfbe      	ittt	lt
 800b100:	f44f 0000 	movlt.w	r0, #8388608	; 0x800000
 800b104:	fa40 f202 	asrlt.w	r2, r0, r2
 800b108:	189b      	addlt	r3, r3, r2
 800b10a:	ea23 0301 	bic.w	r3, r3, r1
 800b10e:	e7e5      	b.n	800b0dc <floorf+0x34>
 800b110:	f1b1 4fff 	cmp.w	r1, #2139095040	; 0x7f800000
 800b114:	d3e4      	bcc.n	800b0e0 <floorf+0x38>
 800b116:	ee30 0a00 	vadd.f32	s0, s0, s0
 800b11a:	4770      	bx	lr
 800b11c:	2300      	movs	r3, #0
 800b11e:	e7dd      	b.n	800b0dc <floorf+0x34>
 800b120:	7149f2ca 	.word	0x7149f2ca
 800b124:	bf800000 	.word	0xbf800000
 800b128:	007fffff 	.word	0x007fffff

0800b12c <nanf>:
 800b12c:	ed9f 0a01 	vldr	s0, [pc, #4]	; 800b134 <nanf+0x8>
 800b130:	4770      	bx	lr
 800b132:	bf00      	nop
 800b134:	7fc00000 	.word	0x7fc00000

0800b138 <scalbnf>:
 800b138:	ee10 3a10 	vmov	r3, s0
 800b13c:	f033 4200 	bics.w	r2, r3, #2147483648	; 0x80000000
 800b140:	d025      	beq.n	800b18e <scalbnf+0x56>
 800b142:	f1b2 4fff 	cmp.w	r2, #2139095040	; 0x7f800000
 800b146:	d302      	bcc.n	800b14e <scalbnf+0x16>
 800b148:	ee30 0a00 	vadd.f32	s0, s0, s0
 800b14c:	4770      	bx	lr
 800b14e:	f013 4fff 	tst.w	r3, #2139095040	; 0x7f800000
 800b152:	d122      	bne.n	800b19a <scalbnf+0x62>
 800b154:	4b2a      	ldr	r3, [pc, #168]	; (800b200 <scalbnf+0xc8>)
 800b156:	eddf 7a2b 	vldr	s15, [pc, #172]	; 800b204 <scalbnf+0xcc>
 800b15a:	4298      	cmp	r0, r3
 800b15c:	ee20 0a27 	vmul.f32	s0, s0, s15
 800b160:	db16      	blt.n	800b190 <scalbnf+0x58>
 800b162:	ee10 3a10 	vmov	r3, s0
 800b166:	f3c3 52c7 	ubfx	r2, r3, #23, #8
 800b16a:	3a19      	subs	r2, #25
 800b16c:	4402      	add	r2, r0
 800b16e:	2afe      	cmp	r2, #254	; 0xfe
 800b170:	dd15      	ble.n	800b19e <scalbnf+0x66>
 800b172:	ee10 3a10 	vmov	r3, s0
 800b176:	eddf 7a24 	vldr	s15, [pc, #144]	; 800b208 <scalbnf+0xd0>
 800b17a:	eddf 6a24 	vldr	s13, [pc, #144]	; 800b20c <scalbnf+0xd4>
 800b17e:	2b00      	cmp	r3, #0
 800b180:	eeb0 7a67 	vmov.f32	s14, s15
 800b184:	bfb8      	it	lt
 800b186:	eef0 7a66 	vmovlt.f32	s15, s13
 800b18a:	ee27 0a27 	vmul.f32	s0, s14, s15
 800b18e:	4770      	bx	lr
 800b190:	eddf 7a1f 	vldr	s15, [pc, #124]	; 800b210 <scalbnf+0xd8>
 800b194:	ee20 0a27 	vmul.f32	s0, s0, s15
 800b198:	4770      	bx	lr
 800b19a:	0dd2      	lsrs	r2, r2, #23
 800b19c:	e7e6      	b.n	800b16c <scalbnf+0x34>
 800b19e:	2a00      	cmp	r2, #0
 800b1a0:	dd06      	ble.n	800b1b0 <scalbnf+0x78>
 800b1a2:	f023 43ff 	bic.w	r3, r3, #2139095040	; 0x7f800000
 800b1a6:	ea43 53c2 	orr.w	r3, r3, r2, lsl #23
 800b1aa:	ee00 3a10 	vmov	s0, r3
 800b1ae:	4770      	bx	lr
 800b1b0:	f112 0f16 	cmn.w	r2, #22
 800b1b4:	da1a      	bge.n	800b1ec <scalbnf+0xb4>
 800b1b6:	f24c 3350 	movw	r3, #50000	; 0xc350
 800b1ba:	4298      	cmp	r0, r3
 800b1bc:	ee10 3a10 	vmov	r3, s0
 800b1c0:	f003 4300 	and.w	r3, r3, #2147483648	; 0x80000000
 800b1c4:	dd0a      	ble.n	800b1dc <scalbnf+0xa4>
 800b1c6:	ed9f 0a10 	vldr	s0, [pc, #64]	; 800b208 <scalbnf+0xd0>
 800b1ca:	ed9f 7a10 	vldr	s14, [pc, #64]	; 800b20c <scalbnf+0xd4>
 800b1ce:	eef0 7a40 	vmov.f32	s15, s0
 800b1d2:	2b00      	cmp	r3, #0
 800b1d4:	bf18      	it	ne
 800b1d6:	eeb0 0a47 	vmovne.f32	s0, s14
 800b1da:	e7db      	b.n	800b194 <scalbnf+0x5c>
 800b1dc:	ed9f 0a0c 	vldr	s0, [pc, #48]	; 800b210 <scalbnf+0xd8>
 800b1e0:	ed9f 7a0c 	vldr	s14, [pc, #48]	; 800b214 <scalbnf+0xdc>
 800b1e4:	eef0 7a40 	vmov.f32	s15, s0
 800b1e8:	2b00      	cmp	r3, #0
 800b1ea:	e7f3      	b.n	800b1d4 <scalbnf+0x9c>
 800b1ec:	3219      	adds	r2, #25
 800b1ee:	f023 43ff 	bic.w	r3, r3, #2139095040	; 0x7f800000
 800b1f2:	ea43 53c2 	orr.w	r3, r3, r2, lsl #23
 800b1f6:	eddf 7a08 	vldr	s15, [pc, #32]	; 800b218 <scalbnf+0xe0>
 800b1fa:	ee07 3a10 	vmov	s14, r3
 800b1fe:	e7c4      	b.n	800b18a <scalbnf+0x52>
 800b200:	ffff3cb0 	.word	0xffff3cb0
 800b204:	4c000000 	.word	0x4c000000
 800b208:	7149f2ca 	.word	0x7149f2ca
 800b20c:	f149f2ca 	.word	0xf149f2ca
 800b210:	0da24260 	.word	0x0da24260
 800b214:	8da24260 	.word	0x8da24260
 800b218:	33000000 	.word	0x33000000

0800b21c <__errno>:
 800b21c:	4b01      	ldr	r3, [pc, #4]	; (800b224 <__errno+0x8>)
 800b21e:	6818      	ldr	r0, [r3, #0]
 800b220:	4770      	bx	lr
 800b222:	bf00      	nop
 800b224:	2000003c 	.word	0x2000003c

0800b228 <__libc_init_array>:
 800b228:	b570      	push	{r4, r5, r6, lr}
 800b22a:	4d0d      	ldr	r5, [pc, #52]	; (800b260 <__libc_init_array+0x38>)
 800b22c:	4c0d      	ldr	r4, [pc, #52]	; (800b264 <__libc_init_array+0x3c>)
 800b22e:	1b64      	subs	r4, r4, r5
 800b230:	10a4      	asrs	r4, r4, #2
 800b232:	2600      	movs	r6, #0
 800b234:	42a6      	cmp	r6, r4
 800b236:	d109      	bne.n	800b24c <__libc_init_array+0x24>
 800b238:	4d0b      	ldr	r5, [pc, #44]	; (800b268 <__libc_init_array+0x40>)
 800b23a:	4c0c      	ldr	r4, [pc, #48]	; (800b26c <__libc_init_array+0x44>)
 800b23c:	f000 f820 	bl	800b280 <_init>
 800b240:	1b64      	subs	r4, r4, r5
 800b242:	10a4      	asrs	r4, r4, #2
 800b244:	2600      	movs	r6, #0
 800b246:	42a6      	cmp	r6, r4
 800b248:	d105      	bne.n	800b256 <__libc_init_array+0x2e>
 800b24a:	bd70      	pop	{r4, r5, r6, pc}
 800b24c:	f855 3b04 	ldr.w	r3, [r5], #4
 800b250:	4798      	blx	r3
 800b252:	3601      	adds	r6, #1
 800b254:	e7ee      	b.n	800b234 <__libc_init_array+0xc>
 800b256:	f855 3b04 	ldr.w	r3, [r5], #4
 800b25a:	4798      	blx	r3
 800b25c:	3601      	adds	r6, #1
 800b25e:	e7f2      	b.n	800b246 <__libc_init_array+0x1e>
 800b260:	0800b6f4 	.word	0x0800b6f4
 800b264:	0800b6f4 	.word	0x0800b6f4
 800b268:	0800b6f4 	.word	0x0800b6f4
 800b26c:	0800b6f8 	.word	0x0800b6f8

0800b270 <memset>:
 800b270:	4402      	add	r2, r0
 800b272:	4603      	mov	r3, r0
 800b274:	4293      	cmp	r3, r2
 800b276:	d100      	bne.n	800b27a <memset+0xa>
 800b278:	4770      	bx	lr
 800b27a:	f803 1b01 	strb.w	r1, [r3], #1
 800b27e:	e7f9      	b.n	800b274 <memset+0x4>

0800b280 <_init>:
 800b280:	b5f8      	push	{r3, r4, r5, r6, r7, lr}
 800b282:	bf00      	nop
 800b284:	bcf8      	pop	{r3, r4, r5, r6, r7}
 800b286:	bc08      	pop	{r3}
 800b288:	469e      	mov	lr, r3
 800b28a:	4770      	bx	lr

0800b28c <_fini>:
 800b28c:	b5f8      	push	{r3, r4, r5, r6, r7, lr}
 800b28e:	bf00      	nop
 800b290:	bcf8      	pop	{r3, r4, r5, r6, r7}
 800b292:	bc08      	pop	{r3}
 800b294:	469e      	mov	lr, r3
 800b296:	4770      	bx	lr
